
de1_soc_audio_processing.elf:     file format elf32-littlenios2
de1_soc_audio_processing.elf
architecture: nios2:r1, flags 0x00000112:
EXEC_P, HAS_SYMS, D_PAGED
start address 0x04100228

Program Header:
    LOAD off    0x00001000 vaddr 0x04100000 paddr 0x04100000 align 2**12
         filesz 0x00000020 memsz 0x00000020 flags r-x
    LOAD off    0x00001020 vaddr 0x04100020 paddr 0x04100020 align 2**12
         filesz 0x00002748 memsz 0x00002748 flags r-x
    LOAD off    0x00003768 vaddr 0x04102768 paddr 0x04102e58 align 2**12
         filesz 0x000006f0 memsz 0x000006f0 flags rw-
    LOAD off    0x00004548 vaddr 0x04103548 paddr 0x04103548 align 2**12
         filesz 0x00000000 memsz 0x00000130 flags rw-

Sections:
Idx Name          Size      VMA       LMA       File off  Algn
  0 .entry        00000020  04100000  04100000  00001000  2**5
                  CONTENTS, ALLOC, LOAD, READONLY, CODE
  1 .exceptions   00000208  04100020  04100020  00001020  2**2
                  CONTENTS, ALLOC, LOAD, READONLY, CODE
  2 .text         000024b4  04100228  04100228  00001228  2**2
                  CONTENTS, ALLOC, LOAD, READONLY, CODE
  3 .rodata       0000008c  041026dc  041026dc  000036dc  2**2
                  CONTENTS, ALLOC, LOAD, READONLY, DATA
  4 .rwdata       000006f0  04102768  04102e58  00003768  2**2
                  CONTENTS, ALLOC, LOAD, DATA, SMALL_DATA
  5 .bss          00000130  04103548  04103548  00004548  2**2
                  ALLOC, SMALL_DATA
  6 .sdram_controller_0 00000000  04103678  04103678  00003e58  2**0
                  CONTENTS
  7 .comment      0000002c  00000000  00000000  00003e58  2**0
                  CONTENTS, READONLY
  8 .debug_aranges 00000498  00000000  00000000  00003e88  2**3
                  CONTENTS, READONLY, DEBUGGING
  9 .debug_info   00013b83  00000000  00000000  00004320  2**0
                  CONTENTS, READONLY, DEBUGGING
 10 .debug_abbrev 000042d0  00000000  00000000  00017ea3  2**0
                  CONTENTS, READONLY, DEBUGGING
 11 .debug_line   000044c3  00000000  00000000  0001c173  2**0
                  CONTENTS, READONLY, DEBUGGING
 12 .debug_frame  00000b54  00000000  00000000  00020638  2**2
                  CONTENTS, READONLY, DEBUGGING
 13 .debug_str    00001f34  00000000  00000000  0002118c  2**0
                  CONTENTS, READONLY, DEBUGGING
 14 .debug_loc    00000a88  00000000  00000000  000230c0  2**0
                  CONTENTS, READONLY, DEBUGGING
 15 .debug_alt_sim_info 00000010  00000000  00000000  00023b48  2**2
                  CONTENTS, READONLY, DEBUGGING
 16 .debug_ranges 00000190  00000000  00000000  00023b58  2**3
                  CONTENTS, READONLY, DEBUGGING
 17 .thread_model 00000003  00000000  00000000  00025997  2**0
                  CONTENTS, READONLY
 18 .cpu          0000000c  00000000  00000000  0002599a  2**0
                  CONTENTS, READONLY
 19 .qsys         00000001  00000000  00000000  000259a6  2**0
                  CONTENTS, READONLY
 20 .simulation_enabled 00000001  00000000  00000000  000259a7  2**0
                  CONTENTS, READONLY
 21 .sysid_hash   00000004  00000000  00000000  000259a8  2**0
                  CONTENTS, READONLY
 22 .sysid_base   00000004  00000000  00000000  000259ac  2**0
                  CONTENTS, READONLY
 23 .sysid_time   00000004  00000000  00000000  000259b0  2**0
                  CONTENTS, READONLY
 24 .stderr_dev   00000004  00000000  00000000  000259b4  2**0
                  CONTENTS, READONLY
 25 .stdin_dev    00000004  00000000  00000000  000259b8  2**0
                  CONTENTS, READONLY
 26 .stdout_dev   00000004  00000000  00000000  000259bc  2**0
                  CONTENTS, READONLY
 27 .sopc_system_name 0000000a  00000000  00000000  000259c0  2**0
                  CONTENTS, READONLY
 28 .quartus_project_dir 00000062  00000000  00000000  000259ca  2**0
                  CONTENTS, READONLY
SYMBOL TABLE:
04100000 l    d  .entry	00000000 .entry
04100020 l    d  .exceptions	00000000 .exceptions
04100228 l    d  .text	00000000 .text
041026dc l    d  .rodata	00000000 .rodata
04102768 l    d  .rwdata	00000000 .rwdata
04103548 l    d  .bss	00000000 .bss
04103678 l    d  .sdram_controller_0	00000000 .sdram_controller_0
00000000 l    d  .comment	00000000 .comment
00000000 l    d  .debug_aranges	00000000 .debug_aranges
00000000 l    d  .debug_info	00000000 .debug_info
00000000 l    d  .debug_abbrev	00000000 .debug_abbrev
00000000 l    d  .debug_line	00000000 .debug_line
00000000 l    d  .debug_frame	00000000 .debug_frame
00000000 l    d  .debug_str	00000000 .debug_str
00000000 l    d  .debug_loc	00000000 .debug_loc
00000000 l    d  .debug_alt_sim_info	00000000 .debug_alt_sim_info
00000000 l    d  .debug_ranges	00000000 .debug_ranges
00000000 l    df *ABS*	00000000 C:/Users/Medion/Desktop/4.godina/8.semestar/PNRS/Grupni_zadatak/pnrs-2023/de1-soc-audio/sw/nios/app_1/de1_soc_audio_processing_bsp/obj/HAL/src/crt0.o
04100260 l       .text	00000000 alt_after_alt_main
00000000 l    df *ABS*	00000000 alt_irq_handler.c
00000000 l    df *ABS*	00000000 alt_instruction_exception_entry.c
00000000 l    df *ABS*	00000000 de1_soc_audio_processing.c
04100264 l     F .text	0000006c timer_isr
00000000 l    df *ABS*	00000000 lib2-divmod.c
00000000 l    df *ABS*	00000000 alt_irq_register.c
00000000 l    df *ABS*	00000000 alt_irq_vars.c
00000000 l    df *ABS*	00000000 alt_load.c
04100900 l     F .text	00000068 alt_load_section
00000000 l    df *ABS*	00000000 alt_main.c
00000000 l    df *ABS*	00000000 alt_sys_init.c
04100a4c l     F .text	00000034 alt_dev_reg
04102768 l     O .rwdata	00000048 mailbox_0
041027b0 l     O .rwdata	00000048 mailbox_1
041027f8 l     O .rwdata	00000030 audio_and_video_config_0
04102828 l     O .rwdata	00000030 audio_0
00000000 l    df *ABS*	00000000 altera_avalon_mailbox_simple.c
04100b3c l     F .text	0000008c altera_avalon_mailbox_identify
04100bc8 l     F .text	00000078 altera_avalon_mailbox_post
04100c40 l     F .text	00000140 altera_avalon_mailbox_simple_tx_isr
04100d80 l     F .text	000000b0 altera_avalon_mailbox_simple_rx_isr
00000000 l    df *ABS*	00000000 altera_avalon_timer_sc.c
04101478 l     F .text	00000080 alt_avalon_timer_sc_irq
00000000 l    df *ABS*	00000000 altera_up_avalon_audio.c
00000000 l    df *ABS*	00000000 alt_close.c
04101d04 l     F .text	0000003c alt_get_errno
00000000 l    df *ABS*	00000000 alt_dcache_flush_all.c
00000000 l    df *ABS*	00000000 alt_dev.c
04101e3c l     F .text	0000002c alt_dev_null_write
00000000 l    df *ABS*	00000000 alt_dev_llist_insert.c
04101e68 l     F .text	0000003c alt_get_errno
00000000 l    df *ABS*	00000000 alt_do_ctors.c
00000000 l    df *ABS*	00000000 alt_do_dtors.c
00000000 l    df *ABS*	00000000 alt_errno.c
00000000 l    df *ABS*	00000000 alt_find_dev.c
00000000 l    df *ABS*	00000000 alt_icache_flush_all.c
00000000 l    df *ABS*	00000000 alt_release_fd.c
00000000 l    df *ABS*	00000000 alt_tick.c
00000000 l    df *ABS*	00000000 altera_nios2_gen2_irq.c
00000000 l    df *ABS*	00000000 atexit.c
00000000 l    df *ABS*	00000000 exit.c
00000000 l    df *ABS*	00000000 impure.c
04102a00 l     O .rwdata	00000424 impure_data
00000000 l    df *ABS*	00000000 int_errno.c
00000000 l    df *ABS*	00000000 memcmp.c
00000000 l    df *ABS*	00000000 strlen.c
00000000 l    df *ABS*	00000000 __atexit.c
00000000 l    df *ABS*	00000000 __call_atexit.c
00000000 l    df *ABS*	00000000 alt_exit.c
04103570 g     O .bss	00000004 alt_instruction_exception_handler
041011ec g     F .text	00000150 altera_avalon_mailbox_send
041009ec g     F .text	00000060 alt_main
04103578 g     O .bss	00000100 alt_irq
0410354c g     O .bss	00000004 mailbox_0
04102e58 g       *ABS*	00000000 __flash_rwdata_start
04101814 g     F .text	00000060 alt_up_audio_read_fifo_avail
04101874 g     F .text	00000068 alt_up_audio_record_r
04101780 g     F .text	00000094 alt_up_audio_reset_audio_core
041022e0 g     F .text	00000024 altera_nios2_gen2_irq_init
04100000 g     F .entry	0000000c __reset
04100020 g       *ABS*	00000000 __flash_exceptions_start
04103574 g     O .bss	00000004 errno
04101744 g     F .text	0000003c alt_up_audio_write_interrupt_pending
04103560 g     O .bss	00000004 alt_argv
0410ae24 g       *ABS*	00000000 _gp
0410133c g     F .text	0000013c altera_avalon_mailbox_retrieve_poll
04102880 g     O .rwdata	00000180 alt_fd_list
04103550 g     O .bss	00000004 mailbox_1
04102014 g     F .text	00000090 alt_find_dev
041026dc g       *ABS*	00000000 __DTOR_END__
04102304 g     F .text	00000098 alt_exception_cause_generated_bad_addr
04100e30 g     F .text	00000078 altera_avalon_mailbox_simple_init
04101c4c g     F .text	00000050 alt_up_audio_read_fifo_head
041006c0 g     F .text	00000064 .hidden __udivsi3
04101174 g     F .text	00000078 altera_avalon_mailbox_status
0410106c g     F .text	00000108 altera_avalon_mailbox_close
04103554 g     O .bss	00000004 audio_dev
04100380 g     F .text	0000005c start_stop_timer
04102e40 g     O .rwdata	00000004 alt_max_fd
04101c9c g     F .text	00000068 alt_up_audio_write_fifo_head
04100780 g     F .text	00000180 alt_irq_register
04000000 g       *ABS*	00000000 __alt_mem_sdram_controller_0
04102e50 g     O .rwdata	00000004 _global_impure_ptr
04103678 g       *ABS*	00000000 __bss_end
041021d8 g     F .text	00000108 alt_tick
04101574 g     F .text	0000003c alt_up_audio_open_dev
041019a4 g     F .text	00000068 alt_up_audio_play_r
04102134 g     F .text	000000a4 alt_alarm_stop
04103558 g     O .bss	00000004 alt_irq_active
041000fc g     F .exceptions	000000cc alt_irq_handler
04102858 g     O .rwdata	00000028 alt_dev_null
04101e1c g     F .text	00000020 alt_dcache_flush_all
041002d0 g     F .text	000000b0 vometer
04102e58 g       *ABS*	00000000 __ram_rwdata_end
04102e38 g     O .rwdata	00000008 alt_dev_list
04102768 g       *ABS*	00000000 __ram_rodata_end
04100724 g     F .text	0000005c .hidden __umodsi3
04103548 g     O .bss	00000002 blink
04103678 g       *ABS*	00000000 end
041001c8 g     F .exceptions	00000060 alt_instruction_exception_entry
041026dc g       *ABS*	00000000 __CTOR_LIST__
08000000 g       *ABS*	00000000 __alt_stack_pointer
041014f8 g     F .text	0000007c alt_avalon_timer_sc_init
04102584 g     F .text	00000120 __call_exitprocs
04100228 g     F .text	0000003c _start
04103568 g     O .bss	00000004 _alt_tick_rate
04101b54 g     F .text	000000f8 alt_up_audio_write_fifo
0410356c g     O .bss	00000004 _alt_nticks
04100abc g     F .text	00000080 alt_sys_init
04101a74 g     F .text	000000e0 alt_up_audio_read_fifo
041024f4 g     F .text	00000090 __register_exitproc
041016b0 g     F .text	00000058 alt_up_audio_disable_write_interrupt
04102768 g       *ABS*	00000000 __ram_rwdata_start
041026dc g       *ABS*	00000000 __ram_rodata_start
0410165c g     F .text	00000054 alt_up_audio_enable_write_interrupt
041023e4 g     F .text	00000078 memcmp
04103678 g       *ABS*	00000000 __alt_stack_base
04101604 g     F .text	00000058 alt_up_audio_disable_read_interrupt
04101ea4 g     F .text	000000a8 alt_dev_llist_insert
04103548 g       *ABS*	00000000 __bss_start
041003dc g     F .text	000001f0 main
04101944 g     F .text	00000060 alt_up_audio_write_fifo_space
04103564 g     O .bss	00000004 alt_envp
04102e44 g     O .rwdata	00000004 alt_errno
041005cc g     F .text	00000080 .hidden __divsi3
041026dc g       *ABS*	00000000 __CTOR_END__
041026dc g       *ABS*	00000000 __flash_rodata_start
041026dc g       *ABS*	00000000 __DTOR_LIST__
04100a80 g     F .text	0000003c alt_irq_init
041020c4 g     F .text	00000070 alt_release_fd
0410239c g     F .text	00000014 atexit
04102e54 g     O .rwdata	00000004 _impure_ptr
0410355c g     O .bss	00000004 alt_argc
04101fb0 g     F .text	00000064 _do_dtors
04100020 g       .exceptions	00000000 alt_irq_entry
04102e30 g     O .rwdata	00000008 alt_fs_list
041018dc g     F .text	00000068 alt_up_audio_record_l
04100020 g       *ABS*	00000000 __ram_exceptions_start
04102e58 g       *ABS*	00000000 _edata
04103678 g       *ABS*	00000000 _end
04100228 g       *ABS*	00000000 __ram_exceptions_end
04101a0c g     F .text	00000068 alt_up_audio_play_l
04102e28 g     O .rwdata	00000008 alt_mailbox_simple_list
041023b0 g     F .text	00000034 exit
0410064c g     F .text	00000074 .hidden __modsi3
08000000 g       *ABS*	00000000 __alt_data_end
04100020 g     F .exceptions	00000000 alt_exception
04100ea8 g     F .text	000001c4 altera_avalon_mailbox_open
041026a4 g     F .text	00000038 _exit
0410245c g     F .text	00000098 strlen
041020a4 g     F .text	00000020 alt_icache_flush_all
04102e24 g     O .rwdata	00000004 alt_priority_mask
04102e48 g     O .rwdata	00000008 alt_alarm_list
04101f4c g     F .text	00000064 _do_ctors
04101d40 g     F .text	000000dc close
04100968 g     F .text	00000084 alt_load
041015b0 g     F .text	00000054 alt_up_audio_enable_read_interrupt
04101708 g     F .text	0000003c alt_up_audio_read_interrupt_pending



Disassembly of section .entry:

04100000 <__reset>:
 * Jump to the _start entry point in the .text section if reset code
 * is allowed or if optimizing for RTL simulation.
 */
#if defined(ALT_ALLOW_CODE_AT_RESET) || defined(ALT_SIM_OPTIMIZE)
    /* Jump to the _start entry point in the .text section. */
    movhi r1, %hi(_start)
 4100000:	00410434 	movhi	at,1040
    ori r1, r1, %lo(_start)
 4100004:	08408a14 	ori	at,at,552
    jmp r1
 4100008:	0800683a 	jmp	at
	...

Disassembly of section .exceptions:

04100020 <alt_exception>:

#else /* ALT_EXCEPTION_STACK disabled */
        /* 
         * Reserve space on normal stack for registers about to be pushed.
         */
        addi  sp, sp, -76
 4100020:	deffed04 	addi	sp,sp,-76
         * documentation for details).
         *
         * Leave a gap in the stack frame at 4(sp) for the muldiv handler to
         * store zero into.
         */
        stw   ra,  0(sp)
 4100024:	dfc00015 	stw	ra,0(sp)
        stw   r1,   8(sp)
 4100028:	d8400215 	stw	at,8(sp)
        stw   r2,  12(sp)
 410002c:	d8800315 	stw	r2,12(sp)
        stw   r3,  16(sp)
 4100030:	d8c00415 	stw	r3,16(sp)
        stw   r4,  20(sp)
 4100034:	d9000515 	stw	r4,20(sp)
        stw   r5,  24(sp)
 4100038:	d9400615 	stw	r5,24(sp)
        stw   r6,  28(sp)
 410003c:	d9800715 	stw	r6,28(sp)
        stw   r7,  32(sp)
 4100040:	d9c00815 	stw	r7,32(sp)
        rdctl r5, estatus   /* Read early to avoid usage stall */
 4100044:	000b307a 	rdctl	r5,estatus
        stw   r8,  36(sp)
 4100048:	da000915 	stw	r8,36(sp)
        stw   r9,  40(sp)
 410004c:	da400a15 	stw	r9,40(sp)
        stw   r10, 44(sp)
 4100050:	da800b15 	stw	r10,44(sp)
        stw   r11, 48(sp)
 4100054:	dac00c15 	stw	r11,48(sp)
        stw   r12, 52(sp)
 4100058:	db000d15 	stw	r12,52(sp)
        stw   r13, 56(sp)
 410005c:	db400e15 	stw	r13,56(sp)
        stw   r14, 60(sp)
 4100060:	db800f15 	stw	r14,60(sp)
        stw   r15, 64(sp)
 4100064:	dbc01015 	stw	r15,64(sp)
        /*
         * ea-4 contains the address of the instruction being executed
         * when the exception occured. For interrupt exceptions, we will
         * will be re-issue the isntruction. Store it in 72(sp)
         */
        stw   r5,  68(sp)  /* estatus */
 4100068:	d9401115 	stw	r5,68(sp)
        addi  r15, ea, -4  /* instruction that caused exception */
 410006c:	ebffff04 	addi	r15,ea,-4
        stw   r15,  72(sp)
 4100070:	dbc01215 	stw	r15,72(sp)
#else
        /*
         * Test to see if the exception was a software exception or caused 
         * by an external interrupt, and vector accordingly.
         */
        rdctl r4, ipending
 4100074:	0009313a 	rdctl	r4,ipending
        andi  r2, r5, 1
 4100078:	2880004c 	andi	r2,r5,1
        beq   r2, zero, .Lnot_irq
 410007c:	10000326 	beq	r2,zero,410008c <alt_exception+0x6c>
        beq   r4, zero, .Lnot_irq
 4100080:	20000226 	beq	r4,zero,410008c <alt_exception+0x6c>
        /*
         * Now that all necessary registers have been preserved, call 
         * alt_irq_handler() to process the interrupts.
         */

        call alt_irq_handler
 4100084:	41000fc0 	call	41000fc <alt_irq_handler>

        .section .exceptions.irqreturn, "xa"

        br    .Lexception_exit
 4100088:	00000706 	br	41000a8 <alt_exception+0x88>
         * upon completion, so we write ea (address of instruction *after*
         * the one where the exception occured) into 72(sp). The actual
         * instruction that caused the exception is written in r2, which these
         * handlers will utilize.
         */
        stw ea, 72(sp) /* EA is PC+4 so will skip over instruction causing exception */
 410008c:	df401215 	stw	ea,72(sp)
.Lunknown_16bit:
        addi.n r4, r4, 2 /* Need PC+2 to skip over instruction causing exception */
        stw r4, 72(sp)

#else /* CDX is not Enabled and all instructions are 32bits */
        ldw r2, -4(ea) /* Instruction value that caused exception */
 4100090:	e8bfff17 	ldw	r2,-4(ea)
         * debugger is present) or go into an infinite loop since the
         * handling behavior is undefined; in that case we will not return here.
         */

        /* Load exception-causing address as first argument (r4) */
        addi   r4, ea, -4
 4100094:	e93fff04 	addi	r4,ea,-4

        /* Call the instruction-exception entry */
        call   alt_instruction_exception_entry
 4100098:	41001c80 	call	41001c8 <alt_instruction_exception_entry>
         * instruction
         *
         * Return code was 0: Skip. The instruction after the exception is
         * already stored in 72(sp).
         */
        bne   r2, r0, .Lexception_exit
 410009c:	1000021e 	bne	r2,zero,41000a8 <alt_exception+0x88>

        /*
         * Otherwise, modify 72(sp) to re-issue the instruction that caused the
         * exception.
         */
        addi  r15, ea, -4  /* instruction that caused exception */
 41000a0:	ebffff04 	addi	r15,ea,-4
        stw   r15,  72(sp)
 41000a4:	dbc01215 	stw	r15,72(sp)
        /* 
         * Restore the saved registers, so that all general purpose registers 
         * have been restored to their state at the time the interrupt occured.
         */

        ldw   r5,  68(sp)
 41000a8:	d9401117 	ldw	r5,68(sp)
        ldw   ea,  72(sp)  /* This becomes the PC once eret is executed */
 41000ac:	df401217 	ldw	ea,72(sp)
        ldw   ra,   0(sp)
 41000b0:	dfc00017 	ldw	ra,0(sp)

        wrctl estatus, r5
 41000b4:	2801707a 	wrctl	estatus,r5

        ldw   r1,   8(sp)
 41000b8:	d8400217 	ldw	at,8(sp)
        ldw   r2,  12(sp)
 41000bc:	d8800317 	ldw	r2,12(sp)
        ldw   r3,  16(sp)
 41000c0:	d8c00417 	ldw	r3,16(sp)
        ldw   r4,  20(sp)
 41000c4:	d9000517 	ldw	r4,20(sp)
        ldw   r5,  24(sp)
 41000c8:	d9400617 	ldw	r5,24(sp)
        ldw   r6,  28(sp)
 41000cc:	d9800717 	ldw	r6,28(sp)
        ldw   r7,  32(sp)
 41000d0:	d9c00817 	ldw	r7,32(sp)

#if defined(ALT_EXCEPTION_STACK) && defined(ALT_STACK_CHECK)
        ldw   et, %gprel(alt_exception_old_stack_limit)(gp)
#endif

        ldw   r8,  36(sp)
 41000d4:	da000917 	ldw	r8,36(sp)
        ldw   r9,  40(sp)
 41000d8:	da400a17 	ldw	r9,40(sp)
        ldw   r10, 44(sp)
 41000dc:	da800b17 	ldw	r10,44(sp)
        ldw   r11, 48(sp)
 41000e0:	dac00c17 	ldw	r11,48(sp)
        ldw   r12, 52(sp)
 41000e4:	db000d17 	ldw	r12,52(sp)
        ldw   r13, 56(sp)
 41000e8:	db400e17 	ldw	r13,56(sp)
        ldw   r14, 60(sp)
 41000ec:	db800f17 	ldw	r14,60(sp)
        ldw   r15, 64(sp)
 41000f0:	dbc01017 	ldw	r15,64(sp)
        stw   et, %gprel(alt_stack_limit_value)(gp)
        stw   zero, %gprel(alt_exception_old_stack_limit)(gp)
#endif /* ALT_STACK_CHECK */
        ldw   sp,  76(sp)
#else /* ALT_EXCEPTION_STACK disabled */
        addi  sp, sp, 76
 41000f4:	dec01304 	addi	sp,sp,76

        /*
         * Return to the interrupted instruction.
         */

        eret
 41000f8:	ef80083a 	eret

041000fc <alt_irq_handler>:
 * instruction is present if the macro ALT_CI_INTERRUPT_VECTOR defined.
 */

void alt_irq_handler (void) __attribute__ ((section (".exceptions")));
void alt_irq_handler (void)
{
 41000fc:	defff904 	addi	sp,sp,-28
 4100100:	dfc00615 	stw	ra,24(sp)
 4100104:	df000515 	stw	fp,20(sp)
 4100108:	df000504 	addi	fp,sp,20
  
  /*
   * Notify the operating system that we are at interrupt level.
   */ 
  
  ALT_OS_INT_ENTER();
 410010c:	0001883a 	nop
#ifndef NIOS2_EIC_PRESENT
static ALT_INLINE alt_u32 ALT_ALWAYS_INLINE alt_irq_pending (void)
{
  alt_u32 active;

  NIOS2_READ_IPENDING (active);
 4100110:	0005313a 	rdctl	r2,ipending
 4100114:	e0bffc15 	stw	r2,-16(fp)

  return active;
 4100118:	e0bffc17 	ldw	r2,-16(fp)
   * Consider the case where the high priority interupt is asserted during
   * the interrupt entry sequence for a lower priority interrupt to see why
   * this is the case.
   */

  active = alt_irq_pending ();
 410011c:	e0bfff15 	stw	r2,-4(fp)

  do
  {
    i = 0;
 4100120:	e03ffd15 	stw	zero,-12(fp)
    mask = 1;
 4100124:	00800044 	movi	r2,1
 4100128:	e0bffe15 	stw	r2,-8(fp)
     * called to clear the interrupt condition.
     */

    do
    {
      if (active & mask)
 410012c:	e0ffff17 	ldw	r3,-4(fp)
 4100130:	e0bffe17 	ldw	r2,-8(fp)
 4100134:	1884703a 	and	r2,r3,r2
 4100138:	10001226 	beq	r2,zero,4100184 <alt_irq_handler+0x88>
      { 
#ifdef ALT_ENHANCED_INTERRUPT_API_PRESENT
        alt_irq[i].handler(alt_irq[i].context); 
#else
        alt_irq[i].handler(alt_irq[i].context, i); 
 410013c:	e0bffd17 	ldw	r2,-12(fp)
 4100140:	100690fa 	slli	r3,r2,3
 4100144:	00810434 	movhi	r2,1040
 4100148:	1885883a 	add	r2,r3,r2
 410014c:	10cd5e17 	ldw	r3,13688(r2)
 4100150:	e0bffd17 	ldw	r2,-12(fp)
 4100154:	100890fa 	slli	r4,r2,3
 4100158:	00810434 	movhi	r2,1040
 410015c:	2085883a 	add	r2,r4,r2
 4100160:	108d5f17 	ldw	r2,13692(r2)
 4100164:	e17ffd17 	ldw	r5,-12(fp)
 4100168:	1009883a 	mov	r4,r2
 410016c:	183ee83a 	callr	r3
#endif
        break;
 4100170:	0001883a 	nop
  NIOS2_READ_IPENDING (active);
 4100174:	0005313a 	rdctl	r2,ipending
 4100178:	e0bffb15 	stw	r2,-20(fp)
  return active;
 410017c:	e0bffb17 	ldw	r2,-20(fp)
 4100180:	00000706 	br	41001a0 <alt_irq_handler+0xa4>
      }
      mask <<= 1;
 4100184:	e0bffe17 	ldw	r2,-8(fp)
 4100188:	1085883a 	add	r2,r2,r2
 410018c:	e0bffe15 	stw	r2,-8(fp)
      i++;
 4100190:	e0bffd17 	ldw	r2,-12(fp)
 4100194:	10800044 	addi	r2,r2,1
 4100198:	e0bffd15 	stw	r2,-12(fp)
      if (active & mask)
 410019c:	003fe306 	br	410012c <alt_irq_handler+0x30>

    } while (1);

    active = alt_irq_pending ();
 41001a0:	e0bfff15 	stw	r2,-4(fp)
    
  } while (active);
 41001a4:	e0bfff17 	ldw	r2,-4(fp)
 41001a8:	103fdd1e 	bne	r2,zero,4100120 <alt_irq_handler+0x24>

  /*
   * Notify the operating system that interrupt processing is complete.
   */ 

  ALT_OS_INT_EXIT();
 41001ac:	0001883a 	nop
}
 41001b0:	0001883a 	nop
 41001b4:	e037883a 	mov	sp,fp
 41001b8:	dfc00117 	ldw	ra,4(sp)
 41001bc:	df000017 	ldw	fp,0(sp)
 41001c0:	dec00204 	addi	sp,sp,8
 41001c4:	f800283a 	ret

041001c8 <alt_instruction_exception_entry>:
 * that handler if it has been registered. Absent a handler, it will
 * break break or hang as discussed below.
 */
int 
alt_instruction_exception_entry (alt_u32 exception_pc)
{
 41001c8:	defffb04 	addi	sp,sp,-20
 41001cc:	dfc00415 	stw	ra,16(sp)
 41001d0:	df000315 	stw	fp,12(sp)
 41001d4:	df000304 	addi	fp,sp,12
 41001d8:	e13ffd15 	stw	r4,-12(fp)
  cause = ( (cause & NIOS2_EXCEPTION_REG_CAUSE_MASK) >>
              NIOS2_EXCEPTION_REG_CAUSE_OFST );

  NIOS2_READ_BADADDR(badaddr);
#else
  cause = NIOS2_EXCEPTION_CAUSE_NOT_PRESENT;
 41001dc:	00bfffc4 	movi	r2,-1
 41001e0:	e0bfff15 	stw	r2,-4(fp)
  badaddr = 0;
 41001e4:	e03ffe15 	stw	zero,-8(fp)
#endif /* NIOS2_HAS_EXTRA_EXCEPTION_INFO */

  if(alt_instruction_exception_handler) {
 41001e8:	d0a1d317 	ldw	r2,-30900(gp)
 41001ec:	10000726 	beq	r2,zero,410020c <alt_instruction_exception_entry+0x44>
     * Call handler. Its return value indicates whether the exception-causing
     * instruction should be re-issued. The code that called us,
     * alt_eceptions_entry.S, will look at this value and adjust the ea
     * register as necessary
     */
    return alt_instruction_exception_handler(cause, exception_pc, badaddr);
 41001f0:	d0a1d317 	ldw	r2,-30900(gp)
 41001f4:	e0ffff17 	ldw	r3,-4(fp)
 41001f8:	e1bffe17 	ldw	r6,-8(fp)
 41001fc:	e17ffd17 	ldw	r5,-12(fp)
 4100200:	1809883a 	mov	r4,r3
 4100204:	103ee83a 	callr	r2
 4100208:	00000206 	br	4100214 <alt_instruction_exception_entry+0x4c>
   *    (a peripheral which negates its interrupt output before its
   *    interrupt handler has been executed will cause spurious interrupts)
   */
  else {
#ifdef NIOS2_HAS_DEBUG_STUB
    NIOS2_BREAK();
 410020c:	003da03a 	break	0
      ;
#endif /* NIOS2_HAS_DEBUG_STUB */
  }

  /* We should not get here. Remove compiler warning. */
  return NIOS2_EXCEPTION_RETURN_REISSUE_INST;
 4100210:	0005883a 	mov	r2,zero
}
 4100214:	e037883a 	mov	sp,fp
 4100218:	dfc00117 	ldw	ra,4(sp)
 410021c:	df000017 	ldw	fp,0(sp)
 4100220:	dec00204 	addi	sp,sp,8
 4100224:	f800283a 	ret

Disassembly of section .text:

04100228 <_start>:

    /*
     * Now that the caches are initialized, set up the stack pointer and global pointer.
     * The values provided by the linker are assumed to be correctly aligned.
     */
    movhi sp, %hi(__alt_stack_pointer)
 4100228:	06c20034 	movhi	sp,2048
    ori sp, sp, %lo(__alt_stack_pointer)
 410022c:	dec00014 	ori	sp,sp,0
    movhi gp, %hi(_gp)
 4100230:	06810434 	movhi	gp,1040
    ori gp, gp, %lo(_gp)
 4100234:	d6ab8914 	ori	gp,gp,44580
 */
#ifndef ALT_SIM_OPTIMIZE
    /* Log that the BSS is about to be cleared. */
    ALT_LOG_PUTS(alt_log_msg_bss)

    movhi r2, %hi(__bss_start)
 4100238:	00810434 	movhi	r2,1040
    ori r2, r2, %lo(__bss_start)
 410023c:	108d5214 	ori	r2,r2,13640

    movhi r3, %hi(__bss_end)
 4100240:	00c10434 	movhi	r3,1040
    ori r3, r3, %lo(__bss_end)
 4100244:	18cd9e14 	ori	r3,r3,13944

    beq r2, r3, 1f
 4100248:	10c00326 	beq	r2,r3,4100258 <_start+0x30>

0:
    stw zero, (r2)
 410024c:	10000015 	stw	zero,0(r2)
    addi r2, r2, 4
 4100250:	10800104 	addi	r2,r2,4
    bltu r2, r3, 0b
 4100254:	10fffd36 	bltu	r2,r3,410024c <_start+0x24>
     * section aren't defined until alt_load() has been called).
     */
    mov   et, zero
#endif

    call alt_load
 4100258:	41009680 	call	4100968 <alt_load>

    /* Log that alt_main is about to be called. */
    ALT_LOG_PUTS(alt_log_msg_alt_main)

    /* Call the C entry point. It should never return. */
    call alt_main
 410025c:	41009ec0 	call	41009ec <alt_main>

04100260 <alt_after_alt_main>:

    /* Wait in infinite loop in case alt_main does return. */
alt_after_alt_main:
    br alt_after_alt_main
 4100260:	003fff06 	br	4100260 <alt_after_alt_main>

04100264 <timer_isr>:
alt_up_audio_dev* audio_dev;

alt_u16 blink = 0;

static void timer_isr(void* isr_context, alt_u32 id)
{
 4100264:	defffd04 	addi	sp,sp,-12
 4100268:	df000215 	stw	fp,8(sp)
 410026c:	df000204 	addi	fp,sp,8
 4100270:	e13fff15 	stw	r4,-4(fp)
 4100274:	e17ffe15 	stw	r5,-8(fp)
	IOWR_ALTERA_AVALON_TIMER_STATUS(TIMER_1_BASE, 0);
 4100278:	0005883a 	mov	r2,zero
 410027c:	00840035 	stwio	r2,4096(zero)
	IOWR_ALTERA_AVALON_PIO_DATA(LEDS_0_BASE, blink);
 4100280:	d0a1c90b 	ldhu	r2,-30940(gp)
 4100284:	10bfffcc 	andi	r2,r2,65535
 4100288:	00841035 	stwio	r2,4160(zero)
	blink = (blink+1)%2;
 410028c:	d0a1c90b 	ldhu	r2,-30940(gp)
 4100290:	10bfffcc 	andi	r2,r2,65535
 4100294:	10c00044 	addi	r3,r2,1
 4100298:	00a00034 	movhi	r2,32768
 410029c:	10800044 	addi	r2,r2,1
 41002a0:	1884703a 	and	r2,r3,r2
 41002a4:	1000040e 	bge	r2,zero,41002b8 <timer_isr+0x54>
 41002a8:	10bfffc4 	addi	r2,r2,-1
 41002ac:	00ffff84 	movi	r3,-2
 41002b0:	10c4b03a 	or	r2,r2,r3
 41002b4:	10800044 	addi	r2,r2,1
 41002b8:	d0a1c90d 	sth	r2,-30940(gp)
}
 41002bc:	0001883a 	nop
 41002c0:	e037883a 	mov	sp,fp
 41002c4:	df000017 	ldw	fp,0(sp)
 41002c8:	dec00104 	addi	sp,sp,4
 41002cc:	f800283a 	ret

041002d0 <vometer>:

void vometer(unsigned int value)
{
 41002d0:	defffb04 	addi	sp,sp,-20
 41002d4:	dfc00415 	stw	ra,16(sp)
 41002d8:	df000315 	stw	fp,12(sp)
 41002dc:	df000304 	addi	fp,sp,12
 41002e0:	e13ffd15 	stw	r4,-12(fp)
	alt_u16 val = 0, mask = 0b1;
 41002e4:	e03fff8d 	sth	zero,-2(fp)
 41002e8:	00800044 	movi	r2,1
 41002ec:	e0bfff0d 	sth	r2,-4(fp)
	for(int i = 1; i <= 10; i++){
 41002f0:	00800044 	movi	r2,1
 41002f4:	e0bffe15 	stw	r2,-8(fp)
 41002f8:	00001406 	br	410034c <vometer+0x7c>
		if(value > i*THD){
 41002fc:	e0fffe17 	ldw	r3,-8(fp)
 4100300:	1805883a 	mov	r2,r3
 4100304:	1004943a 	slli	r2,r2,16
 4100308:	10c5c83a 	sub	r2,r2,r3
 410030c:	014002c4 	movi	r5,11
 4100310:	1009883a 	mov	r4,r2
 4100314:	41005cc0 	call	41005cc <__divsi3>
 4100318:	1007883a 	mov	r3,r2
 410031c:	e0bffd17 	ldw	r2,-12(fp)
 4100320:	18800e2e 	bgeu	r3,r2,410035c <vometer+0x8c>
			val += mask;
 4100324:	e0ffff8b 	ldhu	r3,-2(fp)
 4100328:	e0bfff0b 	ldhu	r2,-4(fp)
 410032c:	1885883a 	add	r2,r3,r2
 4100330:	e0bfff8d 	sth	r2,-2(fp)
			mask <<= 1;
 4100334:	e0bfff0b 	ldhu	r2,-4(fp)
 4100338:	1085883a 	add	r2,r2,r2
 410033c:	e0bfff0d 	sth	r2,-4(fp)
	for(int i = 1; i <= 10; i++){
 4100340:	e0bffe17 	ldw	r2,-8(fp)
 4100344:	10800044 	addi	r2,r2,1
 4100348:	e0bffe15 	stw	r2,-8(fp)
 410034c:	e0bffe17 	ldw	r2,-8(fp)
 4100350:	108002d0 	cmplti	r2,r2,11
 4100354:	103fe91e 	bne	r2,zero,41002fc <vometer+0x2c>
 4100358:	00000106 	br	4100360 <vometer+0x90>
		}
		else
			break;
 410035c:	0001883a 	nop
	}
	IOWR_ALTERA_AVALON_PIO_DATA(LEDS_0_BASE, val);
 4100360:	e0bfff8b 	ldhu	r2,-2(fp)
 4100364:	00841035 	stwio	r2,4160(zero)
}
 4100368:	0001883a 	nop
 410036c:	e037883a 	mov	sp,fp
 4100370:	dfc00117 	ldw	ra,4(sp)
 4100374:	df000017 	ldw	fp,0(sp)
 4100378:	dec00204 	addi	sp,sp,8
 410037c:	f800283a 	ret

04100380 <start_stop_timer>:

void start_stop_timer(int start_stop) // 1 -> start, 0 -> stop
{
 4100380:	defffe04 	addi	sp,sp,-8
 4100384:	df000115 	stw	fp,4(sp)
 4100388:	df000104 	addi	fp,sp,4
 410038c:	e13fff15 	stw	r4,-4(fp)
	IOWR_ALTERA_AVALON_PIO_DATA(LEDS_0_BASE, 0);
 4100390:	0005883a 	mov	r2,zero
 4100394:	00841035 	stwio	r2,4160(zero)
	switch(start_stop){
 4100398:	e0bfff17 	ldw	r2,-4(fp)
 410039c:	10000426 	beq	r2,zero,41003b0 <start_stop_timer+0x30>
 41003a0:	e0bfff17 	ldw	r2,-4(fp)
 41003a4:	10800060 	cmpeqi	r2,r2,1
 41003a8:	1000041e 	bne	r2,zero,41003bc <start_stop_timer+0x3c>
			break;
		case 1:
			IOWR_ALTERA_AVALON_TIMER_CONTROL(TIMER_1_BASE, 7);
			break;
	}
}
 41003ac:	00000606 	br	41003c8 <start_stop_timer+0x48>
			IOWR_ALTERA_AVALON_TIMER_CONTROL(TIMER_1_BASE, 8);
 41003b0:	00800204 	movi	r2,8
 41003b4:	00840135 	stwio	r2,4100(zero)
			break;
 41003b8:	00000306 	br	41003c8 <start_stop_timer+0x48>
			IOWR_ALTERA_AVALON_TIMER_CONTROL(TIMER_1_BASE, 7);
 41003bc:	008001c4 	movi	r2,7
 41003c0:	00840135 	stwio	r2,4100(zero)
			break;
 41003c4:	0001883a 	nop
}
 41003c8:	0001883a 	nop
 41003cc:	e037883a 	mov	sp,fp
 41003d0:	df000017 	ldw	fp,0(sp)
 41003d4:	dec00104 	addi	sp,sp,4
 41003d8:	f800283a 	ret

041003dc <main>:
int main(void)
{
 41003dc:	defff904 	addi	sp,sp,-28
 41003e0:	dfc00615 	stw	ra,24(sp)
 41003e4:	df000515 	stw	fp,20(sp)
 41003e8:	df000504 	addi	fp,sp,20
	unsigned int message[2];
	unsigned int l_buf;
	unsigned int r_buf;
	int state = 1; // 1 -> loopback, 2 -> record, 3 -> play
 41003ec:	00800044 	movi	r2,1
 41003f0:	e0bfff15 	stw	r2,-4(fp)

	// one second period, 50e6 counts = 0x2FAF080
	IOWR_ALTERA_AVALON_TIMER_PERIODL(TIMER_1_BASE, 0xf080);
 41003f4:	00bc2014 	movui	r2,61568
 41003f8:	00840235 	stwio	r2,4104(zero)
	IOWR_ALTERA_AVALON_TIMER_PERIODH(TIMER_1_BASE, 0x2fa);
 41003fc:	0080be84 	movi	r2,762
 4100400:	00840335 	stwio	r2,4108(zero)
	IOWR_ALTERA_AVALON_TIMER_CONTROL(TIMER_1_BASE, 8);
 4100404:	00800204 	movi	r2,8
 4100408:	00840135 	stwio	r2,4100(zero)

	// register the interrupt (and turn it on)
	alt_irq_register(TIMER_1_IRQ, NULL, timer_isr);
 410040c:	01810434 	movhi	r6,1040
 4100410:	31809904 	addi	r6,r6,612
 4100414:	000b883a 	mov	r5,zero
 4100418:	01000044 	movi	r4,1
 410041c:	41007800 	call	4100780 <alt_irq_register>

	mailbox_0 = altera_avalon_mailbox_open(MAILBOX_0_NAME, NULL, NULL);
 4100420:	000d883a 	mov	r6,zero
 4100424:	000b883a 	mov	r5,zero
 4100428:	01010434 	movhi	r4,1040
 410042c:	2109b704 	addi	r4,r4,9948
 4100430:	4100ea80 	call	4100ea8 <altera_avalon_mailbox_open>
 4100434:	d0a1ca15 	stw	r2,-30936(gp)
	mailbox_1 = altera_avalon_mailbox_open(MAILBOX_1_NAME, NULL, NULL);
 4100438:	000d883a 	mov	r6,zero
 410043c:	000b883a 	mov	r5,zero
 4100440:	01010434 	movhi	r4,1040
 4100444:	2109bb04 	addi	r4,r4,9964
 4100448:	4100ea80 	call	4100ea8 <altera_avalon_mailbox_open>
 410044c:	d0a1cb15 	stw	r2,-30932(gp)
	audio_dev = alt_up_audio_open_dev(AUDIO_0_NAME);
 4100450:	01010434 	movhi	r4,1040
 4100454:	2109bf04 	addi	r4,r4,9980
 4100458:	41015740 	call	4101574 <alt_up_audio_open_dev>
 410045c:	d0a1cc15 	stw	r2,-30928(gp)

	while(1)
	{
		altera_avalon_mailbox_retrieve_poll(mailbox_0, message, 100);
 4100460:	d0a1ca17 	ldw	r2,-30936(gp)
 4100464:	e0fffd04 	addi	r3,fp,-12
 4100468:	01801904 	movi	r6,100
 410046c:	180b883a 	mov	r5,r3
 4100470:	1009883a 	mov	r4,r2
 4100474:	410133c0 	call	410133c <altera_avalon_mailbox_retrieve_poll>
		if(message[1] != 0)
 4100478:	e0bffe17 	ldw	r2,-8(fp)
 410047c:	10000226 	beq	r2,zero,4100488 <main+0xac>
			state = message[1];
 4100480:	e0bffe17 	ldw	r2,-8(fp)
 4100484:	e0bfff15 	stw	r2,-4(fp)

		switch(state){
 4100488:	e0bfff17 	ldw	r2,-4(fp)
 410048c:	108000e0 	cmpeqi	r2,r2,3
 4100490:	1000471e 	bne	r2,zero,41005b0 <main+0x1d4>
 4100494:	e0bfff17 	ldw	r2,-4(fp)
 4100498:	10800108 	cmpgei	r2,r2,4
 410049c:	103ff01e 	bne	r2,zero,4100460 <main+0x84>
 41004a0:	e0bfff17 	ldw	r2,-4(fp)
 41004a4:	10800060 	cmpeqi	r2,r2,1
 41004a8:	1000041e 	bne	r2,zero,41004bc <main+0xe0>
 41004ac:	e0bfff17 	ldw	r2,-4(fp)
 41004b0:	108000a0 	cmpeqi	r2,r2,2
 41004b4:	1000281e 	bne	r2,zero,4100558 <main+0x17c>
 41004b8:	00004306 	br	41005c8 <main+0x1ec>
			case 1:
				start_stop_timer(0); // stop timer
 41004bc:	0009883a 	mov	r4,zero
 41004c0:	41003800 	call	4100380 <start_stop_timer>
				if (alt_up_audio_read_fifo_avail(audio_dev, ALT_UP_AUDIO_RIGHT) > 0) // check if data is available
 41004c4:	d0a1cc17 	ldw	r2,-30928(gp)
 41004c8:	01400044 	movi	r5,1
 41004cc:	1009883a 	mov	r4,r2
 41004d0:	41018140 	call	4101814 <alt_up_audio_read_fifo_avail>
 41004d4:	10003926 	beq	r2,zero,41005bc <main+0x1e0>
				{
					// read audio buffer
					alt_up_audio_read_fifo(audio_dev, &(r_buf), 1, ALT_UP_AUDIO_RIGHT);
 41004d8:	d0a1cc17 	ldw	r2,-30928(gp)
 41004dc:	e0fffb04 	addi	r3,fp,-20
 41004e0:	01c00044 	movi	r7,1
 41004e4:	01800044 	movi	r6,1
 41004e8:	180b883a 	mov	r5,r3
 41004ec:	1009883a 	mov	r4,r2
 41004f0:	4101a740 	call	4101a74 <alt_up_audio_read_fifo>
					alt_up_audio_read_fifo(audio_dev, &(l_buf), 1, ALT_UP_AUDIO_LEFT);
 41004f4:	d0a1cc17 	ldw	r2,-30928(gp)
 41004f8:	e0fffc04 	addi	r3,fp,-16
 41004fc:	000f883a 	mov	r7,zero
 4100500:	01800044 	movi	r6,1
 4100504:	180b883a 	mov	r5,r3
 4100508:	1009883a 	mov	r4,r2
 410050c:	4101a740 	call	4101a74 <alt_up_audio_read_fifo>

					// turn on LED-s
					vometer(r_buf);
 4100510:	e0bffb17 	ldw	r2,-20(fp)
 4100514:	1009883a 	mov	r4,r2
 4100518:	41002d00 	call	41002d0 <vometer>

					// write audio buffer
					alt_up_audio_write_fifo(audio_dev, &(r_buf), 1, ALT_UP_AUDIO_RIGHT);
 410051c:	d0a1cc17 	ldw	r2,-30928(gp)
 4100520:	e0fffb04 	addi	r3,fp,-20
 4100524:	01c00044 	movi	r7,1
 4100528:	01800044 	movi	r6,1
 410052c:	180b883a 	mov	r5,r3
 4100530:	1009883a 	mov	r4,r2
 4100534:	4101b540 	call	4101b54 <alt_up_audio_write_fifo>
					alt_up_audio_write_fifo(audio_dev, &(l_buf), 1, ALT_UP_AUDIO_LEFT);
 4100538:	d0a1cc17 	ldw	r2,-30928(gp)
 410053c:	e0fffc04 	addi	r3,fp,-16
 4100540:	000f883a 	mov	r7,zero
 4100544:	01800044 	movi	r6,1
 4100548:	180b883a 	mov	r5,r3
 410054c:	1009883a 	mov	r4,r2
 4100550:	4101b540 	call	4101b54 <alt_up_audio_write_fifo>
				}
				break;
 4100554:	00001906 	br	41005bc <main+0x1e0>
			case 2:
				start_stop_timer(1); // start timer
 4100558:	01000044 	movi	r4,1
 410055c:	41003800 	call	4100380 <start_stop_timer>
				if (alt_up_audio_read_fifo_avail(audio_dev, ALT_UP_AUDIO_RIGHT) > 0) // check if data is available
 4100560:	d0a1cc17 	ldw	r2,-30928(gp)
 4100564:	01400044 	movi	r5,1
 4100568:	1009883a 	mov	r4,r2
 410056c:	41018140 	call	4101814 <alt_up_audio_read_fifo_avail>
 4100570:	10001426 	beq	r2,zero,41005c4 <main+0x1e8>
				{
					// read audio buffer
					alt_up_audio_read_fifo(audio_dev, &(r_buf), 1, ALT_UP_AUDIO_RIGHT);
 4100574:	d0a1cc17 	ldw	r2,-30928(gp)
 4100578:	e0fffb04 	addi	r3,fp,-20
 410057c:	01c00044 	movi	r7,1
 4100580:	01800044 	movi	r6,1
 4100584:	180b883a 	mov	r5,r3
 4100588:	1009883a 	mov	r4,r2
 410058c:	4101a740 	call	4101a74 <alt_up_audio_read_fifo>
					alt_up_audio_read_fifo(audio_dev, &(l_buf), 1, ALT_UP_AUDIO_LEFT);
 4100590:	d0a1cc17 	ldw	r2,-30928(gp)
 4100594:	e0fffc04 	addi	r3,fp,-16
 4100598:	000f883a 	mov	r7,zero
 410059c:	01800044 	movi	r6,1
 41005a0:	180b883a 	mov	r5,r3
 41005a4:	1009883a 	mov	r4,r2
 41005a8:	4101a740 	call	4101a74 <alt_up_audio_read_fifo>

					// write to share memory

					// signalize HPS that buffer is ready (1 -> left buff, 2 -> right buff)
				}
				break;
 41005ac:	00000506 	br	41005c4 <main+0x1e8>
			case 3:
				start_stop_timer(0); // stop timer
 41005b0:	0009883a 	mov	r4,zero
 41005b4:	41003800 	call	4100380 <start_stop_timer>
				break;
 41005b8:	00000306 	br	41005c8 <main+0x1ec>
				break;
 41005bc:	0001883a 	nop
 41005c0:	003fa706 	br	4100460 <main+0x84>
				break;
 41005c4:	0001883a 	nop
		altera_avalon_mailbox_retrieve_poll(mailbox_0, message, 100);
 41005c8:	003fa506 	br	4100460 <main+0x84>

041005cc <__divsi3>:
 41005cc:	20001a16 	blt	r4,zero,4100638 <__divsi3+0x6c>
 41005d0:	000f883a 	mov	r7,zero
 41005d4:	2800020e 	bge	r5,zero,41005e0 <__divsi3+0x14>
 41005d8:	014bc83a 	sub	r5,zero,r5
 41005dc:	39c0005c 	xori	r7,r7,1
 41005e0:	200d883a 	mov	r6,r4
 41005e4:	00c00044 	movi	r3,1
 41005e8:	2900092e 	bgeu	r5,r4,4100610 <__divsi3+0x44>
 41005ec:	00800804 	movi	r2,32
 41005f0:	00c00044 	movi	r3,1
 41005f4:	00000106 	br	41005fc <__divsi3+0x30>
 41005f8:	10001226 	beq	r2,zero,4100644 <__divsi3+0x78>
 41005fc:	294b883a 	add	r5,r5,r5
 4100600:	10bfffc4 	addi	r2,r2,-1
 4100604:	18c7883a 	add	r3,r3,r3
 4100608:	293ffb36 	bltu	r5,r4,41005f8 <__divsi3+0x2c>
 410060c:	18000d26 	beq	r3,zero,4100644 <__divsi3+0x78>
 4100610:	0005883a 	mov	r2,zero
 4100614:	31400236 	bltu	r6,r5,4100620 <__divsi3+0x54>
 4100618:	314dc83a 	sub	r6,r6,r5
 410061c:	10c4b03a 	or	r2,r2,r3
 4100620:	1806d07a 	srli	r3,r3,1
 4100624:	280ad07a 	srli	r5,r5,1
 4100628:	183ffa1e 	bne	r3,zero,4100614 <__divsi3+0x48>
 410062c:	38000126 	beq	r7,zero,4100634 <__divsi3+0x68>
 4100630:	0085c83a 	sub	r2,zero,r2
 4100634:	f800283a 	ret
 4100638:	0109c83a 	sub	r4,zero,r4
 410063c:	01c00044 	movi	r7,1
 4100640:	003fe406 	br	41005d4 <__divsi3+0x8>
 4100644:	0005883a 	mov	r2,zero
 4100648:	003ff806 	br	410062c <__divsi3+0x60>

0410064c <__modsi3>:
 410064c:	20001916 	blt	r4,zero,41006b4 <__modsi3+0x68>
 4100650:	000f883a 	mov	r7,zero
 4100654:	2005883a 	mov	r2,r4
 4100658:	2800010e 	bge	r5,zero,4100660 <__modsi3+0x14>
 410065c:	014bc83a 	sub	r5,zero,r5
 4100660:	00c00044 	movi	r3,1
 4100664:	2900092e 	bgeu	r5,r4,410068c <__modsi3+0x40>
 4100668:	01800804 	movi	r6,32
 410066c:	00c00044 	movi	r3,1
 4100670:	00000106 	br	4100678 <__modsi3+0x2c>
 4100674:	30000d26 	beq	r6,zero,41006ac <__modsi3+0x60>
 4100678:	294b883a 	add	r5,r5,r5
 410067c:	31bfffc4 	addi	r6,r6,-1
 4100680:	18c7883a 	add	r3,r3,r3
 4100684:	293ffb36 	bltu	r5,r4,4100674 <__modsi3+0x28>
 4100688:	18000826 	beq	r3,zero,41006ac <__modsi3+0x60>
 410068c:	1806d07a 	srli	r3,r3,1
 4100690:	11400136 	bltu	r2,r5,4100698 <__modsi3+0x4c>
 4100694:	1145c83a 	sub	r2,r2,r5
 4100698:	280ad07a 	srli	r5,r5,1
 410069c:	183ffb1e 	bne	r3,zero,410068c <__modsi3+0x40>
 41006a0:	38000126 	beq	r7,zero,41006a8 <__modsi3+0x5c>
 41006a4:	0085c83a 	sub	r2,zero,r2
 41006a8:	f800283a 	ret
 41006ac:	2005883a 	mov	r2,r4
 41006b0:	003ffb06 	br	41006a0 <__modsi3+0x54>
 41006b4:	0109c83a 	sub	r4,zero,r4
 41006b8:	01c00044 	movi	r7,1
 41006bc:	003fe506 	br	4100654 <__modsi3+0x8>

041006c0 <__udivsi3>:
 41006c0:	200d883a 	mov	r6,r4
 41006c4:	2900152e 	bgeu	r5,r4,410071c <__udivsi3+0x5c>
 41006c8:	28001416 	blt	r5,zero,410071c <__udivsi3+0x5c>
 41006cc:	00800804 	movi	r2,32
 41006d0:	00c00044 	movi	r3,1
 41006d4:	00000206 	br	41006e0 <__udivsi3+0x20>
 41006d8:	10000e26 	beq	r2,zero,4100714 <__udivsi3+0x54>
 41006dc:	28000516 	blt	r5,zero,41006f4 <__udivsi3+0x34>
 41006e0:	294b883a 	add	r5,r5,r5
 41006e4:	10bfffc4 	addi	r2,r2,-1
 41006e8:	18c7883a 	add	r3,r3,r3
 41006ec:	293ffa36 	bltu	r5,r4,41006d8 <__udivsi3+0x18>
 41006f0:	18000826 	beq	r3,zero,4100714 <__udivsi3+0x54>
 41006f4:	0005883a 	mov	r2,zero
 41006f8:	31400236 	bltu	r6,r5,4100704 <__udivsi3+0x44>
 41006fc:	314dc83a 	sub	r6,r6,r5
 4100700:	10c4b03a 	or	r2,r2,r3
 4100704:	1806d07a 	srli	r3,r3,1
 4100708:	280ad07a 	srli	r5,r5,1
 410070c:	183ffa1e 	bne	r3,zero,41006f8 <__udivsi3+0x38>
 4100710:	f800283a 	ret
 4100714:	0005883a 	mov	r2,zero
 4100718:	f800283a 	ret
 410071c:	00c00044 	movi	r3,1
 4100720:	003ff406 	br	41006f4 <__udivsi3+0x34>

04100724 <__umodsi3>:
 4100724:	2005883a 	mov	r2,r4
 4100728:	2900132e 	bgeu	r5,r4,4100778 <__umodsi3+0x54>
 410072c:	28001216 	blt	r5,zero,4100778 <__umodsi3+0x54>
 4100730:	01800804 	movi	r6,32
 4100734:	00c00044 	movi	r3,1
 4100738:	00000206 	br	4100744 <__umodsi3+0x20>
 410073c:	30000c26 	beq	r6,zero,4100770 <__umodsi3+0x4c>
 4100740:	28000516 	blt	r5,zero,4100758 <__umodsi3+0x34>
 4100744:	294b883a 	add	r5,r5,r5
 4100748:	31bfffc4 	addi	r6,r6,-1
 410074c:	18c7883a 	add	r3,r3,r3
 4100750:	293ffa36 	bltu	r5,r4,410073c <__umodsi3+0x18>
 4100754:	18000626 	beq	r3,zero,4100770 <__umodsi3+0x4c>
 4100758:	1806d07a 	srli	r3,r3,1
 410075c:	11400136 	bltu	r2,r5,4100764 <__umodsi3+0x40>
 4100760:	1145c83a 	sub	r2,r2,r5
 4100764:	280ad07a 	srli	r5,r5,1
 4100768:	183ffb1e 	bne	r3,zero,4100758 <__umodsi3+0x34>
 410076c:	f800283a 	ret
 4100770:	2005883a 	mov	r2,r4
 4100774:	f800283a 	ret
 4100778:	00c00044 	movi	r3,1
 410077c:	003ff606 	br	4100758 <__umodsi3+0x34>

04100780 <alt_irq_register>:
 */
 
int alt_irq_register (alt_u32 id, 
                      void* context, 
                      alt_isr_func handler)
{
 4100780:	defff004 	addi	sp,sp,-64
 4100784:	df000f15 	stw	fp,60(sp)
 4100788:	df000f04 	addi	fp,sp,60
 410078c:	e13ff315 	stw	r4,-52(fp)
 4100790:	e17ff215 	stw	r5,-56(fp)
 4100794:	e1bff115 	stw	r6,-60(fp)
  int rc = -EINVAL;  
 4100798:	00bffa84 	movi	r2,-22
 410079c:	e0bfff15 	stw	r2,-4(fp)
  alt_irq_context status;

  if (id < ALT_NIRQ)
 41007a0:	e0bff317 	ldw	r2,-52(fp)
 41007a4:	10800828 	cmpgeui	r2,r2,32
 41007a8:	1000501e 	bne	r2,zero,41008ec <alt_irq_register+0x16c>
  NIOS2_READ_STATUS (context);
 41007ac:	0005303a 	rdctl	r2,status
 41007b0:	e0bffd15 	stw	r2,-12(fp)
  NIOS2_WRITE_STATUS (context & ~NIOS2_STATUS_PIE_MSK);
 41007b4:	e0fffd17 	ldw	r3,-12(fp)
 41007b8:	00bfff84 	movi	r2,-2
 41007bc:	1884703a 	and	r2,r3,r2
 41007c0:	1001703a 	wrctl	status,r2
  return context;
 41007c4:	e0bffd17 	ldw	r2,-12(fp)
     * interrupts are disabled while the handler tables are updated to ensure
     * that an interrupt doesn't occur while the tables are in an inconsistant
     * state.
     */

    status = alt_irq_disable_all ();
 41007c8:	e0bffe15 	stw	r2,-8(fp)

    alt_irq[id].handler = handler;
 41007cc:	e0bff317 	ldw	r2,-52(fp)
 41007d0:	100890fa 	slli	r4,r2,3
 41007d4:	e0fff117 	ldw	r3,-60(fp)
 41007d8:	00810434 	movhi	r2,1040
 41007dc:	2085883a 	add	r2,r4,r2
 41007e0:	10cd5e15 	stw	r3,13688(r2)
    alt_irq[id].context = context;
 41007e4:	e0bff317 	ldw	r2,-52(fp)
 41007e8:	100890fa 	slli	r4,r2,3
 41007ec:	e0fff217 	ldw	r3,-56(fp)
 41007f0:	00810434 	movhi	r2,1040
 41007f4:	2085883a 	add	r2,r4,r2
 41007f8:	10cd5f15 	stw	r3,13692(r2)

    rc = (handler) ? alt_irq_enable (id): alt_irq_disable (id);
 41007fc:	e0bff117 	ldw	r2,-60(fp)
 4100800:	10001a26 	beq	r2,zero,410086c <alt_irq_register+0xec>
 4100804:	e0bff317 	ldw	r2,-52(fp)
 4100808:	e0bffc15 	stw	r2,-16(fp)
  NIOS2_READ_STATUS (context);
 410080c:	0005303a 	rdctl	r2,status
 4100810:	e0bffb15 	stw	r2,-20(fp)
  NIOS2_WRITE_STATUS (context & ~NIOS2_STATUS_PIE_MSK);
 4100814:	e0fffb17 	ldw	r3,-20(fp)
 4100818:	00bfff84 	movi	r2,-2
 410081c:	1884703a 	and	r2,r3,r2
 4100820:	1001703a 	wrctl	status,r2
  return context;
 4100824:	e0bffb17 	ldw	r2,-20(fp)
static ALT_INLINE int ALT_ALWAYS_INLINE alt_irq_enable (alt_u32 id)
{
  alt_irq_context  status;
  extern volatile alt_u32 alt_irq_active;

  status = alt_irq_disable_all ();
 4100828:	e0bffa15 	stw	r2,-24(fp)

  alt_irq_active |= (1 << id);
 410082c:	00c00044 	movi	r3,1
 4100830:	e0bffc17 	ldw	r2,-16(fp)
 4100834:	1884983a 	sll	r2,r3,r2
 4100838:	1007883a 	mov	r3,r2
 410083c:	d0a1cd17 	ldw	r2,-30924(gp)
 4100840:	1884b03a 	or	r2,r3,r2
 4100844:	d0a1cd15 	stw	r2,-30924(gp)
  NIOS2_WRITE_IENABLE (alt_irq_active);
 4100848:	d0a1cd17 	ldw	r2,-30924(gp)
 410084c:	100170fa 	wrctl	ienable,r2
 4100850:	e0bffa17 	ldw	r2,-24(fp)
 4100854:	e0bff915 	stw	r2,-28(fp)
  NIOS2_WRITE_STATUS (context);
 4100858:	e0bff917 	ldw	r2,-28(fp)
 410085c:	1001703a 	wrctl	status,r2
}
 4100860:	0001883a 	nop

  alt_irq_enable_all(status);

  return 0;
 4100864:	0005883a 	mov	r2,zero
 4100868:	00001a06 	br	41008d4 <alt_irq_register+0x154>
 410086c:	e0bff317 	ldw	r2,-52(fp)
 4100870:	e0bff815 	stw	r2,-32(fp)
  NIOS2_READ_STATUS (context);
 4100874:	0005303a 	rdctl	r2,status
 4100878:	e0bff715 	stw	r2,-36(fp)
  NIOS2_WRITE_STATUS (context & ~NIOS2_STATUS_PIE_MSK);
 410087c:	e0fff717 	ldw	r3,-36(fp)
 4100880:	00bfff84 	movi	r2,-2
 4100884:	1884703a 	and	r2,r3,r2
 4100888:	1001703a 	wrctl	status,r2
  return context;
 410088c:	e0bff717 	ldw	r2,-36(fp)
  status = alt_irq_disable_all ();
 4100890:	e0bff615 	stw	r2,-40(fp)
  alt_irq_active &= ~(1 << id);
 4100894:	00c00044 	movi	r3,1
 4100898:	e0bff817 	ldw	r2,-32(fp)
 410089c:	1884983a 	sll	r2,r3,r2
 41008a0:	0084303a 	nor	r2,zero,r2
 41008a4:	1007883a 	mov	r3,r2
 41008a8:	d0a1cd17 	ldw	r2,-30924(gp)
 41008ac:	1884703a 	and	r2,r3,r2
 41008b0:	d0a1cd15 	stw	r2,-30924(gp)
  NIOS2_WRITE_IENABLE (alt_irq_active);
 41008b4:	d0a1cd17 	ldw	r2,-30924(gp)
 41008b8:	100170fa 	wrctl	ienable,r2
 41008bc:	e0bff617 	ldw	r2,-40(fp)
 41008c0:	e0bff515 	stw	r2,-44(fp)
  NIOS2_WRITE_STATUS (context);
 41008c4:	e0bff517 	ldw	r2,-44(fp)
 41008c8:	1001703a 	wrctl	status,r2
}
 41008cc:	0001883a 	nop
  return 0;
 41008d0:	0005883a 	mov	r2,zero
 41008d4:	e0bfff15 	stw	r2,-4(fp)
 41008d8:	e0bffe17 	ldw	r2,-8(fp)
 41008dc:	e0bff415 	stw	r2,-48(fp)
  NIOS2_WRITE_STATUS (context);
 41008e0:	e0bff417 	ldw	r2,-48(fp)
 41008e4:	1001703a 	wrctl	status,r2
}
 41008e8:	0001883a 	nop

    alt_irq_enable_all(status);
  }
  return rc; 
 41008ec:	e0bfff17 	ldw	r2,-4(fp)
}
 41008f0:	e037883a 	mov	sp,fp
 41008f4:	df000017 	ldw	fp,0(sp)
 41008f8:	dec00104 	addi	sp,sp,4
 41008fc:	f800283a 	ret

04100900 <alt_load_section>:
 */

static void ALT_INLINE alt_load_section (alt_u32* from, 
                                         alt_u32* to, 
                                         alt_u32* end)
{
 4100900:	defffc04 	addi	sp,sp,-16
 4100904:	df000315 	stw	fp,12(sp)
 4100908:	df000304 	addi	fp,sp,12
 410090c:	e13fff15 	stw	r4,-4(fp)
 4100910:	e17ffe15 	stw	r5,-8(fp)
 4100914:	e1bffd15 	stw	r6,-12(fp)
  if (to != from)
 4100918:	e0fffe17 	ldw	r3,-8(fp)
 410091c:	e0bfff17 	ldw	r2,-4(fp)
 4100920:	18800c26 	beq	r3,r2,4100954 <alt_load_section+0x54>
  {
    while( to != end )
 4100924:	00000806 	br	4100948 <alt_load_section+0x48>
    {
      *to++ = *from++;
 4100928:	e0ffff17 	ldw	r3,-4(fp)
 410092c:	18800104 	addi	r2,r3,4
 4100930:	e0bfff15 	stw	r2,-4(fp)
 4100934:	e0bffe17 	ldw	r2,-8(fp)
 4100938:	11000104 	addi	r4,r2,4
 410093c:	e13ffe15 	stw	r4,-8(fp)
 4100940:	18c00017 	ldw	r3,0(r3)
 4100944:	10c00015 	stw	r3,0(r2)
    while( to != end )
 4100948:	e0fffe17 	ldw	r3,-8(fp)
 410094c:	e0bffd17 	ldw	r2,-12(fp)
 4100950:	18bff51e 	bne	r3,r2,4100928 <alt_load_section+0x28>
    }
  }
}
 4100954:	0001883a 	nop
 4100958:	e037883a 	mov	sp,fp
 410095c:	df000017 	ldw	fp,0(sp)
 4100960:	dec00104 	addi	sp,sp,4
 4100964:	f800283a 	ret

04100968 <alt_load>:
 * there is no bootloader, so this application is responsible for loading to
 * RAM any sections that are required.
 */  

void alt_load (void)
{
 4100968:	defffe04 	addi	sp,sp,-8
 410096c:	dfc00115 	stw	ra,4(sp)
 4100970:	df000015 	stw	fp,0(sp)
 4100974:	d839883a 	mov	fp,sp
  /* 
   * Copy the .rwdata section. 
   */

  alt_load_section (&__flash_rwdata_start, 
 4100978:	01810434 	movhi	r6,1040
 410097c:	318b9604 	addi	r6,r6,11864
 4100980:	01410434 	movhi	r5,1040
 4100984:	2949da04 	addi	r5,r5,10088
 4100988:	01010434 	movhi	r4,1040
 410098c:	210b9604 	addi	r4,r4,11864
 4100990:	41009000 	call	4100900 <alt_load_section>

  /*
   * Copy the exception handler.
   */

  alt_load_section (&__flash_exceptions_start, 
 4100994:	01810434 	movhi	r6,1040
 4100998:	31808a04 	addi	r6,r6,552
 410099c:	01410434 	movhi	r5,1040
 41009a0:	29400804 	addi	r5,r5,32
 41009a4:	01010434 	movhi	r4,1040
 41009a8:	21000804 	addi	r4,r4,32
 41009ac:	41009000 	call	4100900 <alt_load_section>

  /*
   * Copy the .rodata section.
   */

  alt_load_section (&__flash_rodata_start, 
 41009b0:	01810434 	movhi	r6,1040
 41009b4:	3189da04 	addi	r6,r6,10088
 41009b8:	01410434 	movhi	r5,1040
 41009bc:	2949b704 	addi	r5,r5,9948
 41009c0:	01010434 	movhi	r4,1040
 41009c4:	2109b704 	addi	r4,r4,9948
 41009c8:	41009000 	call	4100900 <alt_load_section>
  
  /*
   * Now ensure that the caches are in synch.
   */
  
  alt_dcache_flush_all();
 41009cc:	4101e1c0 	call	4101e1c <alt_dcache_flush_all>
  alt_icache_flush_all();
 41009d0:	41020a40 	call	41020a4 <alt_icache_flush_all>
}
 41009d4:	0001883a 	nop
 41009d8:	e037883a 	mov	sp,fp
 41009dc:	dfc00117 	ldw	ra,4(sp)
 41009e0:	df000017 	ldw	fp,0(sp)
 41009e4:	dec00204 	addi	sp,sp,8
 41009e8:	f800283a 	ret

041009ec <alt_main>:
 * devices/filesystems/components in the system; and call the entry point for
 * the users application, i.e. main().
 */

void alt_main (void)
{
 41009ec:	defffd04 	addi	sp,sp,-12
 41009f0:	dfc00215 	stw	ra,8(sp)
 41009f4:	df000115 	stw	fp,4(sp)
 41009f8:	df000104 	addi	fp,sp,4
#endif

  /* ALT LOG - please see HAL/sys/alt_log_printf.h for details */
  ALT_LOG_PRINT_BOOT("[alt_main.c] Entering alt_main, calling alt_irq_init.\r\n");
  /* Initialize the interrupt controller. */
  alt_irq_init (NULL);
 41009fc:	0009883a 	mov	r4,zero
 4100a00:	4100a800 	call	4100a80 <alt_irq_init>

  /* Initialize the operating system */
  ALT_LOG_PRINT_BOOT("[alt_main.c] Done alt_irq_init, calling alt_os_init.\r\n");
  ALT_OS_INIT();
 4100a04:	0001883a 	nop
  ALT_LOG_PRINT_BOOT("[alt_main.c] Done OS Init, calling alt_sem_create.\r\n");
  ALT_SEM_CREATE (&alt_fd_list_lock, 1);

  /* Initialize the device drivers/software components. */
  ALT_LOG_PRINT_BOOT("[alt_main.c] Calling alt_sys_init.\r\n");
  alt_sys_init();
 4100a08:	4100abc0 	call	4100abc <alt_sys_init>
  /* 
   * Call the C++ constructors 
   */

  ALT_LOG_PRINT_BOOT("[alt_main.c] Calling C++ constructors.\r\n");
  _do_ctors ();
 4100a0c:	4101f4c0 	call	4101f4c <_do_ctors>
   * redefined as _exit()). This is in the interest of reducing code footprint,
   * in that the atexit() overhead is removed when it's not needed.
   */

  ALT_LOG_PRINT_BOOT("[alt_main.c] Calling atexit.\r\n");
  atexit (_do_dtors);
 4100a10:	01010434 	movhi	r4,1040
 4100a14:	2107ec04 	addi	r4,r4,8112
 4100a18:	410239c0 	call	410239c <atexit>
  ALT_LOG_PRINT_BOOT("[alt_main.c] Calling main.\r\n");

#ifdef ALT_NO_EXIT
  main (alt_argc, alt_argv, alt_envp);
#else
  result = main (alt_argc, alt_argv, alt_envp);
 4100a1c:	d0a1ce17 	ldw	r2,-30920(gp)
 4100a20:	d0e1cf17 	ldw	r3,-30916(gp)
 4100a24:	d121d017 	ldw	r4,-30912(gp)
 4100a28:	200d883a 	mov	r6,r4
 4100a2c:	180b883a 	mov	r5,r3
 4100a30:	1009883a 	mov	r4,r2
 4100a34:	41003dc0 	call	41003dc <main>
 4100a38:	e0bfff15 	stw	r2,-4(fp)
  close(STDOUT_FILENO);
 4100a3c:	01000044 	movi	r4,1
 4100a40:	4101d400 	call	4101d40 <close>
  exit (result);
 4100a44:	e13fff17 	ldw	r4,-4(fp)
 4100a48:	41023b00 	call	41023b0 <exit>

04100a4c <alt_dev_reg>:
 */

extern int alt_fs_reg  (alt_dev* dev); 

static ALT_INLINE int alt_dev_reg (alt_dev* dev)
{
 4100a4c:	defffd04 	addi	sp,sp,-12
 4100a50:	dfc00215 	stw	ra,8(sp)
 4100a54:	df000115 	stw	fp,4(sp)
 4100a58:	df000104 	addi	fp,sp,4
 4100a5c:	e13fff15 	stw	r4,-4(fp)
  extern alt_llist alt_dev_list;

  return alt_dev_llist_insert ((alt_dev_llist*) dev, &alt_dev_list);
 4100a60:	d1600504 	addi	r5,gp,-32748
 4100a64:	e13fff17 	ldw	r4,-4(fp)
 4100a68:	4101ea40 	call	4101ea4 <alt_dev_llist_insert>
}
 4100a6c:	e037883a 	mov	sp,fp
 4100a70:	dfc00117 	ldw	ra,4(sp)
 4100a74:	df000017 	ldw	fp,0(sp)
 4100a78:	dec00204 	addi	sp,sp,8
 4100a7c:	f800283a 	ret

04100a80 <alt_irq_init>:
 * The "base" parameter is ignored and only
 * present for backwards-compatibility.
 */

void alt_irq_init ( const void* base )
{
 4100a80:	defffd04 	addi	sp,sp,-12
 4100a84:	dfc00215 	stw	ra,8(sp)
 4100a88:	df000115 	stw	fp,4(sp)
 4100a8c:	df000104 	addi	fp,sp,4
 4100a90:	e13fff15 	stw	r4,-4(fp)
    ALTERA_NIOS2_GEN2_IRQ_INIT ( NIOS2_GEN2_1, nios2_gen2_1);
 4100a94:	41022e00 	call	41022e0 <altera_nios2_gen2_irq_init>
    NIOS2_WRITE_STATUS(NIOS2_STATUS_PIE_MSK
 4100a98:	00800044 	movi	r2,1
 4100a9c:	1001703a 	wrctl	status,r2
}
 4100aa0:	0001883a 	nop
    alt_irq_cpu_enable_interrupts();
}
 4100aa4:	0001883a 	nop
 4100aa8:	e037883a 	mov	sp,fp
 4100aac:	dfc00117 	ldw	ra,4(sp)
 4100ab0:	df000017 	ldw	fp,0(sp)
 4100ab4:	dec00204 	addi	sp,sp,8
 4100ab8:	f800283a 	ret

04100abc <alt_sys_init>:
 * Initialize the non-interrupt controller devices.
 * Called after alt_irq_init().
 */

void alt_sys_init( void )
{
 4100abc:	defffe04 	addi	sp,sp,-8
 4100ac0:	dfc00115 	stw	ra,4(sp)
 4100ac4:	df000015 	stw	fp,0(sp)
 4100ac8:	d839883a 	mov	fp,sp
    ALTERA_AVALON_TIMER_INIT ( TIMER_1, timer_1);
 4100acc:	01c0fa04 	movi	r7,1000
 4100ad0:	01800044 	movi	r6,1
 4100ad4:	000b883a 	mov	r5,zero
 4100ad8:	01040004 	movi	r4,4096
 4100adc:	41014f80 	call	41014f8 <alt_avalon_timer_sc_init>
    ALTERA_AVALON_MAILBOX_SIMPLE_INIT ( MAILBOX_0, mailbox_0);
 4100ae0:	01bfffc4 	movi	r6,-1
 4100ae4:	000b883a 	mov	r5,zero
 4100ae8:	01010434 	movhi	r4,1040
 4100aec:	2109da04 	addi	r4,r4,10088
 4100af0:	4100e300 	call	4100e30 <altera_avalon_mailbox_simple_init>
    ALTERA_AVALON_MAILBOX_SIMPLE_INIT ( MAILBOX_1, mailbox_1);
 4100af4:	01bfffc4 	movi	r6,-1
 4100af8:	000b883a 	mov	r5,zero
 4100afc:	01010434 	movhi	r4,1040
 4100b00:	2109ec04 	addi	r4,r4,10160
 4100b04:	4100e300 	call	4100e30 <altera_avalon_mailbox_simple_init>
    ALTERA_AVALON_SYSID_QSYS_INIT ( SYSID, sysid);
 4100b08:	0001883a 	nop
    ALTERA_UP_AVALON_AUDIO_AND_VIDEO_CONFIG_INIT ( AUDIO_AND_VIDEO_CONFIG_0, audio_and_video_config_0);
 4100b0c:	01010434 	movhi	r4,1040
 4100b10:	2109fe04 	addi	r4,r4,10232
 4100b14:	4100a4c0 	call	4100a4c <alt_dev_reg>
    ALTERA_UP_AVALON_AUDIO_INIT ( AUDIO_0, audio_0);
 4100b18:	01010434 	movhi	r4,1040
 4100b1c:	210a0a04 	addi	r4,r4,10280
 4100b20:	4100a4c0 	call	4100a4c <alt_dev_reg>
}
 4100b24:	0001883a 	nop
 4100b28:	e037883a 	mov	sp,fp
 4100b2c:	dfc00117 	ldw	ra,4(sp)
 4100b30:	df000017 	ldw	fp,0(sp)
 4100b34:	dec00204 	addi	sp,sp,8
 4100b38:	f800283a 	ret

04100b3c <altera_avalon_mailbox_identify>:
 * Check an instance open match
 * with the callback register
 */

static void altera_avalon_mailbox_identify (altera_avalon_mailbox_dev *dev)
{
 4100b3c:	defffd04 	addi	sp,sp,-12
 4100b40:	df000215 	stw	fp,8(sp)
 4100b44:	df000204 	addi	fp,sp,8
 4100b48:	e13ffe15 	stw	r4,-8(fp)
    /* Random signature to test mailbox ownership */
    alt_u32 magic_num = 0x3A11B045;
 4100b4c:	008e84b4 	movhi	r2,14866
 4100b50:	10ac1144 	addi	r2,r2,-20411
 4100b54:	e0bfff15 	stw	r2,-4(fp)

    IOWR(dev->base, ALTERA_AVALON_MAILBOX_SIMPLE_PTR_OFST, magic_num);
 4100b58:	e0bffe17 	ldw	r2,-8(fp)
 4100b5c:	10800a17 	ldw	r2,40(r2)
 4100b60:	10800104 	addi	r2,r2,4
 4100b64:	1007883a 	mov	r3,r2
 4100b68:	e0bfff17 	ldw	r2,-4(fp)
 4100b6c:	18800035 	stwio	r2,0(r3)
    if((IORD(dev->base, ALTERA_AVALON_MAILBOX_SIMPLE_PTR_OFST)) == magic_num)
 4100b70:	e0bffe17 	ldw	r2,-8(fp)
 4100b74:	10800a17 	ldw	r2,40(r2)
 4100b78:	10800104 	addi	r2,r2,4
 4100b7c:	10c00037 	ldwio	r3,0(r2)
 4100b80:	e0bfff17 	ldw	r2,-4(fp)
 4100b84:	1880081e 	bne	r3,r2,4100ba8 <altera_avalon_mailbox_identify+0x6c>
    {
        dev-> mbox_type = MBOX_TX;
 4100b88:	e0bffe17 	ldw	r2,-8(fp)
 4100b8c:	10000f15 	stw	zero,60(r2)
        /* Clear message_ptr to default */
        IOWR(dev->base, ALTERA_AVALON_MAILBOX_SIMPLE_PTR_OFST, 0x0);
 4100b90:	e0bffe17 	ldw	r2,-8(fp)
 4100b94:	10800a17 	ldw	r2,40(r2)
 4100b98:	10800104 	addi	r2,r2,4
 4100b9c:	0007883a 	mov	r3,zero
 4100ba0:	10c00035 	stwio	r3,0(r2)
    } else
    {
	    dev->mbox_type = MBOX_RX;
    }
}
 4100ba4:	00000306 	br	4100bb4 <altera_avalon_mailbox_identify+0x78>
	    dev->mbox_type = MBOX_RX;
 4100ba8:	e0bffe17 	ldw	r2,-8(fp)
 4100bac:	00c00044 	movi	r3,1
 4100bb0:	10c00f15 	stw	r3,60(r2)
}
 4100bb4:	0001883a 	nop
 4100bb8:	e037883a 	mov	sp,fp
 4100bbc:	df000017 	ldw	fp,0(sp)
 4100bc0:	dec00104 	addi	sp,sp,4
 4100bc4:	f800283a 	ret

04100bc8 <altera_avalon_mailbox_post>:
/*
 *   altera_avalon_mailbox_post
 *   This function post message out through sender mailbox
 */
static alt_32 altera_avalon_mailbox_post (altera_avalon_mailbox_dev *dev,  void *message)
{
 4100bc8:	defffc04 	addi	sp,sp,-16
 4100bcc:	df000315 	stw	fp,12(sp)
 4100bd0:	df000304 	addi	fp,sp,12
 4100bd4:	e13ffe15 	stw	r4,-8(fp)
 4100bd8:	e17ffd15 	stw	r5,-12(fp)
    alt_u32 *mbox_msg = (alt_u32*) message ;
 4100bdc:	e0bffd17 	ldw	r2,-12(fp)
 4100be0:	e0bfff15 	stw	r2,-4(fp)

    if (mbox_msg != NULL) {
 4100be4:	e0bfff17 	ldw	r2,-4(fp)
 4100be8:	10001026 	beq	r2,zero,4100c2c <altera_avalon_mailbox_post+0x64>
        /* When message space available, post the message out */
        IOWR(dev->base, ALTERA_AVALON_MAILBOX_SIMPLE_PTR_OFST, mbox_msg[1]);
 4100bec:	e0bffe17 	ldw	r2,-8(fp)
 4100bf0:	10800a17 	ldw	r2,40(r2)
 4100bf4:	10800104 	addi	r2,r2,4
 4100bf8:	1007883a 	mov	r3,r2
 4100bfc:	e0bfff17 	ldw	r2,-4(fp)
 4100c00:	10800104 	addi	r2,r2,4
 4100c04:	10800017 	ldw	r2,0(r2)
 4100c08:	18800035 	stwio	r2,0(r3)
        IOWR(dev->base, ALTERA_AVALON_MAILBOX_SIMPLE_CMD_OFST, mbox_msg[0]);
 4100c0c:	e0bffe17 	ldw	r2,-8(fp)
 4100c10:	10800a17 	ldw	r2,40(r2)
 4100c14:	1007883a 	mov	r3,r2
 4100c18:	e0bfff17 	ldw	r2,-4(fp)
 4100c1c:	10800017 	ldw	r2,0(r2)
 4100c20:	18800035 	stwio	r2,0(r3)
        return 0;
 4100c24:	0005883a 	mov	r2,zero
 4100c28:	00000106 	br	4100c30 <altera_avalon_mailbox_post+0x68>
    }
    /* Invalid NULL message received */
    return -EINVAL;
 4100c2c:	00bffa84 	movi	r2,-22
}
 4100c30:	e037883a 	mov	sp,fp
 4100c34:	df000017 	ldw	fp,0(sp)
 4100c38:	dec00104 	addi	sp,sp,4
 4100c3c:	f800283a 	ret

04100c40 <altera_avalon_mailbox_simple_tx_isr>:
#ifdef ALT_ENHANCED_INTERRUPT_API_PRESENT
static void altera_avalon_mailbox_simple_tx_isr(void *context)
#else
static void altera_avalon_mailbox_simple_tx_isr(void *context, alt_u32 id)
#endif
{
 4100c40:	defff504 	addi	sp,sp,-44
 4100c44:	dfc00a15 	stw	ra,40(sp)
 4100c48:	df000915 	stw	fp,36(sp)
 4100c4c:	df000904 	addi	fp,sp,36
 4100c50:	e13ff815 	stw	r4,-32(fp)
 4100c54:	e17ff715 	stw	r5,-36(fp)
    altera_avalon_mailbox_dev *dev = (altera_avalon_mailbox_dev*) context;
 4100c58:	e0bff817 	ldw	r2,-32(fp)
 4100c5c:	e0bfff15 	stw	r2,-4(fp)
    int status = 0;
 4100c60:	e03ffe15 	stw	zero,-8(fp)
    alt_u32 data;
    alt_irq_context cpu_sr;
    alt_u32 *message = dev->mbox_msg;
 4100c64:	e0bfff17 	ldw	r2,-4(fp)
 4100c68:	10801017 	ldw	r2,64(r2)
 4100c6c:	e0bffd15 	stw	r2,-12(fp)

    /* Mask mailbox interrupt */
    data = IORD(dev->base, ALTERA_AVALON_MAILBOX_SIMPLE_INTR_OFST) &
 4100c70:	e0bfff17 	ldw	r2,-4(fp)
 4100c74:	10800a17 	ldw	r2,40(r2)
 4100c78:	10800304 	addi	r2,r2,12
 4100c7c:	10800037 	ldwio	r2,0(r2)
 4100c80:	1007883a 	mov	r3,r2
 4100c84:	00bfff44 	movi	r2,-3
 4100c88:	1884703a 	and	r2,r3,r2
 4100c8c:	e0bffc15 	stw	r2,-16(fp)
               (~ALTERA_AVALON_MAILBOX_SIMPLE_INTR_SPACE_MSK);
    IOWR(dev->base, ALTERA_AVALON_MAILBOX_SIMPLE_INTR_OFST, data);
 4100c90:	e0bfff17 	ldw	r2,-4(fp)
 4100c94:	10800a17 	ldw	r2,40(r2)
 4100c98:	10800304 	addi	r2,r2,12
 4100c9c:	1007883a 	mov	r3,r2
 4100ca0:	e0bffc17 	ldw	r2,-16(fp)
 4100ca4:	18800035 	stwio	r2,0(r3)

    if (message != NULL)
 4100ca8:	e0bffd17 	ldw	r2,-12(fp)
 4100cac:	10002e26 	beq	r2,zero,4100d68 <altera_avalon_mailbox_simple_tx_isr+0x128>
    {
        /* Post out message requested */
        IOWR(dev->base, ALTERA_AVALON_MAILBOX_SIMPLE_PTR_OFST, message[1]);
 4100cb0:	e0bfff17 	ldw	r2,-4(fp)
 4100cb4:	10800a17 	ldw	r2,40(r2)
 4100cb8:	10800104 	addi	r2,r2,4
 4100cbc:	1007883a 	mov	r3,r2
 4100cc0:	e0bffd17 	ldw	r2,-12(fp)
 4100cc4:	10800104 	addi	r2,r2,4
 4100cc8:	10800017 	ldw	r2,0(r2)
 4100ccc:	18800035 	stwio	r2,0(r3)
        IOWR(dev->base, ALTERA_AVALON_MAILBOX_SIMPLE_CMD_OFST, message[0]);
 4100cd0:	e0bfff17 	ldw	r2,-4(fp)
 4100cd4:	10800a17 	ldw	r2,40(r2)
 4100cd8:	1007883a 	mov	r3,r2
 4100cdc:	e0bffd17 	ldw	r2,-12(fp)
 4100ce0:	10800017 	ldw	r2,0(r2)
 4100ce4:	18800035 	stwio	r2,0(r3)
    /*
     * Other interrupts are explicitly disabled if callbacks are registered
     * because there is no guarantee that they are preemption-safe.
     */
        status = (IORD_ALTERA_AVALON_MAILBOX_STS(dev->base)
 4100ce8:	e0bfff17 	ldw	r2,-4(fp)
 4100cec:	10800a17 	ldw	r2,40(r2)
 4100cf0:	10800204 	addi	r2,r2,8
 4100cf4:	10800037 	ldwio	r2,0(r2)
        		  & ALTERA_AVALON_MAILBOX_SIMPLE_STS_FULL_MSK) >> 1;
 4100cf8:	1005d07a 	srai	r2,r2,1
        status = (IORD_ALTERA_AVALON_MAILBOX_STS(dev->base)
 4100cfc:	1080004c 	andi	r2,r2,1
 4100d00:	e0bffe15 	stw	r2,-8(fp)
        if (dev->tx_cb)
 4100d04:	e0bfff17 	ldw	r2,-4(fp)
 4100d08:	10800d17 	ldw	r2,52(r2)
 4100d0c:	10001226 	beq	r2,zero,4100d58 <altera_avalon_mailbox_simple_tx_isr+0x118>
  NIOS2_READ_STATUS (context);
 4100d10:	0005303a 	rdctl	r2,status
 4100d14:	e0bff915 	stw	r2,-28(fp)
  NIOS2_WRITE_STATUS (context & ~NIOS2_STATUS_PIE_MSK);
 4100d18:	e0fff917 	ldw	r3,-28(fp)
 4100d1c:	00bfff84 	movi	r2,-2
 4100d20:	1884703a 	and	r2,r3,r2
 4100d24:	1001703a 	wrctl	status,r2
  return context;
 4100d28:	e0bff917 	ldw	r2,-28(fp)
        {
            cpu_sr = alt_irq_disable_all();
 4100d2c:	e0bffb15 	stw	r2,-20(fp)
  	        (dev->tx_cb)(message, status);
 4100d30:	e0bfff17 	ldw	r2,-4(fp)
 4100d34:	10800d17 	ldw	r2,52(r2)
 4100d38:	e17ffe17 	ldw	r5,-8(fp)
 4100d3c:	e13ffd17 	ldw	r4,-12(fp)
 4100d40:	103ee83a 	callr	r2
 4100d44:	e0bffb17 	ldw	r2,-20(fp)
 4100d48:	e0bffa15 	stw	r2,-24(fp)
  NIOS2_WRITE_STATUS (context);
 4100d4c:	e0bffa17 	ldw	r2,-24(fp)
 4100d50:	1001703a 	wrctl	status,r2
}
 4100d54:	0001883a 	nop
            alt_irq_enable_all(cpu_sr);
        }
        /* Clear mailbox message to NULL after message being posted */
        dev->mbox_msg = NULL;
 4100d58:	e0bfff17 	ldw	r2,-4(fp)
 4100d5c:	10001015 	stw	zero,64(r2)
        dev->lock = 0;
 4100d60:	e0bfff17 	ldw	r2,-4(fp)
 4100d64:	10001105 	stb	zero,68(r2)
    }
}
 4100d68:	0001883a 	nop
 4100d6c:	e037883a 	mov	sp,fp
 4100d70:	dfc00117 	ldw	ra,4(sp)
 4100d74:	df000017 	ldw	fp,0(sp)
 4100d78:	dec00204 	addi	sp,sp,8
 4100d7c:	f800283a 	ret

04100d80 <altera_avalon_mailbox_simple_rx_isr>:
#ifdef ALT_ENHANCED_INTERRUPT_API_PRESENT
static void altera_avalon_mailbox_simple_rx_isr(void *context)
#else
static void altera_avalon_mailbox_simple_rx_isr(void *context, alt_u32 id)
#endif
{
 4100d80:	defff604 	addi	sp,sp,-40
 4100d84:	dfc00915 	stw	ra,36(sp)
 4100d88:	df000815 	stw	fp,32(sp)
 4100d8c:	df000804 	addi	fp,sp,32
 4100d90:	e13ff915 	stw	r4,-28(fp)
 4100d94:	e17ff815 	stw	r5,-32(fp)
    altera_avalon_mailbox_dev *dev = (altera_avalon_mailbox_dev*) context;
 4100d98:	e0bff917 	ldw	r2,-28(fp)
 4100d9c:	e0bfff15 	stw	r2,-4(fp)
    alt_irq_context cpu_sr;
    alt_u32 inbox[2];

    inbox[1] = (IORD(dev->base, ALTERA_AVALON_MAILBOX_SIMPLE_PTR_OFST));
 4100da0:	e0bfff17 	ldw	r2,-4(fp)
 4100da4:	10800a17 	ldw	r2,40(r2)
 4100da8:	10800104 	addi	r2,r2,4
 4100dac:	10800037 	ldwio	r2,0(r2)
 4100db0:	e0bffb15 	stw	r2,-20(fp)
    inbox[0] = (IORD(dev->base, ALTERA_AVALON_MAILBOX_SIMPLE_CMD_OFST));
 4100db4:	e0bfff17 	ldw	r2,-4(fp)
 4100db8:	10800a17 	ldw	r2,40(r2)
 4100dbc:	10800037 	ldwio	r2,0(r2)
 4100dc0:	e0bffa15 	stw	r2,-24(fp)

    /*
     * Other interrupts are explicitly disabled if callbacks are registered
     * because there is no guarantee that they are preemption-safe.
     */
    if (dev->rx_cb)
 4100dc4:	e0bfff17 	ldw	r2,-4(fp)
 4100dc8:	10800e17 	ldw	r2,56(r2)
 4100dcc:	10001226 	beq	r2,zero,4100e18 <altera_avalon_mailbox_simple_rx_isr+0x98>
  NIOS2_READ_STATUS (context);
 4100dd0:	0005303a 	rdctl	r2,status
 4100dd4:	e0bffc15 	stw	r2,-16(fp)
  NIOS2_WRITE_STATUS (context & ~NIOS2_STATUS_PIE_MSK);
 4100dd8:	e0fffc17 	ldw	r3,-16(fp)
 4100ddc:	00bfff84 	movi	r2,-2
 4100de0:	1884703a 	and	r2,r3,r2
 4100de4:	1001703a 	wrctl	status,r2
  return context;
 4100de8:	e0bffc17 	ldw	r2,-16(fp)
    {
        cpu_sr = alt_irq_disable_all();
 4100dec:	e0bffe15 	stw	r2,-8(fp)
        (dev->rx_cb)(inbox);
 4100df0:	e0bfff17 	ldw	r2,-4(fp)
 4100df4:	10800e17 	ldw	r2,56(r2)
 4100df8:	e0fffa04 	addi	r3,fp,-24
 4100dfc:	1809883a 	mov	r4,r3
 4100e00:	103ee83a 	callr	r2
 4100e04:	e0bffe17 	ldw	r2,-8(fp)
 4100e08:	e0bffd15 	stw	r2,-12(fp)
  NIOS2_WRITE_STATUS (context);
 4100e0c:	e0bffd17 	ldw	r2,-12(fp)
 4100e10:	1001703a 	wrctl	status,r2
}
 4100e14:	0001883a 	nop
        alt_irq_enable_all(cpu_sr);
    }
}
 4100e18:	0001883a 	nop
 4100e1c:	e037883a 	mov	sp,fp
 4100e20:	dfc00117 	ldw	ra,4(sp)
 4100e24:	df000017 	ldw	fp,0(sp)
 4100e28:	dec00204 	addi	sp,sp,8
 4100e2c:	f800283a 	ret

04100e30 <altera_avalon_mailbox_simple_init>:
 * Altera avalon mailbox init
 * Initialize mailbox device and identify sender/receiver mailbox
 */
void altera_avalon_mailbox_simple_init (altera_avalon_mailbox_dev *dev,
		                               int intr_id, int irq)
{
 4100e30:	defffb04 	addi	sp,sp,-20
 4100e34:	dfc00415 	stw	ra,16(sp)
 4100e38:	df000315 	stw	fp,12(sp)
 4100e3c:	df000304 	addi	fp,sp,12
 4100e40:	e13fff15 	stw	r4,-4(fp)
 4100e44:	e17ffe15 	stw	r5,-8(fp)
 4100e48:	e1bffd15 	stw	r6,-12(fp)
    alt_dev_llist_insert((alt_dev_llist*) dev, &alt_mailbox_simple_list);
 4100e4c:	d1600104 	addi	r5,gp,-32764
 4100e50:	e13fff17 	ldw	r4,-4(fp)
 4100e54:	4101ea40 	call	4101ea4 <alt_dev_llist_insert>
    
    dev->mailbox_irq    = irq;
 4100e58:	e0fffd17 	ldw	r3,-12(fp)
 4100e5c:	e0bfff17 	ldw	r2,-4(fp)
 4100e60:	10c00b15 	stw	r3,44(r2)
    dev->mailbox_intr_ctrl_id = intr_id;
 4100e64:	e0fffe17 	ldw	r3,-8(fp)
 4100e68:	e0bfff17 	ldw	r2,-4(fp)
 4100e6c:	10c00c15 	stw	r3,48(r2)
    dev->rx_cb = NULL;
 4100e70:	e0bfff17 	ldw	r2,-4(fp)
 4100e74:	10000e15 	stw	zero,56(r2)
    dev->tx_cb = NULL;
 4100e78:	e0bfff17 	ldw	r2,-4(fp)
 4100e7c:	10000d15 	stw	zero,52(r2)
    dev->mbox_msg = NULL;
 4100e80:	e0bfff17 	ldw	r2,-4(fp)
 4100e84:	10001015 	stw	zero,64(r2)
    
    ALT_SEM_CREATE (&dev->write_lock, 1);

    altera_avalon_mailbox_identify(dev);
 4100e88:	e13fff17 	ldw	r4,-4(fp)
 4100e8c:	4100b3c0 	call	4100b3c <altera_avalon_mailbox_identify>
}
 4100e90:	0001883a 	nop
 4100e94:	e037883a 	mov	sp,fp
 4100e98:	dfc00117 	ldw	ra,4(sp)
 4100e9c:	df000017 	ldw	fp,0(sp)
 4100ea0:	dec00204 	addi	sp,sp,8
 4100ea4:	f800283a 	ret

04100ea8 <altera_avalon_mailbox_open>:
 * Search the list of registered mailboxes for one with the supplied name.
 * The return value will be NULL on failure, and non-NULL otherwise.
 */
altera_avalon_mailbox_dev* altera_avalon_mailbox_open (const char *name,
		altera_mailbox_tx_cb tx_callback, altera_mailbox_rx_cb rx_callback)
{
 4100ea8:	defff904 	addi	sp,sp,-28
 4100eac:	dfc00615 	stw	ra,24(sp)
 4100eb0:	df000515 	stw	fp,20(sp)
 4100eb4:	df000504 	addi	fp,sp,20
 4100eb8:	e13ffd15 	stw	r4,-12(fp)
 4100ebc:	e17ffc15 	stw	r5,-16(fp)
 4100ec0:	e1bffb15 	stw	r6,-20(fp)
    altera_avalon_mailbox_dev *dev;
    alt_u32 data;

    /* Find requested device */
    dev = (altera_avalon_mailbox_dev*) alt_find_dev (name, &alt_mailbox_simple_list);
 4100ec4:	d1600104 	addi	r5,gp,-32764
 4100ec8:	e13ffd17 	ldw	r4,-12(fp)
 4100ecc:	41020140 	call	4102014 <alt_find_dev>
 4100ed0:	e0bfff15 	stw	r2,-4(fp)
    if (dev == NULL)
 4100ed4:	e0bfff17 	ldw	r2,-4(fp)
 4100ed8:	1000021e 	bne	r2,zero,4100ee4 <altera_avalon_mailbox_open+0x3c>
    {
        return NULL;
 4100edc:	0005883a 	mov	r2,zero
 4100ee0:	00005d06 	br	4101058 <altera_avalon_mailbox_open+0x1b0>
    }

    /* Mask mailbox interrupt before ISR is being registered. */
    data = IORD(dev->base, ALTERA_AVALON_MAILBOX_SIMPLE_INTR_OFST);
 4100ee4:	e0bfff17 	ldw	r2,-4(fp)
 4100ee8:	10800a17 	ldw	r2,40(r2)
 4100eec:	10800304 	addi	r2,r2,12
 4100ef0:	10800037 	ldwio	r2,0(r2)
 4100ef4:	e0bffe15 	stw	r2,-8(fp)
    if (dev->mbox_type == MBOX_TX) {
 4100ef8:	e0bfff17 	ldw	r2,-4(fp)
 4100efc:	10800f17 	ldw	r2,60(r2)
 4100f00:	1000081e 	bne	r2,zero,4100f24 <altera_avalon_mailbox_open+0x7c>
        IOWR(dev->base, ALTERA_AVALON_MAILBOX_SIMPLE_INTR_OFST, \
 4100f04:	e0bfff17 	ldw	r2,-4(fp)
 4100f08:	10800a17 	ldw	r2,40(r2)
 4100f0c:	10800304 	addi	r2,r2,12
 4100f10:	1009883a 	mov	r4,r2
 4100f14:	e0fffe17 	ldw	r3,-8(fp)
 4100f18:	00bfff44 	movi	r2,-3
 4100f1c:	1884703a 	and	r2,r3,r2
 4100f20:	20800035 	stwio	r2,0(r4)
            (data & ~(ALTERA_AVALON_MAILBOX_SIMPLE_INTR_SPACE_MSK)));
    }
    if (dev->mbox_type == MBOX_RX) {
 4100f24:	e0bfff17 	ldw	r2,-4(fp)
 4100f28:	10800f17 	ldw	r2,60(r2)
 4100f2c:	10800058 	cmpnei	r2,r2,1
 4100f30:	1000081e 	bne	r2,zero,4100f54 <altera_avalon_mailbox_open+0xac>
        IOWR(dev->base, ALTERA_AVALON_MAILBOX_SIMPLE_INTR_OFST, \
 4100f34:	e0bfff17 	ldw	r2,-4(fp)
 4100f38:	10800a17 	ldw	r2,40(r2)
 4100f3c:	10800304 	addi	r2,r2,12
 4100f40:	1009883a 	mov	r4,r2
 4100f44:	e0fffe17 	ldw	r3,-8(fp)
 4100f48:	00bfff84 	movi	r2,-2
 4100f4c:	1884703a 	and	r2,r3,r2
 4100f50:	20800035 	stwio	r2,0(r4)
    }

    /* If IRQ not connected, return device pointer without ISR register,
     * in polling mode.
     */
    if (dev->mailbox_irq == ALT_IRQ_NOT_CONNECTED)
 4100f54:	e0bfff17 	ldw	r2,-4(fp)
 4100f58:	10800b17 	ldw	r2,44(r2)
 4100f5c:	10bfffd8 	cmpnei	r2,r2,-1
 4100f60:	1000021e 	bne	r2,zero,4100f6c <altera_avalon_mailbox_open+0xc4>
        return dev;
 4100f64:	e0bfff17 	ldw	r2,-4(fp)
 4100f68:	00003b06 	br	4101058 <altera_avalon_mailbox_open+0x1b0>

    /* For IRQ connected case */

    if ((tx_callback == NULL) && (rx_callback == NULL))
 4100f6c:	e0bffc17 	ldw	r2,-16(fp)
 4100f70:	1000041e 	bne	r2,zero,4100f84 <altera_avalon_mailbox_open+0xdc>
 4100f74:	e0bffb17 	ldw	r2,-20(fp)
 4100f78:	1000021e 	bne	r2,zero,4100f84 <altera_avalon_mailbox_open+0xdc>
    {
    /* No callback, polling mode */
        return dev;
 4100f7c:	e0bfff17 	ldw	r2,-4(fp)
 4100f80:	00003506 	br	4101058 <altera_avalon_mailbox_open+0x1b0>
    }

    /* Ensure user correctly use the mailbox
     * Return - Null if wrong direction set
     */
    if (((dev->mbox_type == MBOX_TX) && (rx_callback != NULL)) ||
 4100f84:	e0bfff17 	ldw	r2,-4(fp)
 4100f88:	10800f17 	ldw	r2,60(r2)
 4100f8c:	1000021e 	bne	r2,zero,4100f98 <altera_avalon_mailbox_open+0xf0>
 4100f90:	e0bffb17 	ldw	r2,-20(fp)
 4100f94:	1000061e 	bne	r2,zero,4100fb0 <altera_avalon_mailbox_open+0x108>
	    ((dev->mbox_type == MBOX_RX) && (tx_callback != NULL)))
 4100f98:	e0bfff17 	ldw	r2,-4(fp)
 4100f9c:	10800f17 	ldw	r2,60(r2)
    if (((dev->mbox_type == MBOX_TX) && (rx_callback != NULL)) ||
 4100fa0:	10800058 	cmpnei	r2,r2,1
 4100fa4:	1000041e 	bne	r2,zero,4100fb8 <altera_avalon_mailbox_open+0x110>
	    ((dev->mbox_type == MBOX_RX) && (tx_callback != NULL)))
 4100fa8:	e0bffc17 	ldw	r2,-16(fp)
 4100fac:	10000226 	beq	r2,zero,4100fb8 <altera_avalon_mailbox_open+0x110>
  	  /* Invalid callback  */
        return NULL;
 4100fb0:	0005883a 	mov	r2,zero
 4100fb4:	00002806 	br	4101058 <altera_avalon_mailbox_open+0x1b0>

    /* IRQ is valid register callback
     * to current mailbox device
     */
    dev->tx_cb  = tx_callback;
 4100fb8:	e0bfff17 	ldw	r2,-4(fp)
 4100fbc:	e0fffc17 	ldw	r3,-16(fp)
 4100fc0:	10c00d15 	stw	r3,52(r2)
    dev->rx_cb  = rx_callback;
 4100fc4:	e0bfff17 	ldw	r2,-4(fp)
 4100fc8:	e0fffb17 	ldw	r3,-20(fp)
 4100fcc:	10c00e15 	stw	r3,56(r2)

    /* Register Mailbox's ISR */
    if (dev->mbox_type == MBOX_TX)
 4100fd0:	e0bfff17 	ldw	r2,-4(fp)
 4100fd4:	10800f17 	ldw	r2,60(r2)
 4100fd8:	1000071e 	bne	r2,zero,4100ff8 <altera_avalon_mailbox_open+0x150>
    {
    #ifdef ALT_ENHANCED_INTERRUPT_API_PRESENT
        alt_ic_isr_register(dev->mailbox_intr_ctrl_id, dev->mailbox_irq, altera_avalon_mailbox_simple_tx_isr,
                            dev, NULL);
    #else
        alt_irq_register(dev->mailbox_irq, dev, altera_avalon_mailbox_simple_tx_isr);
 4100fdc:	e0bfff17 	ldw	r2,-4(fp)
 4100fe0:	10800b17 	ldw	r2,44(r2)
 4100fe4:	01810434 	movhi	r6,1040
 4100fe8:	31831004 	addi	r6,r6,3136
 4100fec:	e17fff17 	ldw	r5,-4(fp)
 4100ff0:	1009883a 	mov	r4,r2
 4100ff4:	41007800 	call	4100780 <alt_irq_register>
    #endif
    }
  
    if (dev->mbox_type == MBOX_RX)
 4100ff8:	e0bfff17 	ldw	r2,-4(fp)
 4100ffc:	10800f17 	ldw	r2,60(r2)
 4101000:	10800058 	cmpnei	r2,r2,1
 4101004:	1000131e 	bne	r2,zero,4101054 <altera_avalon_mailbox_open+0x1ac>
    {
    #ifdef ALT_ENHANCED_INTERRUPT_API_PRESENT
        alt_ic_isr_register(dev->mailbox_intr_ctrl_id, dev->mailbox_irq, altera_avalon_mailbox_simple_rx_isr,
                            dev, NULL);
    #else
        alt_irq_register(dev->mailbox_irq, dev, altera_avalon_mailbox_simple_rx_isr);
 4101008:	e0bfff17 	ldw	r2,-4(fp)
 410100c:	10800b17 	ldw	r2,44(r2)
 4101010:	01810434 	movhi	r6,1040
 4101014:	31836004 	addi	r6,r6,3456
 4101018:	e17fff17 	ldw	r5,-4(fp)
 410101c:	1009883a 	mov	r4,r2
 4101020:	41007800 	call	4100780 <alt_irq_register>
    #endif
        /* Enable Receiver interrupt to listen mode */
        data = IORD(dev->base, ALTERA_AVALON_MAILBOX_SIMPLE_INTR_OFST) |
 4101024:	e0bfff17 	ldw	r2,-4(fp)
 4101028:	10800a17 	ldw	r2,40(r2)
 410102c:	10800304 	addi	r2,r2,12
 4101030:	10800037 	ldwio	r2,0(r2)
 4101034:	10800054 	ori	r2,r2,1
 4101038:	e0bffe15 	stw	r2,-8(fp)
  	             (ALTERA_AVALON_MAILBOX_SIMPLE_INTR_PEN_MSK);
        IOWR(dev->base, ALTERA_AVALON_MAILBOX_SIMPLE_INTR_OFST, data);
 410103c:	e0bfff17 	ldw	r2,-4(fp)
 4101040:	10800a17 	ldw	r2,40(r2)
 4101044:	10800304 	addi	r2,r2,12
 4101048:	1007883a 	mov	r3,r2
 410104c:	e0bffe17 	ldw	r2,-8(fp)
 4101050:	18800035 	stwio	r2,0(r3)
    }
    return dev;
 4101054:	e0bfff17 	ldw	r2,-4(fp)
}
 4101058:	e037883a 	mov	sp,fp
 410105c:	dfc00117 	ldw	ra,4(sp)
 4101060:	df000017 	ldw	fp,0(sp)
 4101064:	dec00204 	addi	sp,sp,8
 4101068:	f800283a 	ret

0410106c <altera_avalon_mailbox_close>:
/*
 * altera_avalon_mailbox_close
 * Disable mailbox interrupt and irq
 */
void altera_avalon_mailbox_close (altera_avalon_mailbox_dev *dev)
{
 410106c:	defffc04 	addi	sp,sp,-16
 4101070:	dfc00315 	stw	ra,12(sp)
 4101074:	df000215 	stw	fp,8(sp)
 4101078:	df000204 	addi	fp,sp,8
 410107c:	e13ffe15 	stw	r4,-8(fp)
    alt_u32 data;
    if ((dev != NULL) && (dev->mailbox_irq != ALT_IRQ_NOT_CONNECTED))
 4101080:	e0bffe17 	ldw	r2,-8(fp)
 4101084:	10003526 	beq	r2,zero,410115c <altera_avalon_mailbox_close+0xf0>
 4101088:	e0bffe17 	ldw	r2,-8(fp)
 410108c:	10800b17 	ldw	r2,44(r2)
 4101090:	10bfffe0 	cmpeqi	r2,r2,-1
 4101094:	1000311e 	bne	r2,zero,410115c <altera_avalon_mailbox_close+0xf0>
    {
        /* Mask interrupt */
        if (dev->mbox_type == MBOX_TX)
 4101098:	e0bffe17 	ldw	r2,-8(fp)
 410109c:	10800f17 	ldw	r2,60(r2)
 41010a0:	10000e1e 	bne	r2,zero,41010dc <altera_avalon_mailbox_close+0x70>
        {
            data = IORD(dev->base, ALTERA_AVALON_MAILBOX_SIMPLE_INTR_OFST) &
 41010a4:	e0bffe17 	ldw	r2,-8(fp)
 41010a8:	10800a17 	ldw	r2,40(r2)
 41010ac:	10800304 	addi	r2,r2,12
 41010b0:	10800037 	ldwio	r2,0(r2)
 41010b4:	1007883a 	mov	r3,r2
 41010b8:	00bfff44 	movi	r2,-3
 41010bc:	1884703a 	and	r2,r3,r2
 41010c0:	e0bfff15 	stw	r2,-4(fp)
                       (~ALTERA_AVALON_MAILBOX_SIMPLE_INTR_SPACE_MSK);
            IOWR(dev->base, ALTERA_AVALON_MAILBOX_SIMPLE_INTR_OFST, data);
 41010c4:	e0bffe17 	ldw	r2,-8(fp)
 41010c8:	10800a17 	ldw	r2,40(r2)
 41010cc:	10800304 	addi	r2,r2,12
 41010d0:	1007883a 	mov	r3,r2
 41010d4:	e0bfff17 	ldw	r2,-4(fp)
 41010d8:	18800035 	stwio	r2,0(r3)
        }
        if (dev->mbox_type == MBOX_RX)
 41010dc:	e0bffe17 	ldw	r2,-8(fp)
 41010e0:	10800f17 	ldw	r2,60(r2)
 41010e4:	10800058 	cmpnei	r2,r2,1
 41010e8:	10000e1e 	bne	r2,zero,4101124 <altera_avalon_mailbox_close+0xb8>
        {
            data = IORD(dev->base, ALTERA_AVALON_MAILBOX_SIMPLE_INTR_OFST) &
 41010ec:	e0bffe17 	ldw	r2,-8(fp)
 41010f0:	10800a17 	ldw	r2,40(r2)
 41010f4:	10800304 	addi	r2,r2,12
 41010f8:	10800037 	ldwio	r2,0(r2)
 41010fc:	1007883a 	mov	r3,r2
 4101100:	00bfff84 	movi	r2,-2
 4101104:	1884703a 	and	r2,r3,r2
 4101108:	e0bfff15 	stw	r2,-4(fp)
                       (~ALTERA_AVALON_MAILBOX_SIMPLE_INTR_PEN_MSK);
            IOWR(dev->base, ALTERA_AVALON_MAILBOX_SIMPLE_INTR_OFST, data);
 410110c:	e0bffe17 	ldw	r2,-8(fp)
 4101110:	10800a17 	ldw	r2,40(r2)
 4101114:	10800304 	addi	r2,r2,12
 4101118:	1007883a 	mov	r3,r2
 410111c:	e0bfff17 	ldw	r2,-4(fp)
 4101120:	18800035 	stwio	r2,0(r3)
        }
  
        /* De-register mailbox irq) */
        if (dev->mailbox_irq != ALT_IRQ_NOT_CONNECTED)
 4101124:	e0bffe17 	ldw	r2,-8(fp)
 4101128:	10800b17 	ldw	r2,44(r2)
 410112c:	10bfffe0 	cmpeqi	r2,r2,-1
 4101130:	1000061e 	bne	r2,zero,410114c <altera_avalon_mailbox_close+0xe0>
        {
        #ifdef ALT_ENHANCED_INTERRUPT_API_PRESENT
            alt_ic_isr_register(dev->mailbox_intr_ctrl_id, dev->mailbox_irq, NULL,
                              dev, NULL);
        #else
            alt_irq_register(dev->mailbox_irq, dev, NULL);
 4101134:	e0bffe17 	ldw	r2,-8(fp)
 4101138:	10800b17 	ldw	r2,44(r2)
 410113c:	000d883a 	mov	r6,zero
 4101140:	e17ffe17 	ldw	r5,-8(fp)
 4101144:	1009883a 	mov	r4,r2
 4101148:	41007800 	call	4100780 <alt_irq_register>
        #endif
        }
        /* De-registering callback to mailbox */
        dev->tx_cb  = NULL;
 410114c:	e0bffe17 	ldw	r2,-8(fp)
 4101150:	10000d15 	stw	zero,52(r2)
        dev->rx_cb  = NULL;
 4101154:	e0bffe17 	ldw	r2,-8(fp)
 4101158:	10000e15 	stw	zero,56(r2)
    }
}
 410115c:	0001883a 	nop
 4101160:	e037883a 	mov	sp,fp
 4101164:	dfc00117 	ldw	ra,4(sp)
 4101168:	df000017 	ldw	fp,0(sp)
 410116c:	dec00204 	addi	sp,sp,8
 4101170:	f800283a 	ret

04101174 <altera_avalon_mailbox_status>:
 *   Return 0 when mailbox is empty or no pending message
 *   Return 1 when mailbox space is full or there is a message pending
 */

alt_u32 altera_avalon_mailbox_status (altera_avalon_mailbox_dev *dev)
{
 4101174:	defffd04 	addi	sp,sp,-12
 4101178:	df000215 	stw	fp,8(sp)
 410117c:	df000204 	addi	fp,sp,8
 4101180:	e13ffe15 	stw	r4,-8(fp)
    alt_u32 mailbox_sts = 0;
 4101184:	e03fff15 	stw	zero,-4(fp)

    mailbox_sts = (IORD(dev->base, ALTERA_AVALON_MAILBOX_SIMPLE_STS_OFST) & ALTERA_AVALON_MAILBOX_SIMPLE_STS_MSK);
 4101188:	e0bffe17 	ldw	r2,-8(fp)
 410118c:	10800a17 	ldw	r2,40(r2)
 4101190:	10800204 	addi	r2,r2,8
 4101194:	10800037 	ldwio	r2,0(r2)
 4101198:	108000cc 	andi	r2,r2,3
 410119c:	e0bfff15 	stw	r2,-4(fp)

    if (dev->mbox_type == MBOX_TX)
 41011a0:	e0bffe17 	ldw	r2,-8(fp)
 41011a4:	10800f17 	ldw	r2,60(r2)
 41011a8:	1000041e 	bne	r2,zero,41011bc <altera_avalon_mailbox_status+0x48>
        mailbox_sts = (mailbox_sts & ALTERA_AVALON_MAILBOX_SIMPLE_STS_FULL_MSK) >> 1;
 41011ac:	e0bfff17 	ldw	r2,-4(fp)
 41011b0:	1004d07a 	srli	r2,r2,1
 41011b4:	1080004c 	andi	r2,r2,1
 41011b8:	e0bfff15 	stw	r2,-4(fp)

    if (dev->mbox_type == MBOX_RX)
 41011bc:	e0bffe17 	ldw	r2,-8(fp)
 41011c0:	10800f17 	ldw	r2,60(r2)
 41011c4:	10800058 	cmpnei	r2,r2,1
 41011c8:	1000031e 	bne	r2,zero,41011d8 <altera_avalon_mailbox_status+0x64>
        mailbox_sts = mailbox_sts & ALTERA_AVALON_MAILBOX_SIMPLE_STS_PENDING_MSK;
 41011cc:	e0bfff17 	ldw	r2,-4(fp)
 41011d0:	1080004c 	andi	r2,r2,1
 41011d4:	e0bfff15 	stw	r2,-4(fp)

    return mailbox_sts;
 41011d8:	e0bfff17 	ldw	r2,-4(fp)
}
 41011dc:	e037883a 	mov	sp,fp
 41011e0:	df000017 	ldw	fp,0(sp)
 41011e4:	dec00104 	addi	sp,sp,4
 41011e8:	f800283a 	ret

041011ec <altera_avalon_mailbox_send>:
 * For polling mode, '0' timeout value for infinite polling
 * otherwise timeout when expired
 */
int altera_avalon_mailbox_send
(altera_avalon_mailbox_dev *dev, void *message, int timeout, EventType event)
{
 41011ec:	defff704 	addi	sp,sp,-36
 41011f0:	dfc00815 	stw	ra,32(sp)
 41011f4:	df000715 	stw	fp,28(sp)
 41011f8:	df000704 	addi	fp,sp,28
 41011fc:	e13ffc15 	stw	r4,-16(fp)
 4101200:	e17ffb15 	stw	r5,-20(fp)
 4101204:	e1bffa15 	stw	r6,-24(fp)
 4101208:	e1fff915 	stw	r7,-28(fp)
    int status = 0;
 410120c:	e03fff15 	stw	zero,-4(fp)
     * Obtain the "write_lock"semaphore to ensures 
     * that writing to the device is thread-safe in multi-thread enviroment
     */
    ALT_SEM_PEND (dev->write_lock, 0);

    if (dev->lock || (IORD_ALTERA_AVALON_MAILBOX_STS(dev->base)
 4101210:	e0bffc17 	ldw	r2,-16(fp)
 4101214:	10801103 	ldbu	r2,68(r2)
 4101218:	10803fcc 	andi	r2,r2,255
 410121c:	1000061e 	bne	r2,zero,4101238 <altera_avalon_mailbox_send+0x4c>
 4101220:	e0bffc17 	ldw	r2,-16(fp)
 4101224:	10800a17 	ldw	r2,40(r2)
 4101228:	10800204 	addi	r2,r2,8
 410122c:	10800037 	ldwio	r2,0(r2)
    		          & ALTERA_AVALON_MAILBOX_SIMPLE_STS_FULL_MSK))
 4101230:	1080008c 	andi	r2,r2,2
    if (dev->lock || (IORD_ALTERA_AVALON_MAILBOX_STS(dev->base)
 4101234:	10000226 	beq	r2,zero,4101240 <altera_avalon_mailbox_send+0x54>
    {
    	/* dev is lock or no free space to send */
    	return -1;
 4101238:	00bfffc4 	movi	r2,-1
 410123c:	00003a06 	br	4101328 <altera_avalon_mailbox_send+0x13c>
    }
    else
    {
        dev->mbox_msg = message;
 4101240:	e0bffc17 	ldw	r2,-16(fp)
 4101244:	e0fffb17 	ldw	r3,-20(fp)
 4101248:	10c01015 	stw	r3,64(r2)
        dev->lock = 1;
 410124c:	e0bffc17 	ldw	r2,-16(fp)
 4101250:	00c00044 	movi	r3,1
 4101254:	10c01105 	stb	r3,68(r2)
     */
    ALT_SEM_POST (dev->write_lock);



    if ((dev->mailbox_irq == ALT_IRQ_NOT_CONNECTED) || (event==POLL))
 4101258:	e0bffc17 	ldw	r2,-16(fp)
 410125c:	10800b17 	ldw	r2,44(r2)
 4101260:	10bfffe0 	cmpeqi	r2,r2,-1
 4101264:	1000031e 	bne	r2,zero,4101274 <altera_avalon_mailbox_send+0x88>
 4101268:	e0bff917 	ldw	r2,-28(fp)
 410126c:	10800058 	cmpnei	r2,r2,1
 4101270:	1000201e 	bne	r2,zero,41012f4 <altera_avalon_mailbox_send+0x108>
    {
        /* Polling mode */
        if (timeout ==0)
 4101274:	e0bffa17 	ldw	r2,-24(fp)
 4101278:	1000061e 	bne	r2,zero,4101294 <altera_avalon_mailbox_send+0xa8>
        {
            do
            {
                mbox_status = altera_avalon_mailbox_status(dev);
 410127c:	e13ffc17 	ldw	r4,-16(fp)
 4101280:	41011740 	call	4101174 <altera_avalon_mailbox_status>
 4101284:	e0bffd15 	stw	r2,-12(fp)
            } while (mbox_status);
 4101288:	e0bffd17 	ldw	r2,-12(fp)
 410128c:	103ffb1e 	bne	r2,zero,410127c <altera_avalon_mailbox_send+0x90>
 4101290:	00000e06 	br	41012cc <altera_avalon_mailbox_send+0xe0>
        } else
        {
            do
            {
                mbox_status = altera_avalon_mailbox_status(dev);
 4101294:	e13ffc17 	ldw	r4,-16(fp)
 4101298:	41011740 	call	4101174 <altera_avalon_mailbox_status>
 410129c:	e0bffd15 	stw	r2,-12(fp)
                timeout--;
 41012a0:	e0bffa17 	ldw	r2,-24(fp)
 41012a4:	10bfffc4 	addi	r2,r2,-1
 41012a8:	e0bffa15 	stw	r2,-24(fp)
            } while (mbox_status && (timeout != 0));
 41012ac:	e0bffd17 	ldw	r2,-12(fp)
 41012b0:	10000226 	beq	r2,zero,41012bc <altera_avalon_mailbox_send+0xd0>
 41012b4:	e0bffa17 	ldw	r2,-24(fp)
 41012b8:	103ff61e 	bne	r2,zero,4101294 <altera_avalon_mailbox_send+0xa8>
            if (timeout == 0)
 41012bc:	e0bffa17 	ldw	r2,-24(fp)
 41012c0:	1000021e 	bne	r2,zero,41012cc <altera_avalon_mailbox_send+0xe0>
            {    /* Timeout occur or fail sending */
                return -ETIME;
 41012c4:	00bff084 	movi	r2,-62
 41012c8:	00001706 	br	4101328 <altera_avalon_mailbox_send+0x13c>
            }
        }
        status = altera_avalon_mailbox_post (dev, message);
 41012cc:	e17ffb17 	ldw	r5,-20(fp)
 41012d0:	e13ffc17 	ldw	r4,-16(fp)
 41012d4:	4100bc80 	call	4100bc8 <altera_avalon_mailbox_post>
 41012d8:	e0bfff15 	stw	r2,-4(fp)
        /* Clear mailbox message to NULL after message being posted */
        dev->mbox_msg = NULL;
 41012dc:	e0bffc17 	ldw	r2,-16(fp)
 41012e0:	10001015 	stw	zero,64(r2)
        /* Release lock when message posted */
        dev->lock =0;
 41012e4:	e0bffc17 	ldw	r2,-16(fp)
 41012e8:	10001105 	stb	zero,68(r2)
        return status;
 41012ec:	e0bfff17 	ldw	r2,-4(fp)
 41012f0:	00000d06 	br	4101328 <altera_avalon_mailbox_send+0x13c>
    } else
    {
        /* Enable Sender interrupt */
        data = IORD(dev->base, ALTERA_AVALON_MAILBOX_SIMPLE_INTR_OFST) |
 41012f4:	e0bffc17 	ldw	r2,-16(fp)
 41012f8:	10800a17 	ldw	r2,40(r2)
 41012fc:	10800304 	addi	r2,r2,12
 4101300:	10800037 	ldwio	r2,0(r2)
 4101304:	10800094 	ori	r2,r2,2
 4101308:	e0bffe15 	stw	r2,-8(fp)
                   (ALTERA_AVALON_MAILBOX_SIMPLE_INTR_SPACE_MSK);
        IOWR(dev->base, ALTERA_AVALON_MAILBOX_SIMPLE_INTR_OFST, data);
 410130c:	e0bffc17 	ldw	r2,-16(fp)
 4101310:	10800a17 	ldw	r2,40(r2)
 4101314:	10800304 	addi	r2,r2,12
 4101318:	1007883a 	mov	r3,r2
 410131c:	e0bffe17 	ldw	r2,-8(fp)
 4101320:	18800035 	stwio	r2,0(r3)
    }
  return 0;
 4101324:	0005883a 	mov	r2,zero
}
 4101328:	e037883a 	mov	sp,fp
 410132c:	dfc00117 	ldw	ra,4(sp)
 4101330:	df000017 	ldw	fp,0(sp)
 4101334:	dec00204 	addi	sp,sp,8
 4101338:	f800283a 	ret

0410133c <altera_avalon_mailbox_retrieve_poll>:
 * If a message is available in the mailbox return it otherwise return NULL
 * This function is blocking
 *
 */
int altera_avalon_mailbox_retrieve_poll (altera_avalon_mailbox_dev *dev, alt_u32 *message, alt_u32 timeout)
{
 410133c:	defff904 	addi	sp,sp,-28
 4101340:	dfc00615 	stw	ra,24(sp)
 4101344:	df000515 	stw	fp,20(sp)
 4101348:	df000504 	addi	fp,sp,20
 410134c:	e13ffd15 	stw	r4,-12(fp)
 4101350:	e17ffc15 	stw	r5,-16(fp)
 4101354:	e1bffb15 	stw	r6,-20(fp)
    alt_u32 status = 0;
 4101358:	e03fff15 	stw	zero,-4(fp)
    alt_u32 data;

    if (dev != NULL && message != NULL)
 410135c:	e0bffd17 	ldw	r2,-12(fp)
 4101360:	10003a26 	beq	r2,zero,410144c <altera_avalon_mailbox_retrieve_poll+0x110>
 4101364:	e0bffc17 	ldw	r2,-16(fp)
 4101368:	10003826 	beq	r2,zero,410144c <altera_avalon_mailbox_retrieve_poll+0x110>
    {
        /* Mask receiver mailbox interrupt when in polling mode */
        data = IORD(dev->base, ALTERA_AVALON_MAILBOX_SIMPLE_INTR_OFST);
 410136c:	e0bffd17 	ldw	r2,-12(fp)
 4101370:	10800a17 	ldw	r2,40(r2)
 4101374:	10800304 	addi	r2,r2,12
 4101378:	10800037 	ldwio	r2,0(r2)
 410137c:	e0bffe15 	stw	r2,-8(fp)
        IOWR(dev->base, ALTERA_AVALON_MAILBOX_SIMPLE_INTR_OFST,
 4101380:	e0bffd17 	ldw	r2,-12(fp)
 4101384:	10800a17 	ldw	r2,40(r2)
 4101388:	10800304 	addi	r2,r2,12
 410138c:	1009883a 	mov	r4,r2
 4101390:	e0fffe17 	ldw	r3,-8(fp)
 4101394:	00bfff84 	movi	r2,-2
 4101398:	1884703a 	and	r2,r3,r2
 410139c:	20800035 	stwio	r2,0(r4)
            (data & (~ALTERA_AVALON_MAILBOX_SIMPLE_INTR_PEN_MSK)));


        /* If timeout is '0', poll till message availabe in mailbox */
        if (timeout == 0)
 41013a0:	e0bffb17 	ldw	r2,-20(fp)
 41013a4:	1000061e 	bne	r2,zero,41013c0 <altera_avalon_mailbox_retrieve_poll+0x84>
        {
            do
            {
                status = altera_avalon_mailbox_status (dev);
 41013a8:	e13ffd17 	ldw	r4,-12(fp)
 41013ac:	41011740 	call	4101174 <altera_avalon_mailbox_status>
 41013b0:	e0bfff15 	stw	r2,-4(fp)
            } while (status == 0);
 41013b4:	e0bfff17 	ldw	r2,-4(fp)
 41013b8:	103ffb26 	beq	r2,zero,41013a8 <altera_avalon_mailbox_retrieve_poll+0x6c>
 41013bc:	00000a06 	br	41013e8 <altera_avalon_mailbox_retrieve_poll+0xac>
        } else
        {
            do
            {
                 status = altera_avalon_mailbox_status (dev);
 41013c0:	e13ffd17 	ldw	r4,-12(fp)
 41013c4:	41011740 	call	4101174 <altera_avalon_mailbox_status>
 41013c8:	e0bfff15 	stw	r2,-4(fp)
                 timeout-- ;
 41013cc:	e0bffb17 	ldw	r2,-20(fp)
 41013d0:	10bfffc4 	addi	r2,r2,-1
 41013d4:	e0bffb15 	stw	r2,-20(fp)
            } while ((status == 0) && timeout);
 41013d8:	e0bfff17 	ldw	r2,-4(fp)
 41013dc:	1000021e 	bne	r2,zero,41013e8 <altera_avalon_mailbox_retrieve_poll+0xac>
 41013e0:	e0bffb17 	ldw	r2,-20(fp)
 41013e4:	103ff61e 	bne	r2,zero,41013c0 <altera_avalon_mailbox_retrieve_poll+0x84>
        }

        /* if timeout, status remain 0 */
        if (status)
 41013e8:	e0bfff17 	ldw	r2,-4(fp)
 41013ec:	10000d26 	beq	r2,zero,4101424 <altera_avalon_mailbox_retrieve_poll+0xe8>
        {
            message[1] = (IORD(dev->base, ALTERA_AVALON_MAILBOX_SIMPLE_PTR_OFST));
 41013f0:	e0bffd17 	ldw	r2,-12(fp)
 41013f4:	10800a17 	ldw	r2,40(r2)
 41013f8:	10800104 	addi	r2,r2,4
 41013fc:	10c00037 	ldwio	r3,0(r2)
 4101400:	e0bffc17 	ldw	r2,-16(fp)
 4101404:	10800104 	addi	r2,r2,4
 4101408:	10c00015 	stw	r3,0(r2)
            message[0] = (IORD(dev->base, ALTERA_AVALON_MAILBOX_SIMPLE_CMD_OFST));
 410140c:	e0bffd17 	ldw	r2,-12(fp)
 4101410:	10800a17 	ldw	r2,40(r2)
 4101414:	10800037 	ldwio	r2,0(r2)
 4101418:	1007883a 	mov	r3,r2
 410141c:	e0bffc17 	ldw	r2,-16(fp)
 4101420:	10c00015 	stw	r3,0(r2)
        }
        /* Restore original state of interrupt mask */
        IOWR(dev->base, ALTERA_AVALON_MAILBOX_SIMPLE_INTR_OFST, data);
 4101424:	e0bffd17 	ldw	r2,-12(fp)
 4101428:	10800a17 	ldw	r2,40(r2)
 410142c:	10800304 	addi	r2,r2,12
 4101430:	1007883a 	mov	r3,r2
 4101434:	e0bffe17 	ldw	r2,-8(fp)
 4101438:	18800035 	stwio	r2,0(r3)

        /* Return success on complete retrieve message
         * otherwise timeout and exit with error
         */
        if (status)
 410143c:	e0bfff17 	ldw	r2,-4(fp)
 4101440:	10000226 	beq	r2,zero,410144c <altera_avalon_mailbox_retrieve_poll+0x110>
          return 0;
 4101444:	0005883a 	mov	r2,zero
 4101448:	00000606 	br	4101464 <altera_avalon_mailbox_retrieve_poll+0x128>
      }
      /* Invalid Null dev and message */
      message[1] = 0;
 410144c:	e0bffc17 	ldw	r2,-16(fp)
 4101450:	10800104 	addi	r2,r2,4
 4101454:	10000015 	stw	zero,0(r2)
      message[0] = 0;
 4101458:	e0bffc17 	ldw	r2,-16(fp)
 410145c:	10000015 	stw	zero,0(r2)
      return -EINVAL;
 4101460:	00bffa84 	movi	r2,-22
}
 4101464:	e037883a 	mov	sp,fp
 4101468:	dfc00117 	ldw	ra,4(sp)
 410146c:	df000017 	ldw	fp,0(sp)
 4101470:	dec00204 	addi	sp,sp,8
 4101474:	f800283a 	ret

04101478 <alt_avalon_timer_sc_irq>:
#ifdef ALT_ENHANCED_INTERRUPT_API_PRESENT
static void alt_avalon_timer_sc_irq (void* base)
#else
static void alt_avalon_timer_sc_irq (void* base, alt_u32 id)
#endif
{
 4101478:	defff904 	addi	sp,sp,-28
 410147c:	dfc00615 	stw	ra,24(sp)
 4101480:	df000515 	stw	fp,20(sp)
 4101484:	df000504 	addi	fp,sp,20
 4101488:	e13ffc15 	stw	r4,-16(fp)
 410148c:	e17ffb15 	stw	r5,-20(fp)
  alt_irq_context cpu_sr;
  
  /* clear the interrupt */
  IOWR_ALTERA_AVALON_TIMER_STATUS (base, 0);
 4101490:	0007883a 	mov	r3,zero
 4101494:	e0bffc17 	ldw	r2,-16(fp)
 4101498:	10c00035 	stwio	r3,0(r2)
  /* 
   * Dummy read to ensure IRQ is negated before the ISR returns.
   * The control register is read because reading the status
   * register has side-effects per the register map documentation.
   */
  IORD_ALTERA_AVALON_TIMER_CONTROL (base);
 410149c:	e0bffc17 	ldw	r2,-16(fp)
 41014a0:	10800104 	addi	r2,r2,4
 41014a4:	10800037 	ldwio	r2,0(r2)
  NIOS2_READ_STATUS (context);
 41014a8:	0005303a 	rdctl	r2,status
 41014ac:	e0bffd15 	stw	r2,-12(fp)
  NIOS2_WRITE_STATUS (context & ~NIOS2_STATUS_PIE_MSK);
 41014b0:	e0fffd17 	ldw	r3,-12(fp)
 41014b4:	00bfff84 	movi	r2,-2
 41014b8:	1884703a 	and	r2,r3,r2
 41014bc:	1001703a 	wrctl	status,r2
  return context;
 41014c0:	e0bffd17 	ldw	r2,-12(fp)

  /* 
   * Notify the system of a clock tick. disable interrupts 
   * during this time to safely support ISR preemption
   */
  cpu_sr = alt_irq_disable_all();
 41014c4:	e0bfff15 	stw	r2,-4(fp)
  alt_tick ();
 41014c8:	41021d80 	call	41021d8 <alt_tick>
 41014cc:	e0bfff17 	ldw	r2,-4(fp)
 41014d0:	e0bffe15 	stw	r2,-8(fp)
  NIOS2_WRITE_STATUS (context);
 41014d4:	e0bffe17 	ldw	r2,-8(fp)
 41014d8:	1001703a 	wrctl	status,r2
}
 41014dc:	0001883a 	nop
  alt_irq_enable_all(cpu_sr);
}
 41014e0:	0001883a 	nop
 41014e4:	e037883a 	mov	sp,fp
 41014e8:	dfc00117 	ldw	ra,4(sp)
 41014ec:	df000017 	ldw	fp,0(sp)
 41014f0:	dec00204 	addi	sp,sp,8
 41014f4:	f800283a 	ret

041014f8 <alt_avalon_timer_sc_init>:
 * auto-generated alt_sys_init() function.
 */

void alt_avalon_timer_sc_init (void* base, alt_u32 irq_controller_id, 
                                alt_u32 irq, alt_u32 freq)
{
 41014f8:	defff904 	addi	sp,sp,-28
 41014fc:	dfc00615 	stw	ra,24(sp)
 4101500:	df000515 	stw	fp,20(sp)
 4101504:	df000504 	addi	fp,sp,20
 4101508:	e13ffe15 	stw	r4,-8(fp)
 410150c:	e17ffd15 	stw	r5,-12(fp)
 4101510:	e1bffc15 	stw	r6,-16(fp)
 4101514:	e1fffb15 	stw	r7,-20(fp)
 4101518:	e0bffb17 	ldw	r2,-20(fp)
 410151c:	e0bfff15 	stw	r2,-4(fp)
 * in order to initialise the value of the clock frequency.
 */

static ALT_INLINE int ALT_ALWAYS_INLINE alt_sysclk_init (alt_u32 nticks)
{
  if (! _alt_tick_rate)
 4101520:	d0a1d117 	ldw	r2,-30908(gp)
 4101524:	1000031e 	bne	r2,zero,4101534 <alt_avalon_timer_sc_init+0x3c>
  {
    _alt_tick_rate = nticks;
 4101528:	e0bfff17 	ldw	r2,-4(fp)
 410152c:	d0a1d115 	stw	r2,-30908(gp)
    return 0;
 4101530:	00000106 	br	4101538 <alt_avalon_timer_sc_init+0x40>
  }
  else
  {
    return -1;
 4101534:	0001883a 	nop
  
  alt_sysclk_init (freq);
  
  /* set to free running mode */
  
  IOWR_ALTERA_AVALON_TIMER_CONTROL (base, 
 4101538:	e0bffe17 	ldw	r2,-8(fp)
 410153c:	10800104 	addi	r2,r2,4
 4101540:	00c001c4 	movi	r3,7
 4101544:	10c00035 	stwio	r3,0(r2)
  /* register the interrupt handler, and enable the interrupt */
#ifdef ALT_ENHANCED_INTERRUPT_API_PRESENT
  alt_ic_isr_register(irq_controller_id, irq, alt_avalon_timer_sc_irq, 
                      base, NULL);
#else
  alt_irq_register (irq, base, alt_avalon_timer_sc_irq);
 4101548:	01810434 	movhi	r6,1040
 410154c:	31851e04 	addi	r6,r6,5240
 4101550:	e17ffe17 	ldw	r5,-8(fp)
 4101554:	e13ffc17 	ldw	r4,-16(fp)
 4101558:	41007800 	call	4100780 <alt_irq_register>
#endif  
}
 410155c:	0001883a 	nop
 4101560:	e037883a 	mov	sp,fp
 4101564:	dfc00117 	ldw	ra,4(sp)
 4101568:	df000017 	ldw	fp,0(sp)
 410156c:	dec00204 	addi	sp,sp,8
 4101570:	f800283a 	ret

04101574 <alt_up_audio_open_dev>:
#include "altera_up_avalon_audio_regs.h"

///////////////////////////////////////////////////////////////////////////
// Direct functions
alt_up_audio_dev* alt_up_audio_open_dev(const char* name)
{
 4101574:	defffc04 	addi	sp,sp,-16
 4101578:	dfc00315 	stw	ra,12(sp)
 410157c:	df000215 	stw	fp,8(sp)
 4101580:	df000204 	addi	fp,sp,8
 4101584:	e13ffe15 	stw	r4,-8(fp)
  // find the device from the device list 
  // (see altera_hal/HAL/inc/priv/alt_file.h 
  // and altera_hal/HAL/src/alt_find_dev.c 
  // for details)
  alt_up_audio_dev *dev = (alt_up_audio_dev*)alt_find_dev(name, &alt_dev_list);
 4101588:	d1600504 	addi	r5,gp,-32748
 410158c:	e13ffe17 	ldw	r4,-8(fp)
 4101590:	41020140 	call	4102014 <alt_find_dev>
 4101594:	e0bfff15 	stw	r2,-4(fp)
  return dev;
 4101598:	e0bfff17 	ldw	r2,-4(fp)
}
 410159c:	e037883a 	mov	sp,fp
 41015a0:	dfc00117 	ldw	ra,4(sp)
 41015a4:	df000017 	ldw	fp,0(sp)
 41015a8:	dec00204 	addi	sp,sp,8
 41015ac:	f800283a 	ret

041015b0 <alt_up_audio_enable_read_interrupt>:

void alt_up_audio_enable_read_interrupt(alt_up_audio_dev *audio)
{
 41015b0:	defffd04 	addi	sp,sp,-12
 41015b4:	df000215 	stw	fp,8(sp)
 41015b8:	df000204 	addi	fp,sp,8
 41015bc:	e13ffe15 	stw	r4,-8(fp)
	unsigned int ctrl_reg;
	ctrl_reg = IORD_ALT_UP_AUDIO_CONTROL(audio->base); 
 41015c0:	e0bffe17 	ldw	r2,-8(fp)
 41015c4:	10800a17 	ldw	r2,40(r2)
 41015c8:	10800037 	ldwio	r2,0(r2)
 41015cc:	e0bfff15 	stw	r2,-4(fp)
	// set RE to 1 while maintaining other bits the same
	ctrl_reg |= ALT_UP_AUDIO_CONTROL_RE_MSK;
 41015d0:	e0bfff17 	ldw	r2,-4(fp)
 41015d4:	10800054 	ori	r2,r2,1
 41015d8:	e0bfff15 	stw	r2,-4(fp)
	IOWR_ALT_UP_AUDIO_CONTROL(audio->base, ctrl_reg);
 41015dc:	e0bffe17 	ldw	r2,-8(fp)
 41015e0:	10800a17 	ldw	r2,40(r2)
 41015e4:	1007883a 	mov	r3,r2
 41015e8:	e0bfff17 	ldw	r2,-4(fp)
 41015ec:	18800035 	stwio	r2,0(r3)
}
 41015f0:	0001883a 	nop
 41015f4:	e037883a 	mov	sp,fp
 41015f8:	df000017 	ldw	fp,0(sp)
 41015fc:	dec00104 	addi	sp,sp,4
 4101600:	f800283a 	ret

04101604 <alt_up_audio_disable_read_interrupt>:

void alt_up_audio_disable_read_interrupt(alt_up_audio_dev *audio)
{
 4101604:	defffd04 	addi	sp,sp,-12
 4101608:	df000215 	stw	fp,8(sp)
 410160c:	df000204 	addi	fp,sp,8
 4101610:	e13ffe15 	stw	r4,-8(fp)
	unsigned int ctrl_reg;
	ctrl_reg = IORD_ALT_UP_AUDIO_CONTROL(audio->base); 
 4101614:	e0bffe17 	ldw	r2,-8(fp)
 4101618:	10800a17 	ldw	r2,40(r2)
 410161c:	10800037 	ldwio	r2,0(r2)
 4101620:	e0bfff15 	stw	r2,-4(fp)
	// set RE to 0 while maintaining other bits the same
	ctrl_reg &= ~ALT_UP_AUDIO_CONTROL_RE_MSK;
 4101624:	e0ffff17 	ldw	r3,-4(fp)
 4101628:	00bfff84 	movi	r2,-2
 410162c:	1884703a 	and	r2,r3,r2
 4101630:	e0bfff15 	stw	r2,-4(fp)
	IOWR_ALT_UP_AUDIO_CONTROL(audio->base, ctrl_reg);
 4101634:	e0bffe17 	ldw	r2,-8(fp)
 4101638:	10800a17 	ldw	r2,40(r2)
 410163c:	1007883a 	mov	r3,r2
 4101640:	e0bfff17 	ldw	r2,-4(fp)
 4101644:	18800035 	stwio	r2,0(r3)
}
 4101648:	0001883a 	nop
 410164c:	e037883a 	mov	sp,fp
 4101650:	df000017 	ldw	fp,0(sp)
 4101654:	dec00104 	addi	sp,sp,4
 4101658:	f800283a 	ret

0410165c <alt_up_audio_enable_write_interrupt>:

void alt_up_audio_enable_write_interrupt(alt_up_audio_dev *audio)
{
 410165c:	defffd04 	addi	sp,sp,-12
 4101660:	df000215 	stw	fp,8(sp)
 4101664:	df000204 	addi	fp,sp,8
 4101668:	e13ffe15 	stw	r4,-8(fp)
	unsigned int ctrl_reg;
	ctrl_reg = IORD_ALT_UP_AUDIO_CONTROL(audio->base); 
 410166c:	e0bffe17 	ldw	r2,-8(fp)
 4101670:	10800a17 	ldw	r2,40(r2)
 4101674:	10800037 	ldwio	r2,0(r2)
 4101678:	e0bfff15 	stw	r2,-4(fp)
	// set WE to 1 while maintaining other bits the same
	ctrl_reg |= ALT_UP_AUDIO_CONTROL_WE_MSK;
 410167c:	e0bfff17 	ldw	r2,-4(fp)
 4101680:	10800094 	ori	r2,r2,2
 4101684:	e0bfff15 	stw	r2,-4(fp)
	IOWR_ALT_UP_AUDIO_CONTROL(audio->base, ctrl_reg);
 4101688:	e0bffe17 	ldw	r2,-8(fp)
 410168c:	10800a17 	ldw	r2,40(r2)
 4101690:	1007883a 	mov	r3,r2
 4101694:	e0bfff17 	ldw	r2,-4(fp)
 4101698:	18800035 	stwio	r2,0(r3)
}
 410169c:	0001883a 	nop
 41016a0:	e037883a 	mov	sp,fp
 41016a4:	df000017 	ldw	fp,0(sp)
 41016a8:	dec00104 	addi	sp,sp,4
 41016ac:	f800283a 	ret

041016b0 <alt_up_audio_disable_write_interrupt>:

void alt_up_audio_disable_write_interrupt(alt_up_audio_dev *audio)
{
 41016b0:	defffd04 	addi	sp,sp,-12
 41016b4:	df000215 	stw	fp,8(sp)
 41016b8:	df000204 	addi	fp,sp,8
 41016bc:	e13ffe15 	stw	r4,-8(fp)
	unsigned int ctrl_reg;
	ctrl_reg = IORD_ALT_UP_AUDIO_CONTROL(audio->base); 
 41016c0:	e0bffe17 	ldw	r2,-8(fp)
 41016c4:	10800a17 	ldw	r2,40(r2)
 41016c8:	10800037 	ldwio	r2,0(r2)
 41016cc:	e0bfff15 	stw	r2,-4(fp)
	// set WE to 0 while maintaining other bits the same
	ctrl_reg &= ~ALT_UP_AUDIO_CONTROL_WE_MSK;
 41016d0:	e0ffff17 	ldw	r3,-4(fp)
 41016d4:	00bfff44 	movi	r2,-3
 41016d8:	1884703a 	and	r2,r3,r2
 41016dc:	e0bfff15 	stw	r2,-4(fp)
	IOWR_ALT_UP_AUDIO_CONTROL(audio->base, ctrl_reg);
 41016e0:	e0bffe17 	ldw	r2,-8(fp)
 41016e4:	10800a17 	ldw	r2,40(r2)
 41016e8:	1007883a 	mov	r3,r2
 41016ec:	e0bfff17 	ldw	r2,-4(fp)
 41016f0:	18800035 	stwio	r2,0(r3)
}
 41016f4:	0001883a 	nop
 41016f8:	e037883a 	mov	sp,fp
 41016fc:	df000017 	ldw	fp,0(sp)
 4101700:	dec00104 	addi	sp,sp,4
 4101704:	f800283a 	ret

04101708 <alt_up_audio_read_interrupt_pending>:

int alt_up_audio_read_interrupt_pending(alt_up_audio_dev *audio)
{
 4101708:	defffd04 	addi	sp,sp,-12
 410170c:	df000215 	stw	fp,8(sp)
 4101710:	df000204 	addi	fp,sp,8
 4101714:	e13ffe15 	stw	r4,-8(fp)
	unsigned int ctrl_reg;
	ctrl_reg = IORD_ALT_UP_AUDIO_CONTROL(audio->base); 
 4101718:	e0bffe17 	ldw	r2,-8(fp)
 410171c:	10800a17 	ldw	r2,40(r2)
 4101720:	10800037 	ldwio	r2,0(r2)
 4101724:	e0bfff15 	stw	r2,-4(fp)
	// return 1 if RI is set to 1
	return ( (ctrl_reg & ALT_UP_AUDIO_CONTROL_RI_MSK) ? 1 : 0 );
 4101728:	e0bfff17 	ldw	r2,-4(fp)
 410172c:	1004d23a 	srli	r2,r2,8
 4101730:	1080004c 	andi	r2,r2,1
}
 4101734:	e037883a 	mov	sp,fp
 4101738:	df000017 	ldw	fp,0(sp)
 410173c:	dec00104 	addi	sp,sp,4
 4101740:	f800283a 	ret

04101744 <alt_up_audio_write_interrupt_pending>:

int alt_up_audio_write_interrupt_pending(alt_up_audio_dev *audio)
{
 4101744:	defffd04 	addi	sp,sp,-12
 4101748:	df000215 	stw	fp,8(sp)
 410174c:	df000204 	addi	fp,sp,8
 4101750:	e13ffe15 	stw	r4,-8(fp)
	unsigned int ctrl_reg;
	ctrl_reg = IORD_ALT_UP_AUDIO_CONTROL(audio->base); 
 4101754:	e0bffe17 	ldw	r2,-8(fp)
 4101758:	10800a17 	ldw	r2,40(r2)
 410175c:	10800037 	ldwio	r2,0(r2)
 4101760:	e0bfff15 	stw	r2,-4(fp)
	// return the WI value
	return ( (ctrl_reg & ALT_UP_AUDIO_CONTROL_WI_MSK) ? 1 : 0 );
 4101764:	e0bfff17 	ldw	r2,-4(fp)
 4101768:	1004d27a 	srli	r2,r2,9
 410176c:	1080004c 	andi	r2,r2,1
}
 4101770:	e037883a 	mov	sp,fp
 4101774:	df000017 	ldw	fp,0(sp)
 4101778:	dec00104 	addi	sp,sp,4
 410177c:	f800283a 	ret

04101780 <alt_up_audio_reset_audio_core>:

void alt_up_audio_reset_audio_core(alt_up_audio_dev *audio)
{
 4101780:	defffd04 	addi	sp,sp,-12
 4101784:	df000215 	stw	fp,8(sp)
 4101788:	df000204 	addi	fp,sp,8
 410178c:	e13ffe15 	stw	r4,-8(fp)
	unsigned int ctrl_reg;
	ctrl_reg = IORD_ALT_UP_AUDIO_CONTROL(audio->base); 
 4101790:	e0bffe17 	ldw	r2,-8(fp)
 4101794:	10800a17 	ldw	r2,40(r2)
 4101798:	10800037 	ldwio	r2,0(r2)
 410179c:	e0bfff15 	stw	r2,-4(fp)
	// set CR and CW to 1 while maintaining other bits the same
	ctrl_reg |= ALT_UP_AUDIO_CONTROL_CR_MSK;
 41017a0:	e0bfff17 	ldw	r2,-4(fp)
 41017a4:	10800114 	ori	r2,r2,4
 41017a8:	e0bfff15 	stw	r2,-4(fp)
	ctrl_reg |= ALT_UP_AUDIO_CONTROL_CW_MSK;
 41017ac:	e0bfff17 	ldw	r2,-4(fp)
 41017b0:	10800214 	ori	r2,r2,8
 41017b4:	e0bfff15 	stw	r2,-4(fp)
	IOWR_ALT_UP_AUDIO_CONTROL(audio->base, ctrl_reg);
 41017b8:	e0bffe17 	ldw	r2,-8(fp)
 41017bc:	10800a17 	ldw	r2,40(r2)
 41017c0:	1007883a 	mov	r3,r2
 41017c4:	e0bfff17 	ldw	r2,-4(fp)
 41017c8:	18800035 	stwio	r2,0(r3)
	// set CR and CW to 0 while maintaining other bits the same
	ctrl_reg &= ~ALT_UP_AUDIO_CONTROL_CR_MSK;
 41017cc:	e0ffff17 	ldw	r3,-4(fp)
 41017d0:	00bffec4 	movi	r2,-5
 41017d4:	1884703a 	and	r2,r3,r2
 41017d8:	e0bfff15 	stw	r2,-4(fp)
	ctrl_reg &= ~ALT_UP_AUDIO_CONTROL_CW_MSK;
 41017dc:	e0ffff17 	ldw	r3,-4(fp)
 41017e0:	00bffdc4 	movi	r2,-9
 41017e4:	1884703a 	and	r2,r3,r2
 41017e8:	e0bfff15 	stw	r2,-4(fp)
	IOWR_ALT_UP_AUDIO_CONTROL(audio->base, ctrl_reg);
 41017ec:	e0bffe17 	ldw	r2,-8(fp)
 41017f0:	10800a17 	ldw	r2,40(r2)
 41017f4:	1007883a 	mov	r3,r2
 41017f8:	e0bfff17 	ldw	r2,-4(fp)
 41017fc:	18800035 	stwio	r2,0(r3)
}
 4101800:	0001883a 	nop
 4101804:	e037883a 	mov	sp,fp
 4101808:	df000017 	ldw	fp,0(sp)
 410180c:	dec00104 	addi	sp,sp,4
 4101810:	f800283a 	ret

04101814 <alt_up_audio_read_fifo_avail>:

/* Provides number of words of data available in the incoming FIFO: RALC or RARC */
unsigned int alt_up_audio_read_fifo_avail(alt_up_audio_dev *audio, int channel)
{
 4101814:	defffc04 	addi	sp,sp,-16
 4101818:	df000315 	stw	fp,12(sp)
 410181c:	df000304 	addi	fp,sp,12
 4101820:	e13ffe15 	stw	r4,-8(fp)
 4101824:	e17ffd15 	stw	r5,-12(fp)
	unsigned int fifospace;
	// read the whole fifospace register
	fifospace = IORD_ALT_UP_AUDIO_FIFOSPACE(audio->base);
 4101828:	e0bffe17 	ldw	r2,-8(fp)
 410182c:	10800a17 	ldw	r2,40(r2)
 4101830:	10800104 	addi	r2,r2,4
 4101834:	10800037 	ldwio	r2,0(r2)
 4101838:	e0bfff15 	stw	r2,-4(fp)
	// extract the part for proper Channel Read Space
	fifospace = (channel == ALT_UP_AUDIO_LEFT) ? 
		(fifospace & ALT_UP_AUDIO_FIFOSPACE_RALC_MSK) >> ALT_UP_AUDIO_FIFOSPACE_RALC_OFST :
 410183c:	e0bffd17 	ldw	r2,-12(fp)
 4101840:	1000041e 	bne	r2,zero,4101854 <alt_up_audio_read_fifo_avail+0x40>
 4101844:	e0bfff17 	ldw	r2,-4(fp)
 4101848:	1004d23a 	srli	r2,r2,8
 410184c:	10803fcc 	andi	r2,r2,255
 4101850:	00000206 	br	410185c <alt_up_audio_read_fifo_avail+0x48>
 4101854:	e0bfff17 	ldw	r2,-4(fp)
 4101858:	10803fcc 	andi	r2,r2,255
	fifospace = (channel == ALT_UP_AUDIO_LEFT) ? 
 410185c:	e0bfff15 	stw	r2,-4(fp)
		(fifospace & ALT_UP_AUDIO_FIFOSPACE_RARC_MSK) >> ALT_UP_AUDIO_FIFOSPACE_RARC_OFST;
	return (fifospace);
 4101860:	e0bfff17 	ldw	r2,-4(fp)
}
 4101864:	e037883a 	mov	sp,fp
 4101868:	df000017 	ldw	fp,0(sp)
 410186c:	dec00104 	addi	sp,sp,4
 4101870:	f800283a 	ret

04101874 <alt_up_audio_record_r>:
/* Checks if the read FIFO for the right channel has at least BUF_THRESHOLD data words 
 * available. If it doesn't, then just returns 0. If it does, then data is read from the
 * FIFO up to a maximum of len words, and stored into buf.
 */
unsigned int alt_up_audio_record_r(alt_up_audio_dev *audio, unsigned int *buf, int len)
{
 4101874:	defffa04 	addi	sp,sp,-24
 4101878:	dfc00515 	stw	ra,20(sp)
 410187c:	df000415 	stw	fp,16(sp)
 4101880:	df000404 	addi	fp,sp,16
 4101884:	e13ffe15 	stw	r4,-8(fp)
 4101888:	e17ffd15 	stw	r5,-12(fp)
 410188c:	e1bffc15 	stw	r6,-16(fp)
	unsigned int data_words = alt_up_audio_read_fifo_avail (audio, ALT_UP_AUDIO_RIGHT);
 4101890:	01400044 	movi	r5,1
 4101894:	e13ffe17 	ldw	r4,-8(fp)
 4101898:	41018140 	call	4101814 <alt_up_audio_read_fifo_avail>
 410189c:	e0bfff15 	stw	r2,-4(fp)
	if (data_words <= BUF_THRESHOLD)
 41018a0:	e0bfff17 	ldw	r2,-4(fp)
 41018a4:	10801868 	cmpgeui	r2,r2,97
 41018a8:	1000021e 	bne	r2,zero,41018b4 <alt_up_audio_record_r+0x40>
		return 0;
 41018ac:	0005883a 	mov	r2,zero
 41018b0:	00000506 	br	41018c8 <alt_up_audio_record_r+0x54>
	else
		return (alt_up_audio_read_fifo(audio, buf, len, ALT_UP_AUDIO_RIGHT));
 41018b4:	01c00044 	movi	r7,1
 41018b8:	e1bffc17 	ldw	r6,-16(fp)
 41018bc:	e17ffd17 	ldw	r5,-12(fp)
 41018c0:	e13ffe17 	ldw	r4,-8(fp)
 41018c4:	4101a740 	call	4101a74 <alt_up_audio_read_fifo>
}
 41018c8:	e037883a 	mov	sp,fp
 41018cc:	dfc00117 	ldw	ra,4(sp)
 41018d0:	df000017 	ldw	fp,0(sp)
 41018d4:	dec00204 	addi	sp,sp,8
 41018d8:	f800283a 	ret

041018dc <alt_up_audio_record_l>:
/* Checks if the read FIFO for the left channel has at least BUF_THRESHOLD data words 
 * available. If it doesn't, then just returns 0. If it does, then data is read from the
 * FIFO up to a maximum of len words, and stored into buf.
 */
unsigned int alt_up_audio_record_l(alt_up_audio_dev *audio, unsigned int *buf, int len)
{
 41018dc:	defffa04 	addi	sp,sp,-24
 41018e0:	dfc00515 	stw	ra,20(sp)
 41018e4:	df000415 	stw	fp,16(sp)
 41018e8:	df000404 	addi	fp,sp,16
 41018ec:	e13ffe15 	stw	r4,-8(fp)
 41018f0:	e17ffd15 	stw	r5,-12(fp)
 41018f4:	e1bffc15 	stw	r6,-16(fp)
	unsigned int data_words = alt_up_audio_read_fifo_avail (audio, ALT_UP_AUDIO_LEFT);
 41018f8:	000b883a 	mov	r5,zero
 41018fc:	e13ffe17 	ldw	r4,-8(fp)
 4101900:	41018140 	call	4101814 <alt_up_audio_read_fifo_avail>
 4101904:	e0bfff15 	stw	r2,-4(fp)
	if (data_words <= BUF_THRESHOLD)
 4101908:	e0bfff17 	ldw	r2,-4(fp)
 410190c:	10801868 	cmpgeui	r2,r2,97
 4101910:	1000021e 	bne	r2,zero,410191c <alt_up_audio_record_l+0x40>
		return 0;
 4101914:	0005883a 	mov	r2,zero
 4101918:	00000506 	br	4101930 <alt_up_audio_record_l+0x54>
	else
		return (alt_up_audio_read_fifo(audio, buf, len, ALT_UP_AUDIO_LEFT));
 410191c:	000f883a 	mov	r7,zero
 4101920:	e1bffc17 	ldw	r6,-16(fp)
 4101924:	e17ffd17 	ldw	r5,-12(fp)
 4101928:	e13ffe17 	ldw	r4,-8(fp)
 410192c:	4101a740 	call	4101a74 <alt_up_audio_read_fifo>
}
 4101930:	e037883a 	mov	sp,fp
 4101934:	dfc00117 	ldw	ra,4(sp)
 4101938:	df000017 	ldw	fp,0(sp)
 410193c:	dec00204 	addi	sp,sp,8
 4101940:	f800283a 	ret

04101944 <alt_up_audio_write_fifo_space>:

/* Provides the amount of empty space available in the outgoing FIFO: WSLC or WSRC */
unsigned int alt_up_audio_write_fifo_space(alt_up_audio_dev *audio, int channel)
{
 4101944:	defffc04 	addi	sp,sp,-16
 4101948:	df000315 	stw	fp,12(sp)
 410194c:	df000304 	addi	fp,sp,12
 4101950:	e13ffe15 	stw	r4,-8(fp)
 4101954:	e17ffd15 	stw	r5,-12(fp)
	unsigned int fifospace;
	// read the whole fifospace register
	fifospace = IORD_ALT_UP_AUDIO_FIFOSPACE(audio->base);
 4101958:	e0bffe17 	ldw	r2,-8(fp)
 410195c:	10800a17 	ldw	r2,40(r2)
 4101960:	10800104 	addi	r2,r2,4
 4101964:	10800037 	ldwio	r2,0(r2)
 4101968:	e0bfff15 	stw	r2,-4(fp)
	// extract the part for proper Channel Read Space
	fifospace = (channel == ALT_UP_AUDIO_LEFT) ? 
		(fifospace & ALT_UP_AUDIO_FIFOSPACE_WSLC_MSK) >> ALT_UP_AUDIO_FIFOSPACE_WSLC_OFST :
 410196c:	e0bffd17 	ldw	r2,-12(fp)
 4101970:	1000031e 	bne	r2,zero,4101980 <alt_up_audio_write_fifo_space+0x3c>
 4101974:	e0bfff17 	ldw	r2,-4(fp)
 4101978:	1004d63a 	srli	r2,r2,24
 410197c:	00000306 	br	410198c <alt_up_audio_write_fifo_space+0x48>
		(fifospace & ALT_UP_AUDIO_FIFOSPACE_WSRC_MSK) >> ALT_UP_AUDIO_FIFOSPACE_WSRC_OFST;
 4101980:	e0bfff17 	ldw	r2,-4(fp)
 4101984:	1004d43a 	srli	r2,r2,16
		(fifospace & ALT_UP_AUDIO_FIFOSPACE_WSLC_MSK) >> ALT_UP_AUDIO_FIFOSPACE_WSLC_OFST :
 4101988:	10803fcc 	andi	r2,r2,255
	fifospace = (channel == ALT_UP_AUDIO_LEFT) ? 
 410198c:	e0bfff15 	stw	r2,-4(fp)
	return (fifospace);
 4101990:	e0bfff17 	ldw	r2,-4(fp)
}
 4101994:	e037883a 	mov	sp,fp
 4101998:	df000017 	ldw	fp,0(sp)
 410199c:	dec00104 	addi	sp,sp,4
 41019a0:	f800283a 	ret

041019a4 <alt_up_audio_play_r>:
/* Checks if the write FIFO for the right channel has at least BUF_THRESHOLD space available.
 * If it doesn't, then just returns 0. If it does, then data from buf is written into the 
 * FIFO, up to a maximum of len words.
 */
unsigned int alt_up_audio_play_r(alt_up_audio_dev *audio, unsigned int *buf, int len)
{
 41019a4:	defffa04 	addi	sp,sp,-24
 41019a8:	dfc00515 	stw	ra,20(sp)
 41019ac:	df000415 	stw	fp,16(sp)
 41019b0:	df000404 	addi	fp,sp,16
 41019b4:	e13ffe15 	stw	r4,-8(fp)
 41019b8:	e17ffd15 	stw	r5,-12(fp)
 41019bc:	e1bffc15 	stw	r6,-16(fp)
	unsigned int space = alt_up_audio_write_fifo_space (audio, ALT_UP_AUDIO_RIGHT);
 41019c0:	01400044 	movi	r5,1
 41019c4:	e13ffe17 	ldw	r4,-8(fp)
 41019c8:	41019440 	call	4101944 <alt_up_audio_write_fifo_space>
 41019cc:	e0bfff15 	stw	r2,-4(fp)
	if (space <= BUF_THRESHOLD)
 41019d0:	e0bfff17 	ldw	r2,-4(fp)
 41019d4:	10801868 	cmpgeui	r2,r2,97
 41019d8:	1000021e 	bne	r2,zero,41019e4 <alt_up_audio_play_r+0x40>
		return 0;
 41019dc:	0005883a 	mov	r2,zero
 41019e0:	00000506 	br	41019f8 <alt_up_audio_play_r+0x54>
	else
		return (alt_up_audio_write_fifo(audio, buf, len, ALT_UP_AUDIO_RIGHT));
 41019e4:	01c00044 	movi	r7,1
 41019e8:	e1bffc17 	ldw	r6,-16(fp)
 41019ec:	e17ffd17 	ldw	r5,-12(fp)
 41019f0:	e13ffe17 	ldw	r4,-8(fp)
 41019f4:	4101b540 	call	4101b54 <alt_up_audio_write_fifo>
}
 41019f8:	e037883a 	mov	sp,fp
 41019fc:	dfc00117 	ldw	ra,4(sp)
 4101a00:	df000017 	ldw	fp,0(sp)
 4101a04:	dec00204 	addi	sp,sp,8
 4101a08:	f800283a 	ret

04101a0c <alt_up_audio_play_l>:
/* Checks if the write FIFO for the left channel has at least BUF_THRESHOLD space available.
 * If it doesn't, then just returns 0. If it does, then data from buf is written into the 
 * FIFO, up to a maximum of len words.
 */
unsigned int alt_up_audio_play_l(alt_up_audio_dev *audio, unsigned int *buf, int len)
{
 4101a0c:	defffa04 	addi	sp,sp,-24
 4101a10:	dfc00515 	stw	ra,20(sp)
 4101a14:	df000415 	stw	fp,16(sp)
 4101a18:	df000404 	addi	fp,sp,16
 4101a1c:	e13ffe15 	stw	r4,-8(fp)
 4101a20:	e17ffd15 	stw	r5,-12(fp)
 4101a24:	e1bffc15 	stw	r6,-16(fp)
	unsigned int space = alt_up_audio_write_fifo_space (audio, ALT_UP_AUDIO_LEFT);
 4101a28:	000b883a 	mov	r5,zero
 4101a2c:	e13ffe17 	ldw	r4,-8(fp)
 4101a30:	41019440 	call	4101944 <alt_up_audio_write_fifo_space>
 4101a34:	e0bfff15 	stw	r2,-4(fp)
	if (space <= BUF_THRESHOLD)
 4101a38:	e0bfff17 	ldw	r2,-4(fp)
 4101a3c:	10801868 	cmpgeui	r2,r2,97
 4101a40:	1000021e 	bne	r2,zero,4101a4c <alt_up_audio_play_l+0x40>
		return 0;
 4101a44:	0005883a 	mov	r2,zero
 4101a48:	00000506 	br	4101a60 <alt_up_audio_play_l+0x54>
	else
		return (alt_up_audio_write_fifo(audio, buf, len, ALT_UP_AUDIO_LEFT));
 4101a4c:	000f883a 	mov	r7,zero
 4101a50:	e1bffc17 	ldw	r6,-16(fp)
 4101a54:	e17ffd17 	ldw	r5,-12(fp)
 4101a58:	e13ffe17 	ldw	r4,-8(fp)
 4101a5c:	4101b540 	call	4101b54 <alt_up_audio_write_fifo>
}
 4101a60:	e037883a 	mov	sp,fp
 4101a64:	dfc00117 	ldw	ra,4(sp)
 4101a68:	df000017 	ldw	fp,0(sp)
 4101a6c:	dec00204 	addi	sp,sp,8
 4101a70:	f800283a 	ret

04101a74 <alt_up_audio_read_fifo>:

int alt_up_audio_read_fifo(alt_up_audio_dev *audio, unsigned int *buf, int len, int channel)
{
 4101a74:	defff904 	addi	sp,sp,-28
 4101a78:	df000615 	stw	fp,24(sp)
 4101a7c:	df000604 	addi	fp,sp,24
 4101a80:	e13ffd15 	stw	r4,-12(fp)
 4101a84:	e17ffc15 	stw	r5,-16(fp)
 4101a88:	e1bffb15 	stw	r6,-20(fp)
 4101a8c:	e1fffa15 	stw	r7,-24(fp)
	unsigned int fifospace;
	int count = 0;
 4101a90:	e03fff15 	stw	zero,-4(fp)
	while ( count < len ) 
 4101a94:	00002506 	br	4101b2c <alt_up_audio_read_fifo+0xb8>
	{
		// read the whole fifospace register
		fifospace = IORD_ALT_UP_AUDIO_FIFOSPACE(audio->base);
 4101a98:	e0bffd17 	ldw	r2,-12(fp)
 4101a9c:	10800a17 	ldw	r2,40(r2)
 4101aa0:	10800104 	addi	r2,r2,4
 4101aa4:	10800037 	ldwio	r2,0(r2)
 4101aa8:	e0bffe15 	stw	r2,-8(fp)
		// extract the part for proper Channel Read Space
		fifospace = (channel == ALT_UP_AUDIO_LEFT) ? 
			(fifospace & ALT_UP_AUDIO_FIFOSPACE_RALC_MSK) >> ALT_UP_AUDIO_FIFOSPACE_RALC_OFST 
			:
 4101aac:	e0bffa17 	ldw	r2,-24(fp)
 4101ab0:	1000041e 	bne	r2,zero,4101ac4 <alt_up_audio_read_fifo+0x50>
			(fifospace & ALT_UP_AUDIO_FIFOSPACE_RALC_MSK) >> ALT_UP_AUDIO_FIFOSPACE_RALC_OFST 
 4101ab4:	e0bffe17 	ldw	r2,-8(fp)
 4101ab8:	1004d23a 	srli	r2,r2,8
			:
 4101abc:	10803fcc 	andi	r2,r2,255
 4101ac0:	00000206 	br	4101acc <alt_up_audio_read_fifo+0x58>
 4101ac4:	e0bffe17 	ldw	r2,-8(fp)
 4101ac8:	10803fcc 	andi	r2,r2,255
		fifospace = (channel == ALT_UP_AUDIO_LEFT) ? 
 4101acc:	e0bffe15 	stw	r2,-8(fp)
			(fifospace & ALT_UP_AUDIO_FIFOSPACE_RARC_MSK) >> ALT_UP_AUDIO_FIFOSPACE_RARC_OFST;
		if (fifospace > 0) 
 4101ad0:	e0bffe17 	ldw	r2,-8(fp)
 4101ad4:	10001926 	beq	r2,zero,4101b3c <alt_up_audio_read_fifo+0xc8>
		{
			buf[count] = (channel == ALT_UP_AUDIO_LEFT) ? 
				IORD_ALT_UP_AUDIO_LEFTDATA(audio->base) :
 4101ad8:	e0bffa17 	ldw	r2,-24(fp)
 4101adc:	1000061e 	bne	r2,zero,4101af8 <alt_up_audio_read_fifo+0x84>
 4101ae0:	e0bffd17 	ldw	r2,-12(fp)
 4101ae4:	10800a17 	ldw	r2,40(r2)
 4101ae8:	10800204 	addi	r2,r2,8
 4101aec:	10800037 	ldwio	r2,0(r2)
 4101af0:	1009883a 	mov	r4,r2
 4101af4:	00000506 	br	4101b0c <alt_up_audio_read_fifo+0x98>
				IORD_ALT_UP_AUDIO_RIGHTDATA(audio->base);
 4101af8:	e0bffd17 	ldw	r2,-12(fp)
 4101afc:	10800a17 	ldw	r2,40(r2)
 4101b00:	10800304 	addi	r2,r2,12
 4101b04:	10800037 	ldwio	r2,0(r2)
				IORD_ALT_UP_AUDIO_LEFTDATA(audio->base) :
 4101b08:	1009883a 	mov	r4,r2
			buf[count] = (channel == ALT_UP_AUDIO_LEFT) ? 
 4101b0c:	e0bfff17 	ldw	r2,-4(fp)
 4101b10:	100490ba 	slli	r2,r2,2
 4101b14:	e0fffc17 	ldw	r3,-16(fp)
 4101b18:	1885883a 	add	r2,r3,r2
 4101b1c:	11000015 	stw	r4,0(r2)
			count ++;
 4101b20:	e0bfff17 	ldw	r2,-4(fp)
 4101b24:	10800044 	addi	r2,r2,1
 4101b28:	e0bfff15 	stw	r2,-4(fp)
	while ( count < len ) 
 4101b2c:	e0ffff17 	ldw	r3,-4(fp)
 4101b30:	e0bffb17 	ldw	r2,-20(fp)
 4101b34:	18bfd816 	blt	r3,r2,4101a98 <alt_up_audio_read_fifo+0x24>
 4101b38:	00000106 	br	4101b40 <alt_up_audio_read_fifo+0xcc>
		}
		else
		{
			// no more data to read
			break;
 4101b3c:	0001883a 	nop
		}
	}
	return count;
 4101b40:	e0bfff17 	ldw	r2,-4(fp)
}
 4101b44:	e037883a 	mov	sp,fp
 4101b48:	df000017 	ldw	fp,0(sp)
 4101b4c:	dec00104 	addi	sp,sp,4
 4101b50:	f800283a 	ret

04101b54 <alt_up_audio_write_fifo>:

int alt_up_audio_write_fifo(alt_up_audio_dev *audio, unsigned int *buf, int len, int channel)
{
 4101b54:	defff904 	addi	sp,sp,-28
 4101b58:	df000615 	stw	fp,24(sp)
 4101b5c:	df000604 	addi	fp,sp,24
 4101b60:	e13ffd15 	stw	r4,-12(fp)
 4101b64:	e17ffc15 	stw	r5,-16(fp)
 4101b68:	e1bffb15 	stw	r6,-20(fp)
 4101b6c:	e1fffa15 	stw	r7,-24(fp)
	unsigned int fifospace;
	int count = 0;
 4101b70:	e03fff15 	stw	zero,-4(fp)
	while ( count < len ) 
 4101b74:	00002b06 	br	4101c24 <alt_up_audio_write_fifo+0xd0>
	{
		// read the whole fifospace register
		fifospace = IORD_ALT_UP_AUDIO_FIFOSPACE(audio->base);
 4101b78:	e0bffd17 	ldw	r2,-12(fp)
 4101b7c:	10800a17 	ldw	r2,40(r2)
 4101b80:	10800104 	addi	r2,r2,4
 4101b84:	10800037 	ldwio	r2,0(r2)
 4101b88:	e0bffe15 	stw	r2,-8(fp)
		// extract the part for Left Channel Write Space 
		fifospace = (channel == ALT_UP_AUDIO_LEFT) ? 
			(fifospace & ALT_UP_AUDIO_FIFOSPACE_WSLC_MSK) >> ALT_UP_AUDIO_FIFOSPACE_WSLC_OFST :
 4101b8c:	e0bffa17 	ldw	r2,-24(fp)
 4101b90:	1000031e 	bne	r2,zero,4101ba0 <alt_up_audio_write_fifo+0x4c>
 4101b94:	e0bffe17 	ldw	r2,-8(fp)
 4101b98:	1004d63a 	srli	r2,r2,24
 4101b9c:	00000306 	br	4101bac <alt_up_audio_write_fifo+0x58>
			(fifospace & ALT_UP_AUDIO_FIFOSPACE_WSRC_MSK) >> ALT_UP_AUDIO_FIFOSPACE_WSRC_OFST;
 4101ba0:	e0bffe17 	ldw	r2,-8(fp)
 4101ba4:	1004d43a 	srli	r2,r2,16
			(fifospace & ALT_UP_AUDIO_FIFOSPACE_WSLC_MSK) >> ALT_UP_AUDIO_FIFOSPACE_WSLC_OFST :
 4101ba8:	10803fcc 	andi	r2,r2,255
		fifospace = (channel == ALT_UP_AUDIO_LEFT) ? 
 4101bac:	e0bffe15 	stw	r2,-8(fp)
		if (fifospace > 0) 
 4101bb0:	e0bffe17 	ldw	r2,-8(fp)
 4101bb4:	10001f26 	beq	r2,zero,4101c34 <alt_up_audio_write_fifo+0xe0>
		{
			if (channel == ALT_UP_AUDIO_LEFT) 
 4101bb8:	e0bffa17 	ldw	r2,-24(fp)
 4101bbc:	10000d1e 	bne	r2,zero,4101bf4 <alt_up_audio_write_fifo+0xa0>
				IOWR_ALT_UP_AUDIO_LEFTDATA(audio->base, buf[count++]);
 4101bc0:	e0bffd17 	ldw	r2,-12(fp)
 4101bc4:	10800a17 	ldw	r2,40(r2)
 4101bc8:	10800204 	addi	r2,r2,8
 4101bcc:	1009883a 	mov	r4,r2
 4101bd0:	e0bfff17 	ldw	r2,-4(fp)
 4101bd4:	10c00044 	addi	r3,r2,1
 4101bd8:	e0ffff15 	stw	r3,-4(fp)
 4101bdc:	100490ba 	slli	r2,r2,2
 4101be0:	e0fffc17 	ldw	r3,-16(fp)
 4101be4:	1885883a 	add	r2,r3,r2
 4101be8:	10800017 	ldw	r2,0(r2)
 4101bec:	20800035 	stwio	r2,0(r4)
 4101bf0:	00000c06 	br	4101c24 <alt_up_audio_write_fifo+0xd0>
			else
				IOWR_ALT_UP_AUDIO_RIGHTDATA(audio->base, buf[count++]);
 4101bf4:	e0bffd17 	ldw	r2,-12(fp)
 4101bf8:	10800a17 	ldw	r2,40(r2)
 4101bfc:	10800304 	addi	r2,r2,12
 4101c00:	1009883a 	mov	r4,r2
 4101c04:	e0bfff17 	ldw	r2,-4(fp)
 4101c08:	10c00044 	addi	r3,r2,1
 4101c0c:	e0ffff15 	stw	r3,-4(fp)
 4101c10:	100490ba 	slli	r2,r2,2
 4101c14:	e0fffc17 	ldw	r3,-16(fp)
 4101c18:	1885883a 	add	r2,r3,r2
 4101c1c:	10800017 	ldw	r2,0(r2)
 4101c20:	20800035 	stwio	r2,0(r4)
	while ( count < len ) 
 4101c24:	e0ffff17 	ldw	r3,-4(fp)
 4101c28:	e0bffb17 	ldw	r2,-20(fp)
 4101c2c:	18bfd216 	blt	r3,r2,4101b78 <alt_up_audio_write_fifo+0x24>
 4101c30:	00000106 	br	4101c38 <alt_up_audio_write_fifo+0xe4>
		}
		else
		{
			// no more space to write
			break;
 4101c34:	0001883a 	nop
		}
	}
	return count;
 4101c38:	e0bfff17 	ldw	r2,-4(fp)
}
 4101c3c:	e037883a 	mov	sp,fp
 4101c40:	df000017 	ldw	fp,0(sp)
 4101c44:	dec00104 	addi	sp,sp,4
 4101c48:	f800283a 	ret

04101c4c <alt_up_audio_read_fifo_head>:

unsigned int alt_up_audio_read_fifo_head(alt_up_audio_dev *audio, int channel)
{
 4101c4c:	defffd04 	addi	sp,sp,-12
 4101c50:	df000215 	stw	fp,8(sp)
 4101c54:	df000204 	addi	fp,sp,8
 4101c58:	e13fff15 	stw	r4,-4(fp)
 4101c5c:	e17ffe15 	stw	r5,-8(fp)
	return ( (channel == ALT_UP_AUDIO_LEFT) ?  IORD_ALT_UP_AUDIO_LEFTDATA(audio->base) :
 4101c60:	e0bffe17 	ldw	r2,-8(fp)
 4101c64:	1000051e 	bne	r2,zero,4101c7c <alt_up_audio_read_fifo_head+0x30>
 4101c68:	e0bfff17 	ldw	r2,-4(fp)
 4101c6c:	10800a17 	ldw	r2,40(r2)
 4101c70:	10800204 	addi	r2,r2,8
 4101c74:	10800037 	ldwio	r2,0(r2)
 4101c78:	00000406 	br	4101c8c <alt_up_audio_read_fifo_head+0x40>
				IORD_ALT_UP_AUDIO_RIGHTDATA(audio->base) );
 4101c7c:	e0bfff17 	ldw	r2,-4(fp)
 4101c80:	10800a17 	ldw	r2,40(r2)
 4101c84:	10800304 	addi	r2,r2,12
 4101c88:	10800037 	ldwio	r2,0(r2)
}
 4101c8c:	e037883a 	mov	sp,fp
 4101c90:	df000017 	ldw	fp,0(sp)
 4101c94:	dec00104 	addi	sp,sp,4
 4101c98:	f800283a 	ret

04101c9c <alt_up_audio_write_fifo_head>:

void alt_up_audio_write_fifo_head(alt_up_audio_dev *audio, unsigned int data, int channel)
{
 4101c9c:	defffc04 	addi	sp,sp,-16
 4101ca0:	df000315 	stw	fp,12(sp)
 4101ca4:	df000304 	addi	fp,sp,12
 4101ca8:	e13fff15 	stw	r4,-4(fp)
 4101cac:	e17ffe15 	stw	r5,-8(fp)
 4101cb0:	e1bffd15 	stw	r6,-12(fp)
	if (channel == ALT_UP_AUDIO_LEFT) 
 4101cb4:	e0bffd17 	ldw	r2,-12(fp)
 4101cb8:	1000071e 	bne	r2,zero,4101cd8 <alt_up_audio_write_fifo_head+0x3c>
		IOWR_ALT_UP_AUDIO_LEFTDATA(audio->base, data);
 4101cbc:	e0bfff17 	ldw	r2,-4(fp)
 4101cc0:	10800a17 	ldw	r2,40(r2)
 4101cc4:	10800204 	addi	r2,r2,8
 4101cc8:	1007883a 	mov	r3,r2
 4101ccc:	e0bffe17 	ldw	r2,-8(fp)
 4101cd0:	18800035 	stwio	r2,0(r3)
	else
		IOWR_ALT_UP_AUDIO_RIGHTDATA(audio->base, data);
}
 4101cd4:	00000606 	br	4101cf0 <alt_up_audio_write_fifo_head+0x54>
		IOWR_ALT_UP_AUDIO_RIGHTDATA(audio->base, data);
 4101cd8:	e0bfff17 	ldw	r2,-4(fp)
 4101cdc:	10800a17 	ldw	r2,40(r2)
 4101ce0:	10800304 	addi	r2,r2,12
 4101ce4:	1007883a 	mov	r3,r2
 4101ce8:	e0bffe17 	ldw	r2,-8(fp)
 4101cec:	18800035 	stwio	r2,0(r3)
}
 4101cf0:	0001883a 	nop
 4101cf4:	e037883a 	mov	sp,fp
 4101cf8:	df000017 	ldw	fp,0(sp)
 4101cfc:	dec00104 	addi	sp,sp,4
 4101d00:	f800283a 	ret

04101d04 <alt_get_errno>:
#undef errno

extern int errno;

static ALT_INLINE int* alt_get_errno(void)
{
 4101d04:	defffe04 	addi	sp,sp,-8
 4101d08:	dfc00115 	stw	ra,4(sp)
 4101d0c:	df000015 	stw	fp,0(sp)
 4101d10:	d839883a 	mov	fp,sp
  return ((alt_errno) ? alt_errno() : &errno);
 4101d14:	d0a00817 	ldw	r2,-32736(gp)
 4101d18:	10000326 	beq	r2,zero,4101d28 <alt_get_errno+0x24>
 4101d1c:	d0a00817 	ldw	r2,-32736(gp)
 4101d20:	103ee83a 	callr	r2
 4101d24:	00000106 	br	4101d2c <alt_get_errno+0x28>
 4101d28:	d0a1d404 	addi	r2,gp,-30896
}
 4101d2c:	e037883a 	mov	sp,fp
 4101d30:	dfc00117 	ldw	ra,4(sp)
 4101d34:	df000017 	ldw	fp,0(sp)
 4101d38:	dec00204 	addi	sp,sp,8
 4101d3c:	f800283a 	ret

04101d40 <close>:
 *
 * ALT_CLOSE is mapped onto the close() system call in alt_syscall.h
 */
 
int ALT_CLOSE (int fildes)
{
 4101d40:	defffb04 	addi	sp,sp,-20
 4101d44:	dfc00415 	stw	ra,16(sp)
 4101d48:	df000315 	stw	fp,12(sp)
 4101d4c:	df000304 	addi	fp,sp,12
 4101d50:	e13ffd15 	stw	r4,-12(fp)
   * A common error case is that when the file descriptor was created, the call
   * to open() failed resulting in a negative file descriptor. This is trapped
   * below so that we don't try and process an invalid file descriptor.
   */

  fd = (fildes < 0) ? NULL : &alt_fd_list[fildes];
 4101d54:	e0bffd17 	ldw	r2,-12(fp)
 4101d58:	10000916 	blt	r2,zero,4101d80 <close+0x40>
 4101d5c:	e0fffd17 	ldw	r3,-12(fp)
 4101d60:	1805883a 	mov	r2,r3
 4101d64:	1085883a 	add	r2,r2,r2
 4101d68:	10c5883a 	add	r2,r2,r3
 4101d6c:	100490ba 	slli	r2,r2,2
 4101d70:	00c10434 	movhi	r3,1040
 4101d74:	18ca2004 	addi	r3,r3,10368
 4101d78:	10c5883a 	add	r2,r2,r3
 4101d7c:	00000106 	br	4101d84 <close+0x44>
 4101d80:	0005883a 	mov	r2,zero
 4101d84:	e0bfff15 	stw	r2,-4(fp)

  if (fd)
 4101d88:	e0bfff17 	ldw	r2,-4(fp)
 4101d8c:	10001926 	beq	r2,zero,4101df4 <close+0xb4>
    /*
     * If the associated file system/device has a close function, call it so 
     * that any necessary cleanup code can run.
     */

    rval = (fd->dev->close) ? fd->dev->close(fd) : 0;
 4101d90:	e0bfff17 	ldw	r2,-4(fp)
 4101d94:	10800017 	ldw	r2,0(r2)
 4101d98:	10800417 	ldw	r2,16(r2)
 4101d9c:	10000626 	beq	r2,zero,4101db8 <close+0x78>
 4101da0:	e0bfff17 	ldw	r2,-4(fp)
 4101da4:	10800017 	ldw	r2,0(r2)
 4101da8:	10800417 	ldw	r2,16(r2)
 4101dac:	e13fff17 	ldw	r4,-4(fp)
 4101db0:	103ee83a 	callr	r2
 4101db4:	00000106 	br	4101dbc <close+0x7c>
 4101db8:	0005883a 	mov	r2,zero
 4101dbc:	e0bffe15 	stw	r2,-8(fp)

    /* Free the file descriptor structure and return. */

    alt_release_fd (fildes);
 4101dc0:	e13ffd17 	ldw	r4,-12(fp)
 4101dc4:	41020c40 	call	41020c4 <alt_release_fd>
    if (rval < 0)
 4101dc8:	e0bffe17 	ldw	r2,-8(fp)
 4101dcc:	1000070e 	bge	r2,zero,4101dec <close+0xac>
    {
      ALT_ERRNO = -rval;
 4101dd0:	4101d040 	call	4101d04 <alt_get_errno>
 4101dd4:	1007883a 	mov	r3,r2
 4101dd8:	e0bffe17 	ldw	r2,-8(fp)
 4101ddc:	0085c83a 	sub	r2,zero,r2
 4101de0:	18800015 	stw	r2,0(r3)
      return -1;
 4101de4:	00bfffc4 	movi	r2,-1
 4101de8:	00000706 	br	4101e08 <close+0xc8>
    }
    return 0;
 4101dec:	0005883a 	mov	r2,zero
 4101df0:	00000506 	br	4101e08 <close+0xc8>
  }
  else
  {
    ALT_ERRNO = EBADFD;
 4101df4:	4101d040 	call	4101d04 <alt_get_errno>
 4101df8:	1007883a 	mov	r3,r2
 4101dfc:	00801444 	movi	r2,81
 4101e00:	18800015 	stw	r2,0(r3)
    return -1;
 4101e04:	00bfffc4 	movi	r2,-1
  }
}
 4101e08:	e037883a 	mov	sp,fp
 4101e0c:	dfc00117 	ldw	ra,4(sp)
 4101e10:	df000017 	ldw	fp,0(sp)
 4101e14:	dec00204 	addi	sp,sp,8
 4101e18:	f800283a 	ret

04101e1c <alt_dcache_flush_all>:
/*
 * alt_dcache_flush_all() is called to flush the entire data cache.
 */

void alt_dcache_flush_all (void)
{
 4101e1c:	deffff04 	addi	sp,sp,-4
 4101e20:	df000015 	stw	fp,0(sp)
 4101e24:	d839883a 	mov	fp,sp
  for (i = (char*) 0; i < (char*) NIOS2_DCACHE_SIZE; i+= NIOS2_DCACHE_LINE_SIZE)
  { 
    __asm__ volatile ("flushd (%0)" :: "r" (i));
  }
#endif /* NIOS2_DCACHE_SIZE > 0 */
}
 4101e28:	0001883a 	nop
 4101e2c:	e037883a 	mov	sp,fp
 4101e30:	df000017 	ldw	fp,0(sp)
 4101e34:	dec00104 	addi	sp,sp,4
 4101e38:	f800283a 	ret

04101e3c <alt_dev_null_write>:
 * by the alt_dev_null device. It simple discards all data passed to it, and
 * indicates that the data has been successfully transmitted.
 */

static int alt_dev_null_write (alt_fd* fd, const char* ptr, int len)
{
 4101e3c:	defffc04 	addi	sp,sp,-16
 4101e40:	df000315 	stw	fp,12(sp)
 4101e44:	df000304 	addi	fp,sp,12
 4101e48:	e13fff15 	stw	r4,-4(fp)
 4101e4c:	e17ffe15 	stw	r5,-8(fp)
 4101e50:	e1bffd15 	stw	r6,-12(fp)
  return len;
 4101e54:	e0bffd17 	ldw	r2,-12(fp)
}
 4101e58:	e037883a 	mov	sp,fp
 4101e5c:	df000017 	ldw	fp,0(sp)
 4101e60:	dec00104 	addi	sp,sp,4
 4101e64:	f800283a 	ret

04101e68 <alt_get_errno>:
{
 4101e68:	defffe04 	addi	sp,sp,-8
 4101e6c:	dfc00115 	stw	ra,4(sp)
 4101e70:	df000015 	stw	fp,0(sp)
 4101e74:	d839883a 	mov	fp,sp
  return ((alt_errno) ? alt_errno() : &errno);
 4101e78:	d0a00817 	ldw	r2,-32736(gp)
 4101e7c:	10000326 	beq	r2,zero,4101e8c <alt_get_errno+0x24>
 4101e80:	d0a00817 	ldw	r2,-32736(gp)
 4101e84:	103ee83a 	callr	r2
 4101e88:	00000106 	br	4101e90 <alt_get_errno+0x28>
 4101e8c:	d0a1d404 	addi	r2,gp,-30896
}
 4101e90:	e037883a 	mov	sp,fp
 4101e94:	dfc00117 	ldw	ra,4(sp)
 4101e98:	df000017 	ldw	fp,0(sp)
 4101e9c:	dec00204 	addi	sp,sp,8
 4101ea0:	f800283a 	ret

04101ea4 <alt_dev_llist_insert>:
/*
 *
 */

int alt_dev_llist_insert (alt_dev_llist* dev, alt_llist* list)
{
 4101ea4:	defffa04 	addi	sp,sp,-24
 4101ea8:	dfc00515 	stw	ra,20(sp)
 4101eac:	df000415 	stw	fp,16(sp)
 4101eb0:	df000404 	addi	fp,sp,16
 4101eb4:	e13ffd15 	stw	r4,-12(fp)
 4101eb8:	e17ffc15 	stw	r5,-16(fp)
  /*
   * check that the device exists, and that it has a valid name.
   */

  if (!dev || !dev->name)
 4101ebc:	e0bffd17 	ldw	r2,-12(fp)
 4101ec0:	10000326 	beq	r2,zero,4101ed0 <alt_dev_llist_insert+0x2c>
 4101ec4:	e0bffd17 	ldw	r2,-12(fp)
 4101ec8:	10800217 	ldw	r2,8(r2)
 4101ecc:	1000061e 	bne	r2,zero,4101ee8 <alt_dev_llist_insert+0x44>
  {
    ALT_ERRNO = EINVAL;
 4101ed0:	4101e680 	call	4101e68 <alt_get_errno>
 4101ed4:	1007883a 	mov	r3,r2
 4101ed8:	00800584 	movi	r2,22
 4101edc:	18800015 	stw	r2,0(r3)
    return -EINVAL;
 4101ee0:	00bffa84 	movi	r2,-22
 4101ee4:	00001406 	br	4101f38 <alt_dev_llist_insert+0x94>
  
  /*
   * register the device.
   */
  
  alt_llist_insert(list, &dev->llist);
 4101ee8:	e0bffd17 	ldw	r2,-12(fp)
 4101eec:	e0fffc17 	ldw	r3,-16(fp)
 4101ef0:	e0ffff15 	stw	r3,-4(fp)
 4101ef4:	e0bffe15 	stw	r2,-8(fp)
 */

static ALT_INLINE void ALT_ALWAYS_INLINE alt_llist_insert(alt_llist* list, 
                alt_llist* entry)
{
  entry->previous = list;
 4101ef8:	e0bffe17 	ldw	r2,-8(fp)
 4101efc:	e0ffff17 	ldw	r3,-4(fp)
 4101f00:	10c00115 	stw	r3,4(r2)
  entry->next     = list->next;
 4101f04:	e0bfff17 	ldw	r2,-4(fp)
 4101f08:	10c00017 	ldw	r3,0(r2)
 4101f0c:	e0bffe17 	ldw	r2,-8(fp)
 4101f10:	10c00015 	stw	r3,0(r2)

  list->next->previous = entry;
 4101f14:	e0bfff17 	ldw	r2,-4(fp)
 4101f18:	10800017 	ldw	r2,0(r2)
 4101f1c:	e0fffe17 	ldw	r3,-8(fp)
 4101f20:	10c00115 	stw	r3,4(r2)
  list->next           = entry;
 4101f24:	e0bfff17 	ldw	r2,-4(fp)
 4101f28:	e0fffe17 	ldw	r3,-8(fp)
 4101f2c:	10c00015 	stw	r3,0(r2)
}
 4101f30:	0001883a 	nop

  return 0;  
 4101f34:	0005883a 	mov	r2,zero
}
 4101f38:	e037883a 	mov	sp,fp
 4101f3c:	dfc00117 	ldw	ra,4(sp)
 4101f40:	df000017 	ldw	fp,0(sp)
 4101f44:	dec00204 	addi	sp,sp,8
 4101f48:	f800283a 	ret

04101f4c <_do_ctors>:
/*
 * Run the C++ static constructors.
 */

void _do_ctors(void)
{
 4101f4c:	defffd04 	addi	sp,sp,-12
 4101f50:	dfc00215 	stw	ra,8(sp)
 4101f54:	df000115 	stw	fp,4(sp)
 4101f58:	df000104 	addi	fp,sp,4
  constructor* ctor;

  for (ctor = &__CTOR_END__[-1]; ctor >= __CTOR_LIST__; ctor--)
 4101f5c:	00810434 	movhi	r2,1040
 4101f60:	1089b604 	addi	r2,r2,9944
 4101f64:	e0bfff15 	stw	r2,-4(fp)
 4101f68:	00000606 	br	4101f84 <_do_ctors+0x38>
        (*ctor) (); 
 4101f6c:	e0bfff17 	ldw	r2,-4(fp)
 4101f70:	10800017 	ldw	r2,0(r2)
 4101f74:	103ee83a 	callr	r2
  for (ctor = &__CTOR_END__[-1]; ctor >= __CTOR_LIST__; ctor--)
 4101f78:	e0bfff17 	ldw	r2,-4(fp)
 4101f7c:	10bfff04 	addi	r2,r2,-4
 4101f80:	e0bfff15 	stw	r2,-4(fp)
 4101f84:	e0ffff17 	ldw	r3,-4(fp)
 4101f88:	00810434 	movhi	r2,1040
 4101f8c:	1089b704 	addi	r2,r2,9948
 4101f90:	18bff62e 	bgeu	r3,r2,4101f6c <_do_ctors+0x20>
}
 4101f94:	0001883a 	nop
 4101f98:	0001883a 	nop
 4101f9c:	e037883a 	mov	sp,fp
 4101fa0:	dfc00117 	ldw	ra,4(sp)
 4101fa4:	df000017 	ldw	fp,0(sp)
 4101fa8:	dec00204 	addi	sp,sp,8
 4101fac:	f800283a 	ret

04101fb0 <_do_dtors>:
/*
 * Run the C++ static destructors.
 */

void _do_dtors(void)
{
 4101fb0:	defffd04 	addi	sp,sp,-12
 4101fb4:	dfc00215 	stw	ra,8(sp)
 4101fb8:	df000115 	stw	fp,4(sp)
 4101fbc:	df000104 	addi	fp,sp,4
  destructor* dtor;

  for (dtor = &__DTOR_END__[-1]; dtor >= __DTOR_LIST__; dtor--)
 4101fc0:	00810434 	movhi	r2,1040
 4101fc4:	1089b604 	addi	r2,r2,9944
 4101fc8:	e0bfff15 	stw	r2,-4(fp)
 4101fcc:	00000606 	br	4101fe8 <_do_dtors+0x38>
        (*dtor) (); 
 4101fd0:	e0bfff17 	ldw	r2,-4(fp)
 4101fd4:	10800017 	ldw	r2,0(r2)
 4101fd8:	103ee83a 	callr	r2
  for (dtor = &__DTOR_END__[-1]; dtor >= __DTOR_LIST__; dtor--)
 4101fdc:	e0bfff17 	ldw	r2,-4(fp)
 4101fe0:	10bfff04 	addi	r2,r2,-4
 4101fe4:	e0bfff15 	stw	r2,-4(fp)
 4101fe8:	e0ffff17 	ldw	r3,-4(fp)
 4101fec:	00810434 	movhi	r2,1040
 4101ff0:	1089b704 	addi	r2,r2,9948
 4101ff4:	18bff62e 	bgeu	r3,r2,4101fd0 <_do_dtors+0x20>
}
 4101ff8:	0001883a 	nop
 4101ffc:	0001883a 	nop
 4102000:	e037883a 	mov	sp,fp
 4102004:	dfc00117 	ldw	ra,4(sp)
 4102008:	df000017 	ldw	fp,0(sp)
 410200c:	dec00204 	addi	sp,sp,8
 4102010:	f800283a 	ret

04102014 <alt_find_dev>:
 * "name" must be an exact match for the devices registered name for a match to
 * be found.
 */
 
alt_dev* alt_find_dev(const char* name, alt_llist* llist)
{
 4102014:	defffa04 	addi	sp,sp,-24
 4102018:	dfc00515 	stw	ra,20(sp)
 410201c:	df000415 	stw	fp,16(sp)
 4102020:	df000404 	addi	fp,sp,16
 4102024:	e13ffd15 	stw	r4,-12(fp)
 4102028:	e17ffc15 	stw	r5,-16(fp)
  alt_dev* next = (alt_dev*) llist->next;
 410202c:	e0bffc17 	ldw	r2,-16(fp)
 4102030:	10800017 	ldw	r2,0(r2)
 4102034:	e0bfff15 	stw	r2,-4(fp)
  alt_32 len;

  len  = strlen(name) + 1;
 4102038:	e13ffd17 	ldw	r4,-12(fp)
 410203c:	410245c0 	call	410245c <strlen>
 4102040:	10800044 	addi	r2,r2,1
 4102044:	e0bffe15 	stw	r2,-8(fp)
  /*
   * Check each list entry in turn, until a match is found, or we reach the
   * end of the list (i.e. next winds up pointing back to the list head).
   */ 

  while (next != (alt_dev*) llist)
 4102048:	00000d06 	br	4102080 <alt_find_dev+0x6c>
    /* 
     * memcmp() is used here rather than strcmp() in order to reduce the size
     * of the executable.
     */

    if (!memcmp (next->name, name, len))
 410204c:	e0bfff17 	ldw	r2,-4(fp)
 4102050:	10800217 	ldw	r2,8(r2)
 4102054:	e0fffe17 	ldw	r3,-8(fp)
 4102058:	180d883a 	mov	r6,r3
 410205c:	e17ffd17 	ldw	r5,-12(fp)
 4102060:	1009883a 	mov	r4,r2
 4102064:	41023e40 	call	41023e4 <memcmp>
 4102068:	1000021e 	bne	r2,zero,4102074 <alt_find_dev+0x60>
    {
      /* match found */

      return next;
 410206c:	e0bfff17 	ldw	r2,-4(fp)
 4102070:	00000706 	br	4102090 <alt_find_dev+0x7c>
    }
    next = (alt_dev*) next->llist.next;
 4102074:	e0bfff17 	ldw	r2,-4(fp)
 4102078:	10800017 	ldw	r2,0(r2)
 410207c:	e0bfff15 	stw	r2,-4(fp)
  while (next != (alt_dev*) llist)
 4102080:	e0ffff17 	ldw	r3,-4(fp)
 4102084:	e0bffc17 	ldw	r2,-16(fp)
 4102088:	18bff01e 	bne	r3,r2,410204c <alt_find_dev+0x38>
  }
  
  /* No match found */
  
  return NULL;
 410208c:	0005883a 	mov	r2,zero
}
 4102090:	e037883a 	mov	sp,fp
 4102094:	dfc00117 	ldw	ra,4(sp)
 4102098:	df000017 	ldw	fp,0(sp)
 410209c:	dec00204 	addi	sp,sp,8
 41020a0:	f800283a 	ret

041020a4 <alt_icache_flush_all>:
/*
 * alt_icache_flush_all() is called to flush the entire instruction cache.
 */

void alt_icache_flush_all (void)
{
 41020a4:	deffff04 	addi	sp,sp,-4
 41020a8:	df000015 	stw	fp,0(sp)
 41020ac:	d839883a 	mov	fp,sp
#if NIOS2_ICACHE_SIZE > 0
  alt_icache_flush (0, NIOS2_ICACHE_SIZE);
#endif
}
 41020b0:	0001883a 	nop
 41020b4:	e037883a 	mov	sp,fp
 41020b8:	df000017 	ldw	fp,0(sp)
 41020bc:	dec00104 	addi	sp,sp,4
 41020c0:	f800283a 	ret

041020c4 <alt_release_fd>:
 * File descriptors correcponding to standard in, standard out and standard 
 * error cannont be released backed to the pool. They are always reserved.
 */

void alt_release_fd (int fd)
{
 41020c4:	defffe04 	addi	sp,sp,-8
 41020c8:	df000115 	stw	fp,4(sp)
 41020cc:	df000104 	addi	fp,sp,4
 41020d0:	e13fff15 	stw	r4,-4(fp)
  if (fd > 2)
 41020d4:	e0bfff17 	ldw	r2,-4(fp)
 41020d8:	108000d0 	cmplti	r2,r2,3
 41020dc:	1000101e 	bne	r2,zero,4102120 <alt_release_fd+0x5c>
  {
    alt_fd_list[fd].fd_flags = 0;
 41020e0:	e0ffff17 	ldw	r3,-4(fp)
 41020e4:	1805883a 	mov	r2,r3
 41020e8:	1085883a 	add	r2,r2,r2
 41020ec:	10c5883a 	add	r2,r2,r3
 41020f0:	100490ba 	slli	r2,r2,2
 41020f4:	00c10434 	movhi	r3,1040
 41020f8:	10c7883a 	add	r3,r2,r3
 41020fc:	180a2215 	stw	zero,10376(r3)
    alt_fd_list[fd].dev      = 0;
 4102100:	e0ffff17 	ldw	r3,-4(fp)
 4102104:	1805883a 	mov	r2,r3
 4102108:	1085883a 	add	r2,r2,r2
 410210c:	10c5883a 	add	r2,r2,r3
 4102110:	100490ba 	slli	r2,r2,2
 4102114:	00c10434 	movhi	r3,1040
 4102118:	10c7883a 	add	r3,r2,r3
 410211c:	180a2015 	stw	zero,10368(r3)
  }
}
 4102120:	0001883a 	nop
 4102124:	e037883a 	mov	sp,fp
 4102128:	df000017 	ldw	fp,0(sp)
 410212c:	dec00104 	addi	sp,sp,4
 4102130:	f800283a 	ret

04102134 <alt_alarm_stop>:
 * alarms. Alternatively an alarm can unregister itself by returning zero when 
 * the alarm executes.
 */

void alt_alarm_stop (alt_alarm* alarm)
{
 4102134:	defffa04 	addi	sp,sp,-24
 4102138:	df000515 	stw	fp,20(sp)
 410213c:	df000504 	addi	fp,sp,20
 4102140:	e13ffb15 	stw	r4,-20(fp)
  NIOS2_READ_STATUS (context);
 4102144:	0005303a 	rdctl	r2,status
 4102148:	e0bffc15 	stw	r2,-16(fp)
  NIOS2_WRITE_STATUS (context & ~NIOS2_STATUS_PIE_MSK);
 410214c:	e0fffc17 	ldw	r3,-16(fp)
 4102150:	00bfff84 	movi	r2,-2
 4102154:	1884703a 	and	r2,r3,r2
 4102158:	1001703a 	wrctl	status,r2
  return context;
 410215c:	e0bffc17 	ldw	r2,-16(fp)
  alt_irq_context irq_context;

  irq_context = alt_irq_disable_all();
 4102160:	e0bfff15 	stw	r2,-4(fp)
  alt_llist_remove (&alarm->llist);
 4102164:	e0bffb17 	ldw	r2,-20(fp)
 4102168:	e0bffd15 	stw	r2,-12(fp)
 * input argument is the element to remove.
 */
     
static ALT_INLINE void ALT_ALWAYS_INLINE alt_llist_remove(alt_llist* entry)
{
  entry->next->previous = entry->previous;
 410216c:	e0bffd17 	ldw	r2,-12(fp)
 4102170:	10800017 	ldw	r2,0(r2)
 4102174:	e0fffd17 	ldw	r3,-12(fp)
 4102178:	18c00117 	ldw	r3,4(r3)
 410217c:	10c00115 	stw	r3,4(r2)
  entry->previous->next = entry->next;
 4102180:	e0bffd17 	ldw	r2,-12(fp)
 4102184:	10800117 	ldw	r2,4(r2)
 4102188:	e0fffd17 	ldw	r3,-12(fp)
 410218c:	18c00017 	ldw	r3,0(r3)
 4102190:	10c00015 	stw	r3,0(r2)
  /* 
   * Set the entry to point to itself, so that any further calls to
   * alt_llist_remove() are harmless.
   */

  entry->previous = entry;
 4102194:	e0bffd17 	ldw	r2,-12(fp)
 4102198:	e0fffd17 	ldw	r3,-12(fp)
 410219c:	10c00115 	stw	r3,4(r2)
  entry->next     = entry;
 41021a0:	e0bffd17 	ldw	r2,-12(fp)
 41021a4:	e0fffd17 	ldw	r3,-12(fp)
 41021a8:	10c00015 	stw	r3,0(r2)
} 
 41021ac:	0001883a 	nop
 41021b0:	e0bfff17 	ldw	r2,-4(fp)
 41021b4:	e0bffe15 	stw	r2,-8(fp)
  NIOS2_WRITE_STATUS (context);
 41021b8:	e0bffe17 	ldw	r2,-8(fp)
 41021bc:	1001703a 	wrctl	status,r2
}
 41021c0:	0001883a 	nop
  alt_irq_enable_all (irq_context);
}
 41021c4:	0001883a 	nop
 41021c8:	e037883a 	mov	sp,fp
 41021cc:	df000017 	ldw	fp,0(sp)
 41021d0:	dec00104 	addi	sp,sp,4
 41021d4:	f800283a 	ret

041021d8 <alt_tick>:
 * 
 * alt_tick() is expected to run at interrupt level.
 */

void alt_tick (void)
{
 41021d8:	defffb04 	addi	sp,sp,-20
 41021dc:	dfc00415 	stw	ra,16(sp)
 41021e0:	df000315 	stw	fp,12(sp)
 41021e4:	df000304 	addi	fp,sp,12
  alt_alarm* next;
  alt_alarm* alarm = (alt_alarm*) alt_alarm_list.next;
 41021e8:	d0a00917 	ldw	r2,-32732(gp)
 41021ec:	e0bfff15 	stw	r2,-4(fp)

  alt_u32    next_callback;

  /* update the tick counter */

  _alt_nticks++;
 41021f0:	d0a1d217 	ldw	r2,-30904(gp)
 41021f4:	10800044 	addi	r2,r2,1
 41021f8:	d0a1d215 	stw	r2,-30904(gp)

  /* process the registered callbacks */

  while (alarm != (alt_alarm*) &alt_alarm_list)
 41021fc:	00002e06 	br	41022b8 <alt_tick+0xe0>
  {
    next = (alt_alarm*) alarm->llist.next;
 4102200:	e0bfff17 	ldw	r2,-4(fp)
 4102204:	10800017 	ldw	r2,0(r2)
 4102208:	e0bffe15 	stw	r2,-8(fp)
    /* 
     * Upon the tick-counter rolling over it is safe to clear the 
     * roll-over flag; once the flag is cleared this (or subsequnt)
     * tick events are enabled to generate an alarm event. 
     */
    if ((alarm->rollover) && (_alt_nticks == 0))
 410220c:	e0bfff17 	ldw	r2,-4(fp)
 4102210:	10800403 	ldbu	r2,16(r2)
 4102214:	10803fcc 	andi	r2,r2,255
 4102218:	10000426 	beq	r2,zero,410222c <alt_tick+0x54>
 410221c:	d0a1d217 	ldw	r2,-30904(gp)
 4102220:	1000021e 	bne	r2,zero,410222c <alt_tick+0x54>
    {
      alarm->rollover = 0;
 4102224:	e0bfff17 	ldw	r2,-4(fp)
 4102228:	10000405 	stb	zero,16(r2)
    }
    
    /* if the alarm period has expired, make the callback */    
    if ((alarm->time <= _alt_nticks) && (alarm->rollover == 0))
 410222c:	e0bfff17 	ldw	r2,-4(fp)
 4102230:	10800217 	ldw	r2,8(r2)
 4102234:	d0e1d217 	ldw	r3,-30904(gp)
 4102238:	18801d36 	bltu	r3,r2,41022b0 <alt_tick+0xd8>
 410223c:	e0bfff17 	ldw	r2,-4(fp)
 4102240:	10800403 	ldbu	r2,16(r2)
 4102244:	10803fcc 	andi	r2,r2,255
 4102248:	1000191e 	bne	r2,zero,41022b0 <alt_tick+0xd8>
    {
      next_callback = alarm->callback (alarm->context);
 410224c:	e0bfff17 	ldw	r2,-4(fp)
 4102250:	10800317 	ldw	r2,12(r2)
 4102254:	e0ffff17 	ldw	r3,-4(fp)
 4102258:	18c00517 	ldw	r3,20(r3)
 410225c:	1809883a 	mov	r4,r3
 4102260:	103ee83a 	callr	r2
 4102264:	e0bffd15 	stw	r2,-12(fp)

      /* deactivate the alarm if the return value is zero */

      if (next_callback == 0)
 4102268:	e0bffd17 	ldw	r2,-12(fp)
 410226c:	1000031e 	bne	r2,zero,410227c <alt_tick+0xa4>
      {
        alt_alarm_stop (alarm);
 4102270:	e13fff17 	ldw	r4,-4(fp)
 4102274:	41021340 	call	4102134 <alt_alarm_stop>
 4102278:	00000d06 	br	41022b0 <alt_tick+0xd8>
      }
      else
      {
        alarm->time += next_callback;
 410227c:	e0bfff17 	ldw	r2,-4(fp)
 4102280:	10c00217 	ldw	r3,8(r2)
 4102284:	e0bffd17 	ldw	r2,-12(fp)
 4102288:	1887883a 	add	r3,r3,r2
 410228c:	e0bfff17 	ldw	r2,-4(fp)
 4102290:	10c00215 	stw	r3,8(r2)
        /* 
         * If the desired alarm time causes a roll-over, set the rollover
         * flag. This will prevent the subsequent tick event from causing
         * an alarm too early.
         */
        if(alarm->time < _alt_nticks)
 4102294:	e0bfff17 	ldw	r2,-4(fp)
 4102298:	10c00217 	ldw	r3,8(r2)
 410229c:	d0a1d217 	ldw	r2,-30904(gp)
 41022a0:	1880032e 	bgeu	r3,r2,41022b0 <alt_tick+0xd8>
        {
          alarm->rollover = 1;
 41022a4:	e0bfff17 	ldw	r2,-4(fp)
 41022a8:	00c00044 	movi	r3,1
 41022ac:	10c00405 	stb	r3,16(r2)
        }
      }
    }
    alarm = next;
 41022b0:	e0bffe17 	ldw	r2,-8(fp)
 41022b4:	e0bfff15 	stw	r2,-4(fp)
  while (alarm != (alt_alarm*) &alt_alarm_list)
 41022b8:	e0ffff17 	ldw	r3,-4(fp)
 41022bc:	d0a00904 	addi	r2,gp,-32732
 41022c0:	18bfcf1e 	bne	r3,r2,4102200 <alt_tick+0x28>

  /* 
   * Update the operating system specific timer facilities.
   */

  ALT_OS_TIME_TICK();
 41022c4:	0001883a 	nop
}
 41022c8:	0001883a 	nop
 41022cc:	e037883a 	mov	sp,fp
 41022d0:	dfc00117 	ldw	ra,4(sp)
 41022d4:	df000017 	ldw	fp,0(sp)
 41022d8:	dec00204 	addi	sp,sp,8
 41022dc:	f800283a 	ret

041022e0 <altera_nios2_gen2_irq_init>:
/*
 * To initialize the internal interrupt controller, just clear the IENABLE
 * register so that all possible IRQs are disabled.
 */
void altera_nios2_gen2_irq_init(void) 
{
 41022e0:	deffff04 	addi	sp,sp,-4
 41022e4:	df000015 	stw	fp,0(sp)
 41022e8:	d839883a 	mov	fp,sp
    NIOS2_WRITE_IENABLE(0);
 41022ec:	000170fa 	wrctl	ienable,zero
}
 41022f0:	0001883a 	nop
 41022f4:	e037883a 	mov	sp,fp
 41022f8:	df000017 	ldw	fp,0(sp)
 41022fc:	dec00104 	addi	sp,sp,4
 4102300:	f800283a 	ret

04102304 <alt_exception_cause_generated_bad_addr>:
 * Return: 1: BADADDR (bad_addr argument to handler) is valid
 *         0: BADADDR is not valid
 */
int 
alt_exception_cause_generated_bad_addr(alt_exception_cause cause)
{
 4102304:	defffe04 	addi	sp,sp,-8
 4102308:	df000115 	stw	fp,4(sp)
 410230c:	df000104 	addi	fp,sp,4
 4102310:	e13fff15 	stw	r4,-4(fp)
 4102314:	e0bfff17 	ldw	r2,-4(fp)
 4102318:	10bffe84 	addi	r2,r2,-6
 410231c:	10c00428 	cmpgeui	r3,r2,16
 4102320:	1800191e 	bne	r3,zero,4102388 <alt_exception_cause_generated_bad_addr+0x84>
 4102324:	100690ba 	slli	r3,r2,2
 4102328:	00810434 	movhi	r2,1040
 410232c:	1885883a 	add	r2,r3,r2
 4102330:	1088ce17 	ldw	r2,9016(r2)
 4102334:	1000683a 	jmp	r2
 4102338:	04102378 	rdprs	r16,zero,16525
 410233c:	04102378 	rdprs	r16,zero,16525
 4102340:	04102388 	cmpgei	r16,zero,16526
 4102344:	04102388 	cmpgei	r16,zero,16526
 4102348:	04102388 	cmpgei	r16,zero,16526
 410234c:	04102378 	rdprs	r16,zero,16525
 4102350:	04102380 	call	410238 <__alt_mem_sdram_controller_0-0x3befdc8>
 4102354:	04102388 	cmpgei	r16,zero,16526
 4102358:	04102378 	rdprs	r16,zero,16525
 410235c:	04102378 	rdprs	r16,zero,16525
 4102360:	04102388 	cmpgei	r16,zero,16526
 4102364:	04102378 	rdprs	r16,zero,16525
 4102368:	04102380 	call	410238 <__alt_mem_sdram_controller_0-0x3befdc8>
 410236c:	04102388 	cmpgei	r16,zero,16526
 4102370:	04102388 	cmpgei	r16,zero,16526
 4102374:	04102378 	rdprs	r16,zero,16525
  case NIOS2_EXCEPTION_MISALIGNED_TARGET_PC:
  case NIOS2_EXCEPTION_TLB_READ_PERM_VIOLATION:
  case NIOS2_EXCEPTION_TLB_WRITE_PERM_VIOLATION:
  case NIOS2_EXCEPTION_MPU_DATA_REGION_VIOLATION:
  case NIOS2_EXCEPTION_ECC_DATA_ERR:
    return 1;
 4102378:	00800044 	movi	r2,1
 410237c:	00000306 	br	410238c <alt_exception_cause_generated_bad_addr+0x88>

  case NIOS2_EXCEPTION_TLB_MISS:
  case NIOS2_EXCEPTION_ECC_TLB_ERR:
    return 0;
 4102380:	0005883a 	mov	r2,zero
 4102384:	00000106 	br	410238c <alt_exception_cause_generated_bad_addr+0x88>

  default:
    return 0;
 4102388:	0005883a 	mov	r2,zero
  }
}
 410238c:	e037883a 	mov	sp,fp
 4102390:	df000017 	ldw	fp,0(sp)
 4102394:	dec00104 	addi	sp,sp,4
 4102398:	f800283a 	ret

0410239c <atexit>:
 410239c:	200b883a 	mov	r5,r4
 41023a0:	000f883a 	mov	r7,zero
 41023a4:	000d883a 	mov	r6,zero
 41023a8:	0009883a 	mov	r4,zero
 41023ac:	41024f41 	jmpi	41024f4 <__register_exitproc>

041023b0 <exit>:
 41023b0:	defffe04 	addi	sp,sp,-8
 41023b4:	000b883a 	mov	r5,zero
 41023b8:	dc000015 	stw	r16,0(sp)
 41023bc:	dfc00115 	stw	ra,4(sp)
 41023c0:	2021883a 	mov	r16,r4
 41023c4:	41025840 	call	4102584 <__call_exitprocs>
 41023c8:	00810434 	movhi	r2,1040
 41023cc:	110b9417 	ldw	r4,11856(r2)
 41023d0:	20800f17 	ldw	r2,60(r4)
 41023d4:	10000126 	beq	r2,zero,41023dc <exit+0x2c>
 41023d8:	103ee83a 	callr	r2
 41023dc:	8009883a 	mov	r4,r16
 41023e0:	41026a40 	call	41026a4 <_exit>

041023e4 <memcmp>:
 41023e4:	30800130 	cmpltui	r2,r6,4
 41023e8:	10000b1e 	bne	r2,zero,4102418 <memcmp+0x34>
 41023ec:	2144b03a 	or	r2,r4,r5
 41023f0:	108000cc 	andi	r2,r2,3
 41023f4:	1000171e 	bne	r2,zero,4102454 <memcmp+0x70>
 41023f8:	20c00017 	ldw	r3,0(r4)
 41023fc:	28800017 	ldw	r2,0(r5)
 4102400:	1880141e 	bne	r3,r2,4102454 <memcmp+0x70>
 4102404:	31bfff04 	addi	r6,r6,-4
 4102408:	30800128 	cmpgeui	r2,r6,4
 410240c:	21000104 	addi	r4,r4,4
 4102410:	29400104 	addi	r5,r5,4
 4102414:	103ff81e 	bne	r2,zero,41023f8 <memcmp+0x14>
 4102418:	30bfffc4 	addi	r2,r6,-1
 410241c:	30000b26 	beq	r6,zero,410244c <memcmp+0x68>
 4102420:	11800044 	addi	r6,r2,1
 4102424:	298d883a 	add	r6,r5,r6
 4102428:	00000106 	br	4102430 <memcmp+0x4c>
 410242c:	29800726 	beq	r5,r6,410244c <memcmp+0x68>
 4102430:	20800003 	ldbu	r2,0(r4)
 4102434:	28c00003 	ldbu	r3,0(r5)
 4102438:	21000044 	addi	r4,r4,1
 410243c:	29400044 	addi	r5,r5,1
 4102440:	10fffa26 	beq	r2,r3,410242c <memcmp+0x48>
 4102444:	10c5c83a 	sub	r2,r2,r3
 4102448:	f800283a 	ret
 410244c:	0005883a 	mov	r2,zero
 4102450:	f800283a 	ret
 4102454:	30bfffc4 	addi	r2,r6,-1
 4102458:	003ff106 	br	4102420 <memcmp+0x3c>

0410245c <strlen>:
 410245c:	208000cc 	andi	r2,r4,3
 4102460:	10000926 	beq	r2,zero,4102488 <strlen+0x2c>
 4102464:	2005883a 	mov	r2,r4
 4102468:	00000306 	br	4102478 <strlen+0x1c>
 410246c:	10800044 	addi	r2,r2,1
 4102470:	10c000cc 	andi	r3,r2,3
 4102474:	18000526 	beq	r3,zero,410248c <strlen+0x30>
 4102478:	10c00007 	ldb	r3,0(r2)
 410247c:	183ffb1e 	bne	r3,zero,410246c <strlen+0x10>
 4102480:	1105c83a 	sub	r2,r2,r4
 4102484:	f800283a 	ret
 4102488:	2005883a 	mov	r2,r4
 410248c:	11400017 	ldw	r5,0(r2)
 4102490:	01ffbff4 	movhi	r7,65279
 4102494:	39ffbfc4 	addi	r7,r7,-257
 4102498:	29c7883a 	add	r3,r5,r7
 410249c:	01a02074 	movhi	r6,32897
 41024a0:	014a303a 	nor	r5,zero,r5
 41024a4:	1946703a 	and	r3,r3,r5
 41024a8:	31a02004 	addi	r6,r6,-32640
 41024ac:	1986703a 	and	r3,r3,r6
 41024b0:	1800071e 	bne	r3,zero,41024d0 <strlen+0x74>
 41024b4:	11400117 	ldw	r5,4(r2)
 41024b8:	10800104 	addi	r2,r2,4
 41024bc:	29c7883a 	add	r3,r5,r7
 41024c0:	014a303a 	nor	r5,zero,r5
 41024c4:	1946703a 	and	r3,r3,r5
 41024c8:	1986703a 	and	r3,r3,r6
 41024cc:	183ff926 	beq	r3,zero,41024b4 <strlen+0x58>
 41024d0:	10c00007 	ldb	r3,0(r2)
 41024d4:	183fea26 	beq	r3,zero,4102480 <strlen+0x24>
 41024d8:	10c00047 	ldb	r3,1(r2)
 41024dc:	10800044 	addi	r2,r2,1
 41024e0:	183fe726 	beq	r3,zero,4102480 <strlen+0x24>
 41024e4:	10c00047 	ldb	r3,1(r2)
 41024e8:	10800044 	addi	r2,r2,1
 41024ec:	183ffa1e 	bne	r3,zero,41024d8 <strlen+0x7c>
 41024f0:	003fe306 	br	4102480 <strlen+0x24>

041024f4 <__register_exitproc>:
 41024f4:	00810434 	movhi	r2,1040
 41024f8:	10cb9417 	ldw	r3,11856(r2)
 41024fc:	18805217 	ldw	r2,328(r3)
 4102500:	10001726 	beq	r2,zero,4102560 <__register_exitproc+0x6c>
 4102504:	10c00117 	ldw	r3,4(r2)
 4102508:	1a000808 	cmpgei	r8,r3,32
 410250c:	40001b1e 	bne	r8,zero,410257c <__register_exitproc+0x88>
 4102510:	20000b26 	beq	r4,zero,4102540 <__register_exitproc+0x4c>
 4102514:	181090ba 	slli	r8,r3,2
 4102518:	02400044 	movi	r9,1
 410251c:	48d2983a 	sll	r9,r9,r3
 4102520:	1211883a 	add	r8,r2,r8
 4102524:	41802215 	stw	r6,136(r8)
 4102528:	11806217 	ldw	r6,392(r2)
 410252c:	21000098 	cmpnei	r4,r4,2
 4102530:	324cb03a 	or	r6,r6,r9
 4102534:	11806215 	stw	r6,392(r2)
 4102538:	41c04215 	stw	r7,264(r8)
 410253c:	20000b26 	beq	r4,zero,410256c <__register_exitproc+0x78>
 4102540:	19000084 	addi	r4,r3,2
 4102544:	200890ba 	slli	r4,r4,2
 4102548:	18c00044 	addi	r3,r3,1
 410254c:	10c00115 	stw	r3,4(r2)
 4102550:	1105883a 	add	r2,r2,r4
 4102554:	11400015 	stw	r5,0(r2)
 4102558:	0005883a 	mov	r2,zero
 410255c:	f800283a 	ret
 4102560:	18805304 	addi	r2,r3,332
 4102564:	18805215 	stw	r2,328(r3)
 4102568:	003fe606 	br	4102504 <__register_exitproc+0x10>
 410256c:	11006317 	ldw	r4,396(r2)
 4102570:	2252b03a 	or	r9,r4,r9
 4102574:	12406315 	stw	r9,396(r2)
 4102578:	003ff106 	br	4102540 <__register_exitproc+0x4c>
 410257c:	00bfffc4 	movi	r2,-1
 4102580:	f800283a 	ret

04102584 <__call_exitprocs>:
 4102584:	defff704 	addi	sp,sp,-36
 4102588:	00810434 	movhi	r2,1040
 410258c:	dcc00315 	stw	r19,12(sp)
 4102590:	14cb9417 	ldw	r19,11856(r2)
 4102594:	dc800215 	stw	r18,8(sp)
 4102598:	dfc00815 	stw	ra,32(sp)
 410259c:	9c805217 	ldw	r18,328(r19)
 41025a0:	ddc00715 	stw	r23,28(sp)
 41025a4:	dd800615 	stw	r22,24(sp)
 41025a8:	dd400515 	stw	r21,20(sp)
 41025ac:	dd000415 	stw	r20,16(sp)
 41025b0:	dc400115 	stw	r17,4(sp)
 41025b4:	dc000015 	stw	r16,0(sp)
 41025b8:	90001026 	beq	r18,zero,41025fc <__call_exitprocs+0x78>
 41025bc:	202b883a 	mov	r21,r4
 41025c0:	282d883a 	mov	r22,r5
 41025c4:	05000044 	movi	r20,1
 41025c8:	94000117 	ldw	r16,4(r18)
 41025cc:	847fffc4 	addi	r17,r16,-1
 41025d0:	88000a16 	blt	r17,zero,41025fc <__call_exitprocs+0x78>
 41025d4:	84000044 	addi	r16,r16,1
 41025d8:	802090ba 	slli	r16,r16,2
 41025dc:	9421883a 	add	r16,r18,r16
 41025e0:	b0001126 	beq	r22,zero,4102628 <__call_exitprocs+0xa4>
 41025e4:	80804017 	ldw	r2,256(r16)
 41025e8:	15800f26 	beq	r2,r22,4102628 <__call_exitprocs+0xa4>
 41025ec:	8c7fffc4 	addi	r17,r17,-1
 41025f0:	88bfffd8 	cmpnei	r2,r17,-1
 41025f4:	843fff04 	addi	r16,r16,-4
 41025f8:	103ff91e 	bne	r2,zero,41025e0 <__call_exitprocs+0x5c>
 41025fc:	dfc00817 	ldw	ra,32(sp)
 4102600:	ddc00717 	ldw	r23,28(sp)
 4102604:	dd800617 	ldw	r22,24(sp)
 4102608:	dd400517 	ldw	r21,20(sp)
 410260c:	dd000417 	ldw	r20,16(sp)
 4102610:	dcc00317 	ldw	r19,12(sp)
 4102614:	dc800217 	ldw	r18,8(sp)
 4102618:	dc400117 	ldw	r17,4(sp)
 410261c:	dc000017 	ldw	r16,0(sp)
 4102620:	dec00904 	addi	sp,sp,36
 4102624:	f800283a 	ret
 4102628:	90800117 	ldw	r2,4(r18)
 410262c:	81800017 	ldw	r6,0(r16)
 4102630:	10bfffc4 	addi	r2,r2,-1
 4102634:	14401726 	beq	r2,r17,4102694 <__call_exitprocs+0x110>
 4102638:	80000015 	stw	zero,0(r16)
 410263c:	303feb26 	beq	r6,zero,41025ec <__call_exitprocs+0x68>
 4102640:	a446983a 	sll	r3,r20,r17
 4102644:	90806217 	ldw	r2,392(r18)
 4102648:	95c00117 	ldw	r23,4(r18)
 410264c:	1884703a 	and	r2,r3,r2
 4102650:	1000081e 	bne	r2,zero,4102674 <__call_exitprocs+0xf0>
 4102654:	303ee83a 	callr	r6
 4102658:	90c00117 	ldw	r3,4(r18)
 410265c:	98805217 	ldw	r2,328(r19)
 4102660:	1dc0011e 	bne	r3,r23,4102668 <__call_exitprocs+0xe4>
 4102664:	90bfe126 	beq	r18,r2,41025ec <__call_exitprocs+0x68>
 4102668:	103fe426 	beq	r2,zero,41025fc <__call_exitprocs+0x78>
 410266c:	1025883a 	mov	r18,r2
 4102670:	003fd506 	br	41025c8 <__call_exitprocs+0x44>
 4102674:	90806317 	ldw	r2,396(r18)
 4102678:	81002017 	ldw	r4,128(r16)
 410267c:	1886703a 	and	r3,r3,r2
 4102680:	1800061e 	bne	r3,zero,410269c <__call_exitprocs+0x118>
 4102684:	200b883a 	mov	r5,r4
 4102688:	a809883a 	mov	r4,r21
 410268c:	303ee83a 	callr	r6
 4102690:	003ff106 	br	4102658 <__call_exitprocs+0xd4>
 4102694:	94400115 	stw	r17,4(r18)
 4102698:	003fe806 	br	410263c <__call_exitprocs+0xb8>
 410269c:	303ee83a 	callr	r6
 41026a0:	003fed06 	br	4102658 <__call_exitprocs+0xd4>

041026a4 <_exit>:
 *
 * ALT_EXIT is mapped onto the _exit() system call in alt_syscall.h
 */

void ALT_EXIT (int exit_code)
{
 41026a4:	defffd04 	addi	sp,sp,-12
 41026a8:	df000215 	stw	fp,8(sp)
 41026ac:	df000204 	addi	fp,sp,8
 41026b0:	e13ffe15 	stw	r4,-8(fp)
  ALT_LOG_PRINT_BOOT("[alt_exit.c] Entering _exit() function.\r\n");
  ALT_LOG_PRINT_BOOT("[alt_exit.c] Exit code from main was %d.\r\n",exit_code);
  /* Stop all other threads */

  ALT_LOG_PRINT_BOOT("[alt_exit.c] Calling ALT_OS_STOP().\r\n");
  ALT_OS_STOP();
 41026b4:	0001883a 	nop
 41026b8:	e0bffe17 	ldw	r2,-8(fp)
 41026bc:	e0bfff15 	stw	r2,-4(fp)
/*
 * Routine called on exit.
 */
static ALT_INLINE ALT_ALWAYS_INLINE void alt_sim_halt(int exit_code)
{
  register int r2 asm ("r2") = exit_code;
 41026c0:	e0bfff17 	ldw	r2,-4(fp)
  __asm__ volatile ("\n0:\n\taddi %0,%0, -1\n\tbgt %0,zero,0b" : : "r" (ALT_CPU_FREQ/100) ); /* Delay for >30ms */

  __asm__ volatile ("break 2" : : "r"(r2), "r"(r3) ALT_GMON_DATA );

#else /* !DEBUG_STUB */
  if (r2) {
 41026c4:	10000226 	beq	r2,zero,41026d0 <_exit+0x2c>
    ALT_SIM_FAIL();
 41026c8:	002af070 	cmpltui	zero,zero,43969
  } else {
    ALT_SIM_PASS();
  }
#endif /* DEBUG_STUB */
}
 41026cc:	00000106 	br	41026d4 <_exit+0x30>
    ALT_SIM_PASS();
 41026d0:	002af0b0 	cmpltui	zero,zero,43970
}
 41026d4:	0001883a 	nop
  ALT_SIM_HALT(exit_code);

  /* spin forever, since there's no where to go back to */

  ALT_LOG_PRINT_BOOT("[alt_exit.c] Spinning forever.\r\n");
  while (1);
 41026d8:	003fff06 	br	41026d8 <_exit+0x34>
