
de1_soc_nios_cigarette_0.elf:     file format elf32-littlenios2
de1_soc_nios_cigarette_0.elf
architecture: nios2:r1, flags 0x00000112:
EXEC_P, HAS_SYMS, D_PAGED
start address 0x04000224

Program Header:
    LOAD off    0x00001000 vaddr 0x04000000 paddr 0x04000000 align 2**12
         filesz 0x00000020 memsz 0x00000020 flags r-x
    LOAD off    0x00001020 vaddr 0x04000020 paddr 0x04000020 align 2**12
         filesz 0x000112f0 memsz 0x000112f0 flags r-x
    LOAD off    0x00012310 vaddr 0x04011310 paddr 0x04012fb8 align 2**12
         filesz 0x00001ca8 memsz 0x00001ca8 flags rw-
    LOAD off    0x00014c60 vaddr 0x04014c60 paddr 0x04014c60 align 2**12
         filesz 0x00000000 memsz 0x00000168 flags rw-

Sections:
Idx Name          Size      VMA       LMA       File off  Algn
  0 .entry        00000020  04000000  04000000  00001000  2**5
                  CONTENTS, ALLOC, LOAD, READONLY, CODE
  1 .exceptions   00000204  04000020  04000020  00001020  2**2
                  CONTENTS, ALLOC, LOAD, READONLY, CODE
  2 .text         000109e8  04000224  04000224  00001224  2**2
                  CONTENTS, ALLOC, LOAD, READONLY, CODE
  3 .rodata       00000704  04010c0c  04010c0c  00011c0c  2**2
                  CONTENTS, ALLOC, LOAD, READONLY, DATA
  4 .rwdata       00001ca8  04011310  04012fb8  00012310  2**2
                  CONTENTS, ALLOC, LOAD, DATA, SMALL_DATA
  5 .bss          00000168  04014c60  04014c60  00014c60  2**2
                  ALLOC, SMALL_DATA
  6 .sdram_controller_0 00000000  04014dc8  04014dc8  00013fb8  2**0
                  CONTENTS
  7 .comment      0000002d  00000000  00000000  00013fb8  2**0
                  CONTENTS, READONLY
  8 .debug_aranges 000010e0  00000000  00000000  00013fe8  2**3
                  CONTENTS, READONLY, DEBUGGING, OCTETS
  9 .debug_info   0002ef15  00000000  00000000  000150c8  2**0
                  CONTENTS, READONLY, DEBUGGING, OCTETS
 10 .debug_abbrev 0000bab0  00000000  00000000  00043fdd  2**0
                  CONTENTS, READONLY, DEBUGGING, OCTETS
 11 .debug_line   00017612  00000000  00000000  0004fa8d  2**0
                  CONTENTS, READONLY, DEBUGGING, OCTETS
 12 .debug_frame  000027b0  00000000  00000000  000670a0  2**2
                  CONTENTS, READONLY, DEBUGGING, OCTETS
 13 .debug_str    0000430c  00000000  00000000  00069850  2**0
                  CONTENTS, READONLY, DEBUGGING, OCTETS
 14 .debug_loc    0001e314  00000000  00000000  0006db5c  2**0
                  CONTENTS, READONLY, DEBUGGING, OCTETS
 15 .debug_alt_sim_info 00000040  00000000  00000000  0008be70  2**2
                  CONTENTS, READONLY, DEBUGGING, OCTETS
 16 .debug_ranges 00002460  00000000  00000000  0008beb0  2**3
                  CONTENTS, READONLY, DEBUGGING, OCTETS
 17 .thread_model 00000003  00000000  00000000  00091b73  2**0
                  CONTENTS, READONLY
 18 .cpu          0000000c  00000000  00000000  00091b76  2**0
                  CONTENTS, READONLY
 19 .qsys         00000001  00000000  00000000  00091b82  2**0
                  CONTENTS, READONLY
 20 .simulation_enabled 00000001  00000000  00000000  00091b83  2**0
                  CONTENTS, READONLY
 21 .sysid_hash   00000004  00000000  00000000  00091b84  2**0
                  CONTENTS, READONLY
 22 .sysid_base   00000004  00000000  00000000  00091b88  2**0
                  CONTENTS, READONLY
 23 .sysid_time   00000004  00000000  00000000  00091b8c  2**0
                  CONTENTS, READONLY
 24 .stderr_dev   0000000b  00000000  00000000  00091b90  2**0
                  CONTENTS, READONLY
 25 .stdin_dev    0000000b  00000000  00000000  00091b9b  2**0
                  CONTENTS, READONLY
 26 .stdout_dev   0000000b  00000000  00000000  00091ba6  2**0
                  CONTENTS, READONLY
 27 .sopc_system_name 0000000a  00000000  00000000  00091bb1  2**0
                  CONTENTS, READONLY
 28 .quartus_project_dir 00000056  00000000  00000000  00091bbb  2**0
                  CONTENTS, READONLY
SYMBOL TABLE:
04000000 l    d  .entry	00000000 .entry
04000020 l    d  .exceptions	00000000 .exceptions
04000224 l    d  .text	00000000 .text
04010c0c l    d  .rodata	00000000 .rodata
04011310 l    d  .rwdata	00000000 .rwdata
04014c60 l    d  .bss	00000000 .bss
04014dc8 l    d  .sdram_controller_0	00000000 .sdram_controller_0
00000000 l    d  .comment	00000000 .comment
00000000 l    d  .debug_aranges	00000000 .debug_aranges
00000000 l    d  .debug_info	00000000 .debug_info
00000000 l    d  .debug_abbrev	00000000 .debug_abbrev
00000000 l    d  .debug_line	00000000 .debug_line
00000000 l    d  .debug_frame	00000000 .debug_frame
00000000 l    d  .debug_str	00000000 .debug_str
00000000 l    d  .debug_loc	00000000 .debug_loc
00000000 l    d  .debug_alt_sim_info	00000000 .debug_alt_sim_info
00000000 l    d  .debug_ranges	00000000 .debug_ranges
00000000 l    df *ABS*	00000000 d:/Fax/projektovanje_namjenskih_racunarski_struktura/pnrs-2023/de1-soc-demo/sw/nios/cig_app_0/de1_soc_nios_cigarette_0_bsp//obj/HAL/src/crt0.o
0400025c l       .text	00000000 alt_after_alt_main
00000000 l    df *ABS*	00000000 alt_irq_handler.c
00000000 l    df *ABS*	00000000 alt_instruction_exception_entry.c
00000000 l    df *ABS*	00000000 paper.c
00000000 l    df *ABS*	00000000 lib2-divmod.c
00000000 l    df *ABS*	00000000 printf.c
00000000 l    df *ABS*	00000000 rand.c
00000000 l    df *ABS*	00000000 vfprintf.c
04002728 l     F .text	000000c0 __sbprintf
04010cc0 l     O .rodata	00000010 blanks.1
04010cb0 l     O .rodata	00000010 zeroes.0
00000000 l    df *ABS*	00000000 wsetup.c
00000000 l    df *ABS*	00000000 dtoa.c
0400294c l     F .text	00000220 quorem
00000000 l    df *ABS*	00000000 fflush.c
00000000 l    df *ABS*	00000000 findfp.c
040045c0 l     F .text	00000008 __fp_lock
040045d4 l     F .text	00000008 __fp_unlock
040045dc l     F .text	00000168 __sinit.part.0
00000000 l    df *ABS*	00000000 mallocr.c
00000000 l    df *ABS*	00000000 fwalk.c
00000000 l    df *ABS*	00000000 impure.c
04011310 l     O .rwdata	00000424 impure_data
00000000 l    df *ABS*	00000000 localeconv.c
00000000 l    df *ABS*	00000000 makebuf.c
00000000 l    df *ABS*	00000000 mallocr.c
00000000 l    df *ABS*	00000000 memchr.c
00000000 l    df *ABS*	00000000 memcpy.c
00000000 l    df *ABS*	00000000 memset.c
00000000 l    df *ABS*	00000000 mprec.c
04010d74 l     O .rodata	0000000c p05.0
00000000 l    df *ABS*	00000000 sbrkr.c
00000000 l    df *ABS*	00000000 stdio.c
00000000 l    df *ABS*	00000000 strlen.c
00000000 l    df *ABS*	00000000 vfprintf.c
04006fec l     F .text	000000f4 __sprint_r.part.0
04008458 l     F .text	000000c0 __sbprintf
04010ea8 l     O .rodata	00000010 blanks.1
04010e98 l     O .rodata	00000010 zeroes.0
00000000 l    df *ABS*	00000000 writer.c
00000000 l    df *ABS*	00000000 closer.c
00000000 l    df *ABS*	00000000 assert.c
00000000 l    df *ABS*	00000000 mallocr.c
00000000 l    df *ABS*	00000000 fclose.c
04008710 l     F .text	000000c0 _fclose_r.part.0
00000000 l    df *ABS*	00000000 fiprintf.c
00000000 l    df *ABS*	00000000 fputwc.c
00000000 l    df *ABS*	00000000 fstatr.c
00000000 l    df *ABS*	00000000 fvwrite.c
00000000 l    df *ABS*	00000000 int_errno.c
00000000 l    df *ABS*	00000000 isattyr.c
00000000 l    df *ABS*	00000000 locale.c
00000000 l    df *ABS*	00000000 lseekr.c
00000000 l    df *ABS*	00000000 mbtowc_r.c
00000000 l    df *ABS*	00000000 memmove.c
00000000 l    df *ABS*	00000000 readr.c
00000000 l    df *ABS*	00000000 mallocr.c
00000000 l    df *ABS*	00000000 strcmp.c
00000000 l    df *ABS*	00000000 vfiprintfr_1.c
00000000 l    df *ABS*	00000000 wbuf.c
00000000 l    df *ABS*	00000000 wcrtomb.c
00000000 l    df *ABS*	00000000 wctomb_r.c
00000000 l    df *ABS*	00000000 abort.c
00000000 l    df *ABS*	00000000 ctype_.c
00000000 l    df *ABS*	00000000 signal.c
00000000 l    df *ABS*	00000000 signalr.c
00000000 l    df *ABS*	00000000 libgcc2.c
00000000 l    df *ABS*	00000000 libgcc2.c
00000000 l    df *ABS*	00000000 libgcc2.c
00000000 l    df *ABS*	00000000 lib2-mul.c
00000000 l    df *ABS*	00000000 adddf3.c
00000000 l    df *ABS*	00000000 divdf3.c
00000000 l    df *ABS*	00000000 eqdf2.c
00000000 l    df *ABS*	00000000 gedf2.c
00000000 l    df *ABS*	00000000 ledf2.c
00000000 l    df *ABS*	00000000 muldf3.c
00000000 l    df *ABS*	00000000 subdf3.c
00000000 l    df *ABS*	00000000 unorddf2.c
00000000 l    df *ABS*	00000000 fixdfsi.c
00000000 l    df *ABS*	00000000 floatsidf.c
00000000 l    df *ABS*	00000000 floatunsidf.c
00000000 l    df *ABS*	00000000 libgcc2.c
00000000 l    df *ABS*	00000000 libgcc2.c
00000000 l    df *ABS*	00000000 alt_close.c
0400d628 l     F .text	0000003c alt_get_errno
00000000 l    df *ABS*	00000000 alt_dev.c
0400d740 l     F .text	0000002c alt_dev_null_write
00000000 l    df *ABS*	00000000 alt_errno.c
00000000 l    df *ABS*	00000000 alt_exit.c
00000000 l    df *ABS*	00000000 alt_fstat.c
0400d7a4 l     F .text	0000003c alt_get_errno
00000000 l    df *ABS*	00000000 alt_getpid.c
00000000 l    df *ABS*	00000000 alt_isatty.c
0400d8bc l     F .text	0000003c alt_get_errno
00000000 l    df *ABS*	00000000 alt_kill.c
0400d9a8 l     F .text	0000003c alt_get_errno
00000000 l    df *ABS*	00000000 alt_load.c
0400db10 l     F .text	00000068 alt_load_section
00000000 l    df *ABS*	00000000 alt_lseek.c
0400dbfc l     F .text	0000003c alt_get_errno
00000000 l    df *ABS*	00000000 alt_main.c
00000000 l    df *ABS*	00000000 alt_malloc_lock.c
00000000 l    df *ABS*	00000000 alt_read.c
0400dddc l     F .text	0000003c alt_get_errno
00000000 l    df *ABS*	00000000 alt_release_fd.c
00000000 l    df *ABS*	00000000 alt_sbrk.c
04012f98 l     O .rwdata	00000004 heap_end
00000000 l    df *ABS*	00000000 alt_usleep.c
00000000 l    df *ABS*	00000000 alt_write.c
0400e078 l     F .text	0000003c alt_get_errno
00000000 l    df *ABS*	00000000 alt_sys_init.c
0400e1b8 l     F .text	00000034 alt_dev_reg
0400e1ec l     F .text	0000003c alt_get_errno
0400e228 l     F .text	00000068 alt_avalon_mutex_reg
04011e50 l     O .rwdata	00001060 jtag_uart_0
04012eb0 l     O .rwdata	00000048 mailbox_0
04012ef8 l     O .rwdata	00000048 mailbox_4
04012f40 l     O .rwdata	00000010 mutex_0
04012f50 l     O .rwdata	00000010 mutex_1
04012f60 l     O .rwdata	00000010 mutex_2
00000000 l    df *ABS*	00000000 altera_avalon_jtag_uart_fd.c
00000000 l    df *ABS*	00000000 altera_avalon_jtag_uart_init.c
0400e588 l     F .text	0000020c altera_avalon_jtag_uart_irq
0400e794 l     F .text	000000a0 altera_avalon_jtag_uart_timeout
00000000 l    df *ABS*	00000000 altera_avalon_jtag_uart_ioctl.c
00000000 l    df *ABS*	00000000 altera_avalon_jtag_uart_read.c
00000000 l    df *ABS*	00000000 altera_avalon_jtag_uart_write.c
00000000 l    df *ABS*	00000000 altera_avalon_mailbox_simple.c
0400edd8 l     F .text	0000008c altera_avalon_mailbox_identify
0400ee64 l     F .text	00000078 altera_avalon_mailbox_post
0400eedc l     F .text	0000013c altera_avalon_mailbox_simple_tx_isr
0400f018 l     F .text	000000ac altera_avalon_mailbox_simple_rx_isr
00000000 l    df *ABS*	00000000 altera_avalon_mutex.c
0400f73c l     F .text	0000003c alt_get_errno
0400f778 l     F .text	0000007c alt_mutex_trylock
00000000 l    df *ABS*	00000000 alt_alarm_start.c
00000000 l    df *ABS*	00000000 alt_busy_sleep.c
00000000 l    df *ABS*	00000000 alt_dcache_flush_all.c
00000000 l    df *ABS*	00000000 alt_dev_llist_insert.c
0400fcb8 l     F .text	0000003c alt_get_errno
00000000 l    df *ABS*	00000000 alt_do_ctors.c
00000000 l    df *ABS*	00000000 alt_do_dtors.c
00000000 l    df *ABS*	00000000 alt_find_dev.c
00000000 l    df *ABS*	00000000 alt_icache_flush_all.c
00000000 l    df *ABS*	00000000 alt_iic.c
00000000 l    df *ABS*	00000000 alt_iic_isr_register.c
00000000 l    df *ABS*	00000000 alt_io_redirect.c
040101ac l     F .text	000000d4 alt_open_fd
00000000 l    df *ABS*	00000000 alt_irq_vars.c
00000000 l    df *ABS*	00000000 alt_open.c
040102fc l     F .text	0000003c alt_get_errno
04010338 l     F .text	000000dc alt_file_locked
00000000 l    df *ABS*	00000000 alt_tick.c
00000000 l    df *ABS*	00000000 altera_nios2_gen2_irq.c
00000000 l    df *ABS*	00000000 alt_find_file.c
00000000 l    df *ABS*	00000000 alt_get_fd.c
00000000 l    df *ABS*	00000000 atexit.c
00000000 l    df *ABS*	00000000 exit.c
00000000 l    df *ABS*	00000000 memcmp.c
00000000 l    df *ABS*	00000000 __atexit.c
00000000 l    df *ABS*	00000000 __call_atexit.c
04014c9c g     O .bss	00000004 alt_instruction_exception_handler
04006c70 g     F .text	00000070 _mprec_log10
0400f4b0 g     F .text	00000150 altera_avalon_mailbox_send
04006d5c g     F .text	00000060 __any_on
04009030 g     F .text	00000058 _isatty_r
04010d80 g     O .rodata	00000028 __mprec_tinytens
0400dd18 g     F .text	0000007c alt_main
04014cc8 g     O .bss	00000100 alt_irq
0400917c g     F .text	00000064 _lseek_r
04012fb8 g       *ABS*	00000000 __flash_rwdata_start
0400c108 g     F .text	00000080 .hidden __eqdf2
04014dc8 g       *ABS*	00000000 __alt_heap_start
0400a174 g     F .text	00000060 _kill_r
0400055c g     F .text	00000038 printf
04009b40 g     F .text	0000006c _wcrtomb_r
04009ce4 g     F .text	00000098 _signal_r
04006ef0 g     F .text	0000005c __sseek
04004924 g     F .text	00000010 __sinit
040099e0 g     F .text	00000148 __swbuf_r
04009088 g     F .text	00000074 _setlocale_r
04004744 g     F .text	00000078 __sfmoreglue
0400ddb8 g     F .text	00000024 __malloc_unlock
04009230 g     F .text	0000012c memmove
04004910 g     F .text	00000014 _cleanup
0400f8b4 g     F .text	00000040 altera_avalon_mutex_trylock
04005bcc g     F .text	000000a4 _Balloc
0400c188 g     F .text	000000e8 .hidden __gtdf2
04010720 g     F .text	00000024 altera_nios2_gen2_irq_init
04000000 g     F .entry	0000000c __reset
04004ec4 g     F .text	00000008 __localeconv_l
0400f948 g     F .text	00000074 altera_avalon_mutex_is_mine
04000020 g       *ABS*	00000000 __flash_exceptions_start
04008b08 g     F .text	00000060 _fstat_r
04014c7c g     O .bss	00000004 errno
04006e68 g     F .text	00000008 __seofread
04014c88 g     O .bss	00000004 alt_argv
0401af70 g       *ABS*	00000000 _gp
0400e048 g     F .text	00000030 usleep
0400f600 g     F .text	0000013c altera_avalon_mailbox_retrieve_poll
04014c68 g     O .bss	00000004 mbox_receive
0400d89c g     F .text	00000020 getpid
04011cd0 g     O .rwdata	00000180 alt_fd_list
0400fe64 g     F .text	00000090 alt_find_dev
040059dc g     F .text	00000100 memcpy
040045c8 g     F .text	0000000c _cleanup_r
0400d48c g     F .text	000000b8 .hidden __floatsidf
04010280 g     F .text	0000007c alt_io_redirect
0400c270 g     F .text	000000e8 .hidden __ltdf2
04010c0c g       *ABS*	00000000 __DTOR_END__
04010904 g     F .text	00000098 alt_exception_cause_generated_bad_addr
0400f0c4 g     F .text	00000078 altera_avalon_mailbox_simple_init
04006bcc g     F .text	000000a4 __ratio
0400843c g     F .text	0000001c __vfiprintf_internal
0400e990 g     F .text	00000220 altera_avalon_jtag_uart_read
0400052c g     F .text	00000030 _printf_r
0400046c g     F .text	00000064 .hidden __udivsi3
0400d8f8 g     F .text	000000b0 isatty
04009d7c g     F .text	000000c4 _raise_r
040085d4 g     F .text	00000064 __assert_func
04010dd0 g     O .rodata	000000c8 __mprec_tens
0400f438 g     F .text	00000078 altera_avalon_mailbox_status
0400f320 g     F .text	00000118 altera_avalon_mailbox_close
04014c78 g     O .bss	00000004 __malloc_top_pad
0400a1d4 g     F .text	00000004 _getpid_r
04004ecc g     F .text	0000000c _localeconv_r
04008b68 g     F .text	000004c8 __sfvwrite_r
0400603c g     F .text	000000b0 __i2b
04009e40 g     F .text	000000bc __sigtramp_r
04006dbc g     F .text	00000058 _sbrk_r
0400935c g     F .text	00000064 _read_r
04012f90 g     O .rwdata	00000004 alt_max_fd
040087d0 g     F .text	00000070 _fclose_r
0400453c g     F .text	00000084 fflush
04014c74 g     O .bss	00000004 __malloc_max_sbrked_mem
0400aee8 g     F .text	000008f0 .hidden __adddf3
04006960 g     F .text	00000108 __b2d
0400a8fc g     F .text	000005c4 .hidden __umoddi3
0400dc38 g     F .text	000000e0 lseek
0400f9bc g     F .text	00000050 altera_avalon_mutex_first_lock
04000000 g       *ABS*	00000000 __alt_mem_sdram_controller_0
04012f70 g     O .rwdata	00000004 _global_impure_ptr
040093c0 g     F .text	00000564 _realloc_r
04014dc8 g       *ABS*	00000000 __bss_end
040100c4 g     F .text	000000e8 alt_iic_isr_register
04010618 g     F .text	00000108 alt_tick
0400a2dc g     F .text	00000620 .hidden __udivdi3
04008a6c g     F .text	00000024 _fputwc_r
04010da8 g     O .rodata	00000028 __mprec_bigtens
04005df0 g     F .text	00000138 __s2b
04009c70 g     F .text	00000018 abort
0400d544 g     F .text	00000090 .hidden __floatunsidf
04006680 g     F .text	00000058 __mcmp
04004944 g     F .text	00000014 __fp_lock_all
04010078 g     F .text	0000004c alt_ic_irq_enabled
04010574 g     F .text	000000a4 alt_alarm_stop
04014c90 g     O .bss	00000004 alt_irq_active
04014c60 g     O .bss	00000004 tobacco_mutex
040000fc g     F .exceptions	000000c8 alt_irq_handler
04011ca8 g     O .rwdata	00000028 alt_dev_null
0400f7f4 g     F .text	00000054 altera_avalon_mutex_open
0400fc98 g     F .text	00000020 alt_dcache_flush_all
04005f28 g     F .text	00000064 __hi0bits
0400d40c g     F .text	00000080 .hidden __fixdfsi
04012fb8 g       *ABS*	00000000 __ram_rwdata_end
04012f88 g     O .rwdata	00000008 alt_dev_list
0400e0b4 g     F .text	00000104 write
04012fa4 g     O .rwdata	00000008 alt_mutex_list
04011310 g       *ABS*	00000000 __ram_rodata_end
0400d7e0 g     F .text	000000bc fstat
0400d9e4 g     F .text	0000012c kill
0400c270 g     F .text	000000e8 .hidden __ledf2
040063b0 g     F .text	00000148 __pow5mult
040070f8 g     F .text	00001344 ___vfiprintf_internal_r
040004d0 g     F .text	0000005c .hidden __umodsi3
04014dc8 g       *ABS*	00000000 end
0400e4c8 g     F .text	000000c0 altera_avalon_jtag_uart_init
040001c4 g     F .exceptions	00000060 alt_instruction_exception_entry
04010c0c g       *ABS*	00000000 __CTOR_LIST__
04100000 g       *ABS*	00000000 __alt_stack_pointer
0400d5d4 g     F .text	00000054 .hidden __clzsi2
0400ebb0 g     F .text	00000228 altera_avalon_jtag_uart_write
04004934 g     F .text	00000004 __sfp_lock_acquire
0400590c g     F .text	000000d0 memchr
04014c6c g     O .bss	00000004 mbox_send
04000608 g     F .text	00002104 ___vfprintf_internal_r
04004a88 g     F .text	000002fc _free_r
0401100c g     O .rodata	00000180 _ctype_b
040090fc g     F .text	0000000c __locale_mb_cur_max
04010aec g     F .text	00000120 __call_exitprocs
04012f78 g     O .rwdata	00000004 __malloc_sbrk_base
04000224 g     F .text	0000003c _start
04014c94 g     O .bss	00000004 _alt_tick_rate
040005a8 g     F .text	00000060 rand
040064f8 g     F .text	00000188 __lshift
04014c98 g     O .bss	00000004 _alt_nticks
04009fb8 g     F .text	000000a0 signal
0400de18 g     F .text	00000108 read
0400e2cc g     F .text	00000098 alt_sys_init
04010a5c g     F .text	00000090 __register_exitproc
0400f8f4 g     F .text	00000054 altera_avalon_mutex_unlock
040060ec g     F .text	000002c4 __multiply
0400e834 g     F .text	00000068 altera_avalon_jtag_uart_close
0400aec0 g     F .text	00000028 .hidden __mulsi3
04011310 g       *ABS*	00000000 __ram_rwdata_start
04010c0c g       *ABS*	00000000 __ram_rodata_start
04014ca0 g     O .bss	00000028 __malloc_current_mallinfo
04006a68 g     F .text	00000164 __d2b
0400e364 g     F .text	00000060 altera_avalon_jtag_uart_read_fd
0401084c g     F .text	000000b8 alt_get_fd
0400fb40 g     F .text	00000158 alt_busy_sleep
0400857c g     F .text	00000058 _close_r
040109e4 g     F .text	00000078 memcmp
0400e424 g     F .text	00000050 altera_avalon_jtag_uart_close_fd
04014dc8 g       *ABS*	00000000 __alt_stack_base
0400e474 g     F .text	00000054 altera_avalon_jtag_uart_ioctl_fd
040027e8 g     F .text	00000164 __swsetup_r
0400b7d8 g     F .text	00000930 .hidden __divdf3
040047bc g     F .text	00000154 __sfp
04006ce0 g     F .text	0000007c __copybits
04011734 g     O .rwdata	00000408 __malloc_av_
04004940 g     F .text	00000004 __sinit_lock_release
0400c358 g     F .text	000007ac .hidden __muldf3
04006e14 g     F .text	00000054 __sread
04010744 g     F .text	00000108 alt_find_file
0400fcf4 g     F .text	000000a8 alt_dev_llist_insert
0400dd94 g     F .text	00000024 __malloc_lock
0400df90 g     F .text	000000b8 sbrk
040044dc g     F .text	00000060 _fflush_r
0400864c g     F .text	000000c4 _calloc_r
04014c60 g       *ABS*	00000000 __bss_start
04005adc g     F .text	000000f0 memset
04000260 g     F .text	00000118 main
04014c8c g     O .bss	00000004 alt_envp
04014c70 g     O .bss	00000004 __malloc_max_total_mem
0400e3c4 g     F .text	00000060 altera_avalon_jtag_uart_write_fd
04009b28 g     F .text	00000018 __swbuf
04000594 g     F .text	00000014 srand
04006f4c g     F .text	00000008 __sclose
04100000 g       *ABS*	00000000 __alt_heap_limit
04008840 g     F .text	00000070 fclose
0400f86c g     F .text	00000048 altera_avalon_mutex_lock
04002b6c g     F .text	00001748 _dtoa_r
0400512c g     F .text	000007e0 _malloc_r
04009c40 g     F .text	00000030 __ascii_wctomb
04012f94 g     O .rwdata	00000004 alt_errno
040088b0 g     F .text	00000020 _fiprintf_r
0400a058 g     F .text	00000060 _init_signal
04004d84 g     F .text	00000098 _fwalk
040091e0 g     F .text	0000000c _mbtowc_r
04000378 g     F .text	00000080 .hidden __divsi3
0400496c g     F .text	0000011c _malloc_trim_r
04010c0c g       *ABS*	00000000 __CTOR_END__
04009924 g     F .text	000000b8 strcmp
04010c0c g       *ABS*	00000000 __flash_rodata_start
04010c0c g       *ABS*	00000000 __DTOR_LIST__
0400c108 g     F .text	00000080 .hidden __nedf2
0400e290 g     F .text	0000003c alt_irq_init
0400df20 g     F .text	00000070 alt_release_fd
0401118c g     O .rodata	00000100 .hidden __clz_tab
04014c80 g     O .bss	00000004 _PathLocale
0401099c g     F .text	00000014 atexit
04008518 g     F .text	00000064 _write_r
04009108 g     F .text	00000074 setlocale
04012f74 g     O .rwdata	00000004 _impure_ptr
04014c84 g     O .bss	00000004 alt_argc
040042b4 g     F .text	00000228 __sflush_r
0400fe00 g     F .text	00000064 _do_dtors
04000020 g       .exceptions	00000000 alt_irq_entry
040091ec g     F .text	00000044 __ascii_mbtowc
04006904 g     F .text	0000005c __ulp
04004958 g     F .text	00000014 __fp_unlock_all
04012f80 g     O .rwdata	00000008 alt_fs_list
04000020 g       *ABS*	00000000 __ram_exceptions_start
04004ed8 g     F .text	0000000c localeconv
04005094 g     F .text	00000098 __swhatbuf_r
0400ff14 g     F .text	00000050 alt_ic_isr_register
04012fb8 g       *ABS*	00000000 _edata
04014dc8 g       *ABS*	00000000 _end
04008908 g     F .text	00000164 __fputwc
04000224 g       *ABS*	00000000 __ram_exceptions_end
0400e89c g     F .text	000000f4 altera_avalon_jtag_uart_ioctl
0400ffec g     F .text	0000008c alt_ic_irq_disable
04012f9c g     O .rwdata	00000008 alt_mailbox_simple_list
04006e70 g     F .text	00000080 __swrite
04012f7c g     O .rwdata	00000004 __malloc_trim_threshold
040109b0 g     F .text	00000034 exit
040088d0 g     F .text	00000038 fiprintf
040099dc g     F .text	00000004 _vfiprintf_r
04004e1c g     F .text	000000a8 _fwalk_reent
040066d8 g     F .text	0000022c __mdiff
040003f8 g     F .text	00000074 .hidden __modsi3
04100000 g       *ABS*	00000000 __alt_data_end
04000020 g     F .exceptions	00000000 alt_exception
04004938 g     F .text	00000004 __sfp_lock_release
04014c64 g     O .bss	00000004 matches_mutex
04010f08 g     O .rodata	00000101 _ctype_
0400d3b8 g     F .text	00000054 .hidden __unorddf2
0400f13c g     F .text	000001e4 altera_avalon_mailbox_open
0400d76c g     F .text	00000038 _exit
0400fa0c g     F .text	00000134 alt_alarm_start
0400a1d8 g     F .text	00000104 .hidden __muldi3
04004ee4 g     F .text	000001b0 __smakebuf_r
04006f54 g     F .text	00000098 strlen
04009c88 g     F .text	0000005c _init_signal_r
04010414 g     F .text	00000160 open
0400c188 g     F .text	000000e8 .hidden __gedf2
04008638 g     F .text	00000014 __assert
040070e0 g     F .text	00000018 __sprint_r
0400fef4 g     F .text	00000020 alt_icache_flush_all
04012fac g     O .rwdata	00000004 alt_priority_mask
0400ff64 g     F .text	00000088 alt_ic_irq_enable
0400270c g     F .text	0000001c __vfprintf_internal
0400f848 g     F .text	00000024 altera_avalon_mutex_close
04009c34 g     F .text	0000000c _wctomb_r
0400cb04 g     F .text	000008b4 .hidden __subdf3
04005f8c g     F .text	000000b0 __lo0bits
04012fb0 g     O .rwdata	00000008 alt_alarm_list
0400fd9c g     F .text	00000064 _do_ctors
0400a0b8 g     F .text	000000bc __sigtramp
04009bac g     F .text	00000088 wcrtomb
0400d664 g     F .text	000000dc close
04011b3c g     O .rwdata	0000016c __global_locale
0400db78 g     F .text	00000084 alt_load
04008a90 g     F .text	00000078 fputwc
04009efc g     F .text	000000bc raise
0400493c g     F .text	00000004 __sinit_lock_acquire
04005c94 g     F .text	0000015c __multadd
04005c70 g     F .text	00000024 _Bfree



Disassembly of section .entry:

04000000 <__reset>:
 * Jump to the _start entry point in the .text section if reset code
 * is allowed or if optimizing for RTL simulation.
 */
#if defined(ALT_ALLOW_CODE_AT_RESET) || defined(ALT_SIM_OPTIMIZE)
    /* Jump to the _start entry point in the .text section. */
    movhi r1, %hi(_start)
 4000000:	00410034 	movhi	at,1024
    ori r1, r1, %lo(_start)
 4000004:	08408914 	ori	at,at,548
    jmp r1
 4000008:	0800683a 	jmp	at
	...

Disassembly of section .exceptions:

04000020 <alt_exception>:

#else /* ALT_EXCEPTION_STACK disabled */
        /* 
         * Reserve space on normal stack for registers about to be pushed.
         */
        addi  sp, sp, -76
 4000020:	deffed04 	addi	sp,sp,-76
         * documentation for details).
         *
         * Leave a gap in the stack frame at 4(sp) for the muldiv handler to
         * store zero into.
         */
        stw   ra,  0(sp)
 4000024:	dfc00015 	stw	ra,0(sp)
        stw   r1,   8(sp)
 4000028:	d8400215 	stw	at,8(sp)
        stw   r2,  12(sp)
 400002c:	d8800315 	stw	r2,12(sp)
        stw   r3,  16(sp)
 4000030:	d8c00415 	stw	r3,16(sp)
        stw   r4,  20(sp)
 4000034:	d9000515 	stw	r4,20(sp)
        stw   r5,  24(sp)
 4000038:	d9400615 	stw	r5,24(sp)
        stw   r6,  28(sp)
 400003c:	d9800715 	stw	r6,28(sp)
        stw   r7,  32(sp)
 4000040:	d9c00815 	stw	r7,32(sp)
        rdctl r5, estatus   /* Read early to avoid usage stall */
 4000044:	000b307a 	rdctl	r5,estatus
        stw   r8,  36(sp)
 4000048:	da000915 	stw	r8,36(sp)
        stw   r9,  40(sp)
 400004c:	da400a15 	stw	r9,40(sp)
        stw   r10, 44(sp)
 4000050:	da800b15 	stw	r10,44(sp)
        stw   r11, 48(sp)
 4000054:	dac00c15 	stw	r11,48(sp)
        stw   r12, 52(sp)
 4000058:	db000d15 	stw	r12,52(sp)
        stw   r13, 56(sp)
 400005c:	db400e15 	stw	r13,56(sp)
        stw   r14, 60(sp)
 4000060:	db800f15 	stw	r14,60(sp)
        stw   r15, 64(sp)
 4000064:	dbc01015 	stw	r15,64(sp)
        /*
         * ea-4 contains the address of the instruction being executed
         * when the exception occured. For interrupt exceptions, we will
         * will be re-issue the isntruction. Store it in 72(sp)
         */
        stw   r5,  68(sp)  /* estatus */
 4000068:	d9401115 	stw	r5,68(sp)
        addi  r15, ea, -4  /* instruction that caused exception */
 400006c:	ebffff04 	addi	r15,ea,-4
        stw   r15,  72(sp)
 4000070:	dbc01215 	stw	r15,72(sp)
#else
        /*
         * Test to see if the exception was a software exception or caused 
         * by an external interrupt, and vector accordingly.
         */
        rdctl r4, ipending
 4000074:	0009313a 	rdctl	r4,ipending
        andi  r2, r5, 1
 4000078:	2880004c 	andi	r2,r5,1
        beq   r2, zero, .Lnot_irq
 400007c:	10000326 	beq	r2,zero,400008c <alt_exception+0x6c>
        beq   r4, zero, .Lnot_irq
 4000080:	20000226 	beq	r4,zero,400008c <alt_exception+0x6c>
        /*
         * Now that all necessary registers have been preserved, call 
         * alt_irq_handler() to process the interrupts.
         */

        call alt_irq_handler
 4000084:	40000fc0 	call	40000fc <alt_irq_handler>

        .section .exceptions.irqreturn, "xa"

        br    .Lexception_exit
 4000088:	00000706 	br	40000a8 <alt_exception+0x88>
         * upon completion, so we write ea (address of instruction *after*
         * the one where the exception occured) into 72(sp). The actual
         * instruction that caused the exception is written in r2, which these
         * handlers will utilize.
         */
        stw ea, 72(sp) /* EA is PC+4 so will skip over instruction causing exception */
 400008c:	df401215 	stw	ea,72(sp)
.Lunknown_16bit:
        addi.n r4, r4, 2 /* Need PC+2 to skip over instruction causing exception */
        stw r4, 72(sp)

#else /* CDX is not Enabled and all instructions are 32bits */
        ldw r2, -4(ea) /* Instruction value that caused exception */
 4000090:	e8bfff17 	ldw	r2,-4(ea)
         * debugger is present) or go into an infinite loop since the
         * handling behavior is undefined; in that case we will not return here.
         */

        /* Load exception-causing address as first argument (r4) */
        addi   r4, ea, -4
 4000094:	e93fff04 	addi	r4,ea,-4

        /* Call the instruction-exception entry */
        call   alt_instruction_exception_entry
 4000098:	40001c40 	call	40001c4 <alt_instruction_exception_entry>
         * instruction
         *
         * Return code was 0: Skip. The instruction after the exception is
         * already stored in 72(sp).
         */
        bne   r2, r0, .Lexception_exit
 400009c:	1000021e 	bne	r2,zero,40000a8 <alt_exception+0x88>

        /*
         * Otherwise, modify 72(sp) to re-issue the instruction that caused the
         * exception.
         */
        addi  r15, ea, -4  /* instruction that caused exception */
 40000a0:	ebffff04 	addi	r15,ea,-4
        stw   r15,  72(sp)
 40000a4:	dbc01215 	stw	r15,72(sp)
        /* 
         * Restore the saved registers, so that all general purpose registers 
         * have been restored to their state at the time the interrupt occured.
         */

        ldw   r5,  68(sp)
 40000a8:	d9401117 	ldw	r5,68(sp)
        ldw   ea,  72(sp)  /* This becomes the PC once eret is executed */
 40000ac:	df401217 	ldw	ea,72(sp)
        ldw   ra,   0(sp)
 40000b0:	dfc00017 	ldw	ra,0(sp)

        wrctl estatus, r5
 40000b4:	2801707a 	wrctl	estatus,r5

        ldw   r1,   8(sp)
 40000b8:	d8400217 	ldw	at,8(sp)
        ldw   r2,  12(sp)
 40000bc:	d8800317 	ldw	r2,12(sp)
        ldw   r3,  16(sp)
 40000c0:	d8c00417 	ldw	r3,16(sp)
        ldw   r4,  20(sp)
 40000c4:	d9000517 	ldw	r4,20(sp)
        ldw   r5,  24(sp)
 40000c8:	d9400617 	ldw	r5,24(sp)
        ldw   r6,  28(sp)
 40000cc:	d9800717 	ldw	r6,28(sp)
        ldw   r7,  32(sp)
 40000d0:	d9c00817 	ldw	r7,32(sp)

#if defined(ALT_EXCEPTION_STACK) && defined(ALT_STACK_CHECK)
        ldw   et, %gprel(alt_exception_old_stack_limit)(gp)
#endif

        ldw   r8,  36(sp)
 40000d4:	da000917 	ldw	r8,36(sp)
        ldw   r9,  40(sp)
 40000d8:	da400a17 	ldw	r9,40(sp)
        ldw   r10, 44(sp)
 40000dc:	da800b17 	ldw	r10,44(sp)
        ldw   r11, 48(sp)
 40000e0:	dac00c17 	ldw	r11,48(sp)
        ldw   r12, 52(sp)
 40000e4:	db000d17 	ldw	r12,52(sp)
        ldw   r13, 56(sp)
 40000e8:	db400e17 	ldw	r13,56(sp)
        ldw   r14, 60(sp)
 40000ec:	db800f17 	ldw	r14,60(sp)
        ldw   r15, 64(sp)
 40000f0:	dbc01017 	ldw	r15,64(sp)
        stw   et, %gprel(alt_stack_limit_value)(gp)
        stw   zero, %gprel(alt_exception_old_stack_limit)(gp)
#endif /* ALT_STACK_CHECK */
        ldw   sp,  76(sp)
#else /* ALT_EXCEPTION_STACK disabled */
        addi  sp, sp, 76
 40000f4:	dec01304 	addi	sp,sp,76

        /*
         * Return to the interrupted instruction.
         */

        eret
 40000f8:	ef80083a 	eret

040000fc <alt_irq_handler>:
 * instruction is present if the macro ALT_CI_INTERRUPT_VECTOR defined.
 */

void alt_irq_handler (void) __attribute__ ((section (".exceptions")));
void alt_irq_handler (void)
{
 40000fc:	defff904 	addi	sp,sp,-28
 4000100:	dfc00615 	stw	ra,24(sp)
 4000104:	df000515 	stw	fp,20(sp)
 4000108:	df000504 	addi	fp,sp,20
  
  /*
   * Notify the operating system that we are at interrupt level.
   */ 
  
  ALT_OS_INT_ENTER();
 400010c:	0001883a 	nop
#ifndef NIOS2_EIC_PRESENT
static ALT_INLINE alt_u32 ALT_ALWAYS_INLINE alt_irq_pending (void)
{
  alt_u32 active;

  NIOS2_READ_IPENDING (active);
 4000110:	0005313a 	rdctl	r2,ipending
 4000114:	e0bffc15 	stw	r2,-16(fp)

  return active;
 4000118:	e0bffc17 	ldw	r2,-16(fp)
   * Consider the case where the high priority interupt is asserted during
   * the interrupt entry sequence for a lower priority interrupt to see why
   * this is the case.
   */

  active = alt_irq_pending ();
 400011c:	e0bfff15 	stw	r2,-4(fp)

  do
  {
    i = 0;
 4000120:	e03ffd15 	stw	zero,-12(fp)
    mask = 1;
 4000124:	00800044 	movi	r2,1
 4000128:	e0bffe15 	stw	r2,-8(fp)
     * called to clear the interrupt condition.
     */

    do
    {
      if (active & mask)
 400012c:	e0ffff17 	ldw	r3,-4(fp)
 4000130:	e0bffe17 	ldw	r2,-8(fp)
 4000134:	1884703a 	and	r2,r3,r2
 4000138:	10001126 	beq	r2,zero,4000180 <alt_irq_handler+0x84>
      { 
#ifdef ALT_ENHANCED_INTERRUPT_API_PRESENT
        alt_irq[i].handler(alt_irq[i].context); 
 400013c:	e0bffd17 	ldw	r2,-12(fp)
 4000140:	100690fa 	slli	r3,r2,3
 4000144:	00810074 	movhi	r2,1025
 4000148:	1885883a 	add	r2,r3,r2
 400014c:	10d33217 	ldw	r3,19656(r2)
 4000150:	e0bffd17 	ldw	r2,-12(fp)
 4000154:	100890fa 	slli	r4,r2,3
 4000158:	00810074 	movhi	r2,1025
 400015c:	2085883a 	add	r2,r4,r2
 4000160:	10933317 	ldw	r2,19660(r2)
 4000164:	1009883a 	mov	r4,r2
 4000168:	183ee83a 	callr	r3
#else
        alt_irq[i].handler(alt_irq[i].context, i); 
#endif
        break;
 400016c:	0001883a 	nop
  NIOS2_READ_IPENDING (active);
 4000170:	0005313a 	rdctl	r2,ipending
 4000174:	e0bffb15 	stw	r2,-20(fp)
  return active;
 4000178:	e0bffb17 	ldw	r2,-20(fp)
 400017c:	00000706 	br	400019c <alt_irq_handler+0xa0>
      }
      mask <<= 1;
 4000180:	e0bffe17 	ldw	r2,-8(fp)
 4000184:	1085883a 	add	r2,r2,r2
 4000188:	e0bffe15 	stw	r2,-8(fp)
      i++;
 400018c:	e0bffd17 	ldw	r2,-12(fp)
 4000190:	10800044 	addi	r2,r2,1
 4000194:	e0bffd15 	stw	r2,-12(fp)
      if (active & mask)
 4000198:	003fe406 	br	400012c <alt_irq_handler+0x30>

    } while (1);

    active = alt_irq_pending ();
 400019c:	e0bfff15 	stw	r2,-4(fp)
    
  } while (active);
 40001a0:	e0bfff17 	ldw	r2,-4(fp)
 40001a4:	103fde1e 	bne	r2,zero,4000120 <alt_irq_handler+0x24>

  /*
   * Notify the operating system that interrupt processing is complete.
   */ 

  ALT_OS_INT_EXIT();
 40001a8:	0001883a 	nop
}
 40001ac:	0001883a 	nop
 40001b0:	e037883a 	mov	sp,fp
 40001b4:	dfc00117 	ldw	ra,4(sp)
 40001b8:	df000017 	ldw	fp,0(sp)
 40001bc:	dec00204 	addi	sp,sp,8
 40001c0:	f800283a 	ret

040001c4 <alt_instruction_exception_entry>:
 * that handler if it has been registered. Absent a handler, it will
 * break break or hang as discussed below.
 */
int 
alt_instruction_exception_entry (alt_u32 exception_pc)
{
 40001c4:	defffb04 	addi	sp,sp,-20
 40001c8:	dfc00415 	stw	ra,16(sp)
 40001cc:	df000315 	stw	fp,12(sp)
 40001d0:	df000304 	addi	fp,sp,12
 40001d4:	e13ffd15 	stw	r4,-12(fp)
  cause = ( (cause & NIOS2_EXCEPTION_REG_CAUSE_MASK) >>
              NIOS2_EXCEPTION_REG_CAUSE_OFST );

  NIOS2_READ_BADADDR(badaddr);
#else
  cause = NIOS2_EXCEPTION_CAUSE_NOT_PRESENT;
 40001d8:	00bfffc4 	movi	r2,-1
 40001dc:	e0bfff15 	stw	r2,-4(fp)
  badaddr = 0;
 40001e0:	e03ffe15 	stw	zero,-8(fp)
#endif /* NIOS2_HAS_EXTRA_EXCEPTION_INFO */

  if(alt_instruction_exception_handler) {
 40001e4:	d0a74b17 	ldw	r2,-25300(gp)
 40001e8:	10000726 	beq	r2,zero,4000208 <alt_instruction_exception_entry+0x44>
     * Call handler. Its return value indicates whether the exception-causing
     * instruction should be re-issued. The code that called us,
     * alt_eceptions_entry.S, will look at this value and adjust the ea
     * register as necessary
     */
    return alt_instruction_exception_handler(cause, exception_pc, badaddr);
 40001ec:	d0a74b17 	ldw	r2,-25300(gp)
 40001f0:	e0ffff17 	ldw	r3,-4(fp)
 40001f4:	e1bffe17 	ldw	r6,-8(fp)
 40001f8:	e17ffd17 	ldw	r5,-12(fp)
 40001fc:	1809883a 	mov	r4,r3
 4000200:	103ee83a 	callr	r2
 4000204:	00000206 	br	4000210 <alt_instruction_exception_entry+0x4c>
   *    (a peripheral which negates its interrupt output before its
   *    interrupt handler has been executed will cause spurious interrupts)
   */
  else {
#ifdef NIOS2_HAS_DEBUG_STUB
    NIOS2_BREAK();
 4000208:	003da03a 	break	0
      ;
#endif /* NIOS2_HAS_DEBUG_STUB */
  }

  /* We should not get here. Remove compiler warning. */
  return NIOS2_EXCEPTION_RETURN_REISSUE_INST;
 400020c:	0005883a 	mov	r2,zero
}
 4000210:	e037883a 	mov	sp,fp
 4000214:	dfc00117 	ldw	ra,4(sp)
 4000218:	df000017 	ldw	fp,0(sp)
 400021c:	dec00204 	addi	sp,sp,8
 4000220:	f800283a 	ret

Disassembly of section .text:

04000224 <_start>:

    /*
     * Now that the caches are initialized, set up the stack pointer and global pointer.
     * The values provided by the linker are assumed to be correctly aligned.
     */
    movhi sp, %hi(__alt_stack_pointer)
 4000224:	06c10434 	movhi	sp,1040
    ori sp, sp, %lo(__alt_stack_pointer)
 4000228:	dec00014 	ori	sp,sp,0
    movhi gp, %hi(_gp)
 400022c:	06810074 	movhi	gp,1025
    ori gp, gp, %lo(_gp)
 4000230:	d6abdc14 	ori	gp,gp,44912
 */
#ifndef ALT_SIM_OPTIMIZE
    /* Log that the BSS is about to be cleared. */
    ALT_LOG_PUTS(alt_log_msg_bss)

    movhi r2, %hi(__bss_start)
 4000234:	00810074 	movhi	r2,1025
    ori r2, r2, %lo(__bss_start)
 4000238:	10931814 	ori	r2,r2,19552

    movhi r3, %hi(__bss_end)
 400023c:	00c10074 	movhi	r3,1025
    ori r3, r3, %lo(__bss_end)
 4000240:	18d37214 	ori	r3,r3,19912

    beq r2, r3, 1f
 4000244:	10c00326 	beq	r2,r3,4000254 <_start+0x30>

0:
    stw zero, (r2)
 4000248:	10000015 	stw	zero,0(r2)
    addi r2, r2, 4
 400024c:	10800104 	addi	r2,r2,4
    bltu r2, r3, 0b
 4000250:	10fffd36 	bltu	r2,r3,4000248 <_start+0x24>
     * section aren't defined until alt_load() has been called).
     */
    mov   et, zero
#endif

    call alt_load
 4000254:	400db780 	call	400db78 <alt_load>

    /* Log that alt_main is about to be called. */
    ALT_LOG_PUTS(alt_log_msg_alt_main)

    /* Call the C entry point. It should never return. */
    call alt_main
 4000258:	400dd180 	call	400dd18 <alt_main>

0400025c <alt_after_alt_main>:

    /* Wait in infinite loop in case alt_main does return. */
alt_after_alt_main:
    br alt_after_alt_main
 400025c:	003fff06 	br	400025c <alt_after_alt_main>

04000260 <main>:
alt_mutex_dev* matches_mutex;
altera_avalon_mailbox_dev* mbox_receive;
altera_avalon_mailbox_dev* mbox_send;

int main(void)
{
 4000260:	defffa04 	addi	sp,sp,-24
 4000264:	dfc00515 	stw	ra,20(sp)
 4000268:	df000415 	stw	fp,16(sp)
 400026c:	df000404 	addi	fp,sp,16
	alt_u32 message[2];
	alt_u32 consume_time;
	alt_u32 send_msg = ALL_DONE;
 4000270:	00800344 	movi	r2,13
 4000274:	e0bffc15 	stw	r2,-16(fp)

	// Get hardware mutex handle for tobacco and matches
	tobacco_mutex = altera_avalon_mutex_open(MUTEX_1_NAME);
 4000278:	01010074 	movhi	r4,1025
 400027c:	21030304 	addi	r4,r4,3084
 4000280:	400f7f40 	call	400f7f4 <altera_avalon_mutex_open>
 4000284:	d0a73c15 	stw	r2,-25360(gp)
	matches_mutex = altera_avalon_mutex_open(MUTEX_2_NAME);
 4000288:	01010074 	movhi	r4,1025
 400028c:	21030704 	addi	r4,r4,3100
 4000290:	400f7f40 	call	400f7f4 <altera_avalon_mutex_open>
 4000294:	d0a73d15 	stw	r2,-25356(gp)

	// Init the mailbox hps to fpga
	mbox_receive = altera_avalon_mailbox_open(MAILBOX_0_NAME, NULL, NULL);
 4000298:	000d883a 	mov	r6,zero
 400029c:	000b883a 	mov	r5,zero
 40002a0:	01010074 	movhi	r4,1025
 40002a4:	21030b04 	addi	r4,r4,3116
 40002a8:	400f13c0 	call	400f13c <altera_avalon_mailbox_open>
 40002ac:	d0a73e15 	stw	r2,-25352(gp)

	// Init the mailbox fpga to hps
	mbox_send = altera_avalon_mailbox_open(MAILBOX_4_NAME, NULL, NULL);
 40002b0:	000d883a 	mov	r6,zero
 40002b4:	000b883a 	mov	r5,zero
 40002b8:	01010074 	movhi	r4,1025
 40002bc:	21030f04 	addi	r4,r4,3132
 40002c0:	400f13c0 	call	400f13c <altera_avalon_mailbox_open>
 40002c4:	d0a73f15 	stw	r2,-25348(gp)

	while(1)
	{
		altera_avalon_mailbox_retrieve_poll(mbox_receive, message, 100);
 40002c8:	d0a73e17 	ldw	r2,-25352(gp)
 40002cc:	e0fffd04 	addi	r3,fp,-12
 40002d0:	01801904 	movi	r6,100
 40002d4:	180b883a 	mov	r5,r3
 40002d8:	1009883a 	mov	r4,r2
 40002dc:	400f6000 	call	400f600 <altera_avalon_mailbox_retrieve_poll>

		if (message[0] == MY_NEEDS)
 40002e0:	e0bffd17 	ldw	r2,-12(fp)
 40002e4:	10800058 	cmpnei	r2,r2,1
 40002e8:	10001f1e 	bne	r2,zero,4000368 <main+0x108>
		{
			// Acquire the mutex, setting the value to one
			altera_avalon_mutex_trylock(tobacco_mutex, 1);
 40002ec:	d0a73c17 	ldw	r2,-25360(gp)
 40002f0:	01400044 	movi	r5,1
 40002f4:	1009883a 	mov	r4,r2
 40002f8:	400f8b40 	call	400f8b4 <altera_avalon_mutex_trylock>
			altera_avalon_mutex_trylock(matches_mutex, 1);
 40002fc:	d0a73d17 	ldw	r2,-25356(gp)
 4000300:	01400044 	movi	r5,1
 4000304:	1009883a 	mov	r4,r2
 4000308:	400f8b40 	call	400f8b4 <altera_avalon_mutex_trylock>

			    // Smoking my cigarette
				consume_time = rand() % 10 + 1;
 400030c:	40005a80 	call	40005a8 <rand>
 4000310:	01400284 	movi	r5,10
 4000314:	1009883a 	mov	r4,r2
 4000318:	40003f80 	call	40003f8 <__modsi3>
 400031c:	10800044 	addi	r2,r2,1
 4000320:	e0bfff15 	stw	r2,-4(fp)
				printf("Smoker with paper, time: %ld\n", consume_time);
 4000324:	e17fff17 	ldw	r5,-4(fp)
 4000328:	01010074 	movhi	r4,1025
 400032c:	21031304 	addi	r4,r4,3148
 4000330:	400055c0 	call	400055c <printf>

			// Release the mutex
			altera_avalon_mutex_unlock(tobacco_mutex);
 4000334:	d0a73c17 	ldw	r2,-25360(gp)
 4000338:	1009883a 	mov	r4,r2
 400033c:	400f8f40 	call	400f8f4 <altera_avalon_mutex_unlock>
			altera_avalon_mutex_unlock(matches_mutex);
 4000340:	d0a73d17 	ldw	r2,-25356(gp)
 4000344:	1009883a 	mov	r4,r2
 4000348:	400f8f40 	call	400f8f4 <altera_avalon_mutex_unlock>

			// Telling the agent that I'm done smoking
			altera_avalon_mailbox_send(mbox_send, &send_msg, 0, POLL);
 400034c:	d0a73f17 	ldw	r2,-25348(gp)
 4000350:	e0fffc04 	addi	r3,fp,-16
 4000354:	01c00044 	movi	r7,1
 4000358:	000d883a 	mov	r6,zero
 400035c:	180b883a 	mov	r5,r3
 4000360:	1009883a 	mov	r4,r2
 4000364:	400f4b00 	call	400f4b0 <altera_avalon_mailbox_send>
		}

		usleep(1000100);
 4000368:	010003f4 	movhi	r4,15
 400036c:	2110a904 	addi	r4,r4,17060
 4000370:	400e0480 	call	400e048 <usleep>
		altera_avalon_mailbox_retrieve_poll(mbox_receive, message, 100);
 4000374:	003fd406 	br	40002c8 <main+0x68>

04000378 <__divsi3>:
 4000378:	20001a16 	blt	r4,zero,40003e4 <__divsi3+0x6c>
 400037c:	000f883a 	mov	r7,zero
 4000380:	2800020e 	bge	r5,zero,400038c <__divsi3+0x14>
 4000384:	014bc83a 	sub	r5,zero,r5
 4000388:	39c0005c 	xori	r7,r7,1
 400038c:	200d883a 	mov	r6,r4
 4000390:	00c00044 	movi	r3,1
 4000394:	2900092e 	bgeu	r5,r4,40003bc <__divsi3+0x44>
 4000398:	00800804 	movi	r2,32
 400039c:	00c00044 	movi	r3,1
 40003a0:	00000106 	br	40003a8 <__divsi3+0x30>
 40003a4:	10001226 	beq	r2,zero,40003f0 <__divsi3+0x78>
 40003a8:	294b883a 	add	r5,r5,r5
 40003ac:	10bfffc4 	addi	r2,r2,-1
 40003b0:	18c7883a 	add	r3,r3,r3
 40003b4:	293ffb36 	bltu	r5,r4,40003a4 <__divsi3+0x2c>
 40003b8:	18000d26 	beq	r3,zero,40003f0 <__divsi3+0x78>
 40003bc:	0005883a 	mov	r2,zero
 40003c0:	31400236 	bltu	r6,r5,40003cc <__divsi3+0x54>
 40003c4:	314dc83a 	sub	r6,r6,r5
 40003c8:	10c4b03a 	or	r2,r2,r3
 40003cc:	1806d07a 	srli	r3,r3,1
 40003d0:	280ad07a 	srli	r5,r5,1
 40003d4:	183ffa1e 	bne	r3,zero,40003c0 <__divsi3+0x48>
 40003d8:	38000126 	beq	r7,zero,40003e0 <__divsi3+0x68>
 40003dc:	0085c83a 	sub	r2,zero,r2
 40003e0:	f800283a 	ret
 40003e4:	0109c83a 	sub	r4,zero,r4
 40003e8:	01c00044 	movi	r7,1
 40003ec:	003fe406 	br	4000380 <__divsi3+0x8>
 40003f0:	0005883a 	mov	r2,zero
 40003f4:	003ff806 	br	40003d8 <__divsi3+0x60>

040003f8 <__modsi3>:
 40003f8:	20001916 	blt	r4,zero,4000460 <__modsi3+0x68>
 40003fc:	000f883a 	mov	r7,zero
 4000400:	2005883a 	mov	r2,r4
 4000404:	2800010e 	bge	r5,zero,400040c <__modsi3+0x14>
 4000408:	014bc83a 	sub	r5,zero,r5
 400040c:	00c00044 	movi	r3,1
 4000410:	2900092e 	bgeu	r5,r4,4000438 <__modsi3+0x40>
 4000414:	01800804 	movi	r6,32
 4000418:	00c00044 	movi	r3,1
 400041c:	00000106 	br	4000424 <__modsi3+0x2c>
 4000420:	30000d26 	beq	r6,zero,4000458 <__modsi3+0x60>
 4000424:	294b883a 	add	r5,r5,r5
 4000428:	31bfffc4 	addi	r6,r6,-1
 400042c:	18c7883a 	add	r3,r3,r3
 4000430:	293ffb36 	bltu	r5,r4,4000420 <__modsi3+0x28>
 4000434:	18000826 	beq	r3,zero,4000458 <__modsi3+0x60>
 4000438:	1806d07a 	srli	r3,r3,1
 400043c:	11400136 	bltu	r2,r5,4000444 <__modsi3+0x4c>
 4000440:	1145c83a 	sub	r2,r2,r5
 4000444:	280ad07a 	srli	r5,r5,1
 4000448:	183ffb1e 	bne	r3,zero,4000438 <__modsi3+0x40>
 400044c:	38000126 	beq	r7,zero,4000454 <__modsi3+0x5c>
 4000450:	0085c83a 	sub	r2,zero,r2
 4000454:	f800283a 	ret
 4000458:	2005883a 	mov	r2,r4
 400045c:	003ffb06 	br	400044c <__modsi3+0x54>
 4000460:	0109c83a 	sub	r4,zero,r4
 4000464:	01c00044 	movi	r7,1
 4000468:	003fe506 	br	4000400 <__modsi3+0x8>

0400046c <__udivsi3>:
 400046c:	200d883a 	mov	r6,r4
 4000470:	2900152e 	bgeu	r5,r4,40004c8 <__udivsi3+0x5c>
 4000474:	28001416 	blt	r5,zero,40004c8 <__udivsi3+0x5c>
 4000478:	00800804 	movi	r2,32
 400047c:	00c00044 	movi	r3,1
 4000480:	00000206 	br	400048c <__udivsi3+0x20>
 4000484:	10000e26 	beq	r2,zero,40004c0 <__udivsi3+0x54>
 4000488:	28000516 	blt	r5,zero,40004a0 <__udivsi3+0x34>
 400048c:	294b883a 	add	r5,r5,r5
 4000490:	10bfffc4 	addi	r2,r2,-1
 4000494:	18c7883a 	add	r3,r3,r3
 4000498:	293ffa36 	bltu	r5,r4,4000484 <__udivsi3+0x18>
 400049c:	18000826 	beq	r3,zero,40004c0 <__udivsi3+0x54>
 40004a0:	0005883a 	mov	r2,zero
 40004a4:	31400236 	bltu	r6,r5,40004b0 <__udivsi3+0x44>
 40004a8:	314dc83a 	sub	r6,r6,r5
 40004ac:	10c4b03a 	or	r2,r2,r3
 40004b0:	1806d07a 	srli	r3,r3,1
 40004b4:	280ad07a 	srli	r5,r5,1
 40004b8:	183ffa1e 	bne	r3,zero,40004a4 <__udivsi3+0x38>
 40004bc:	f800283a 	ret
 40004c0:	0005883a 	mov	r2,zero
 40004c4:	f800283a 	ret
 40004c8:	00c00044 	movi	r3,1
 40004cc:	003ff406 	br	40004a0 <__udivsi3+0x34>

040004d0 <__umodsi3>:
 40004d0:	2005883a 	mov	r2,r4
 40004d4:	2900132e 	bgeu	r5,r4,4000524 <__umodsi3+0x54>
 40004d8:	28001216 	blt	r5,zero,4000524 <__umodsi3+0x54>
 40004dc:	01800804 	movi	r6,32
 40004e0:	00c00044 	movi	r3,1
 40004e4:	00000206 	br	40004f0 <__umodsi3+0x20>
 40004e8:	30000c26 	beq	r6,zero,400051c <__umodsi3+0x4c>
 40004ec:	28000516 	blt	r5,zero,4000504 <__umodsi3+0x34>
 40004f0:	294b883a 	add	r5,r5,r5
 40004f4:	31bfffc4 	addi	r6,r6,-1
 40004f8:	18c7883a 	add	r3,r3,r3
 40004fc:	293ffa36 	bltu	r5,r4,40004e8 <__umodsi3+0x18>
 4000500:	18000626 	beq	r3,zero,400051c <__umodsi3+0x4c>
 4000504:	1806d07a 	srli	r3,r3,1
 4000508:	11400136 	bltu	r2,r5,4000510 <__umodsi3+0x40>
 400050c:	1145c83a 	sub	r2,r2,r5
 4000510:	280ad07a 	srli	r5,r5,1
 4000514:	183ffb1e 	bne	r3,zero,4000504 <__umodsi3+0x34>
 4000518:	f800283a 	ret
 400051c:	2005883a 	mov	r2,r4
 4000520:	f800283a 	ret
 4000524:	00c00044 	movi	r3,1
 4000528:	003ff606 	br	4000504 <__umodsi3+0x34>

0400052c <_printf_r>:
 400052c:	defffd04 	addi	sp,sp,-12
 4000530:	2805883a 	mov	r2,r5
 4000534:	dfc00015 	stw	ra,0(sp)
 4000538:	d9800115 	stw	r6,4(sp)
 400053c:	d9c00215 	stw	r7,8(sp)
 4000540:	21400217 	ldw	r5,8(r4)
 4000544:	d9c00104 	addi	r7,sp,4
 4000548:	100d883a 	mov	r6,r2
 400054c:	40006080 	call	4000608 <___vfprintf_internal_r>
 4000550:	dfc00017 	ldw	ra,0(sp)
 4000554:	dec00304 	addi	sp,sp,12
 4000558:	f800283a 	ret

0400055c <printf>:
 400055c:	defffc04 	addi	sp,sp,-16
 4000560:	dfc00015 	stw	ra,0(sp)
 4000564:	d9400115 	stw	r5,4(sp)
 4000568:	d9800215 	stw	r6,8(sp)
 400056c:	d9c00315 	stw	r7,12(sp)
 4000570:	00810074 	movhi	r2,1025
 4000574:	108bdd17 	ldw	r2,12148(r2)
 4000578:	200b883a 	mov	r5,r4
 400057c:	d9800104 	addi	r6,sp,4
 4000580:	11000217 	ldw	r4,8(r2)
 4000584:	400270c0 	call	400270c <__vfprintf_internal>
 4000588:	dfc00017 	ldw	ra,0(sp)
 400058c:	dec00404 	addi	sp,sp,16
 4000590:	f800283a 	ret

04000594 <srand>:
 4000594:	00810074 	movhi	r2,1025
 4000598:	108bdd17 	ldw	r2,12148(r2)
 400059c:	11002915 	stw	r4,164(r2)
 40005a0:	10002a15 	stw	zero,168(r2)
 40005a4:	f800283a 	ret

040005a8 <rand>:
 40005a8:	defffe04 	addi	sp,sp,-8
 40005ac:	00810074 	movhi	r2,1025
 40005b0:	dc000015 	stw	r16,0(sp)
 40005b4:	140bdd17 	ldw	r16,12148(r2)
 40005b8:	dfc00115 	stw	ra,4(sp)
 40005bc:	01932574 	movhi	r6,19605
 40005c0:	81002917 	ldw	r4,164(r16)
 40005c4:	81402a17 	ldw	r5,168(r16)
 40005c8:	01d614b4 	movhi	r7,22610
 40005cc:	319fcb44 	addi	r6,r6,32557
 40005d0:	39fd0b44 	addi	r7,r7,-3027
 40005d4:	400a1d80 	call	400a1d8 <__muldi3>
 40005d8:	11400044 	addi	r5,r2,1
 40005dc:	2885803a 	cmpltu	r2,r5,r2
 40005e0:	01200034 	movhi	r4,32768
 40005e4:	10c5883a 	add	r2,r2,r3
 40005e8:	213fffc4 	addi	r4,r4,-1
 40005ec:	80802a15 	stw	r2,168(r16)
 40005f0:	1104703a 	and	r2,r2,r4
 40005f4:	81402915 	stw	r5,164(r16)
 40005f8:	dfc00117 	ldw	ra,4(sp)
 40005fc:	dc000017 	ldw	r16,0(sp)
 4000600:	dec00204 	addi	sp,sp,8
 4000604:	f800283a 	ret

04000608 <___vfprintf_internal_r>:
 4000608:	deffbf04 	addi	sp,sp,-260
 400060c:	dfc04015 	stw	ra,256(sp)
 4000610:	dd803d15 	stw	r22,244(sp)
 4000614:	dcc03a15 	stw	r19,232(sp)
 4000618:	dc803915 	stw	r18,228(sp)
 400061c:	2027883a 	mov	r19,r4
 4000620:	2825883a 	mov	r18,r5
 4000624:	302d883a 	mov	r22,r6
 4000628:	d9c00615 	stw	r7,24(sp)
 400062c:	df003f15 	stw	fp,252(sp)
 4000630:	ddc03e15 	stw	r23,248(sp)
 4000634:	dd403c15 	stw	r21,240(sp)
 4000638:	dd003b15 	stw	r20,236(sp)
 400063c:	dc403815 	stw	r17,224(sp)
 4000640:	dc003715 	stw	r16,220(sp)
 4000644:	4004ecc0 	call	4004ecc <_localeconv_r>
 4000648:	10800017 	ldw	r2,0(r2)
 400064c:	1009883a 	mov	r4,r2
 4000650:	d8800d15 	stw	r2,52(sp)
 4000654:	4006f540 	call	4006f54 <strlen>
 4000658:	d8800b15 	stw	r2,44(sp)
 400065c:	98000226 	beq	r19,zero,4000668 <___vfprintf_internal_r+0x60>
 4000660:	98800e17 	ldw	r2,56(r19)
 4000664:	1001e026 	beq	r2,zero,4000de8 <___vfprintf_internal_r+0x7e0>
 4000668:	9080030b 	ldhu	r2,12(r18)
 400066c:	10c8000c 	andi	r3,r2,8192
 4000670:	1800061e 	bne	r3,zero,400068c <___vfprintf_internal_r+0x84>
 4000674:	90c01917 	ldw	r3,100(r18)
 4000678:	0137ffc4 	movi	r4,-8193
 400067c:	10880014 	ori	r2,r2,8192
 4000680:	1906703a 	and	r3,r3,r4
 4000684:	9080030d 	sth	r2,12(r18)
 4000688:	90c01915 	stw	r3,100(r18)
 400068c:	10c0020c 	andi	r3,r2,8
 4000690:	1800fc26 	beq	r3,zero,4000a84 <___vfprintf_internal_r+0x47c>
 4000694:	90c00417 	ldw	r3,16(r18)
 4000698:	1800fa26 	beq	r3,zero,4000a84 <___vfprintf_internal_r+0x47c>
 400069c:	1080068c 	andi	r2,r2,26
 40006a0:	10800298 	cmpnei	r2,r2,10
 40006a4:	1000ff26 	beq	r2,zero,4000aa4 <___vfprintf_internal_r+0x49c>
 40006a8:	d8802704 	addi	r2,sp,156
 40006ac:	b02f883a 	mov	r23,r22
 40006b0:	d8801a15 	stw	r2,104(sp)
 40006b4:	d8001c15 	stw	zero,112(sp)
 40006b8:	d8001b15 	stw	zero,108(sp)
 40006bc:	d8000815 	stw	zero,32(sp)
 40006c0:	d8000915 	stw	zero,36(sp)
 40006c4:	d8000a15 	stw	zero,40(sp)
 40006c8:	d8000c15 	stw	zero,48(sp)
 40006cc:	d8001015 	stw	zero,64(sp)
 40006d0:	d8000515 	stw	zero,20(sp)
 40006d4:	102d883a 	mov	r22,r2
 40006d8:	b8800007 	ldb	r2,0(r23)
 40006dc:	1000d726 	beq	r2,zero,4000a3c <___vfprintf_internal_r+0x434>
 40006e0:	b821883a 	mov	r16,r23
 40006e4:	00000306 	br	40006f4 <___vfprintf_internal_r+0xec>
 40006e8:	80800047 	ldb	r2,1(r16)
 40006ec:	84000044 	addi	r16,r16,1
 40006f0:	10012226 	beq	r2,zero,4000b7c <___vfprintf_internal_r+0x574>
 40006f4:	10800958 	cmpnei	r2,r2,37
 40006f8:	103ffb1e 	bne	r2,zero,40006e8 <___vfprintf_internal_r+0xe0>
 40006fc:	85e3c83a 	sub	r17,r16,r23
 4000700:	85c1201e 	bne	r16,r23,4000b84 <___vfprintf_internal_r+0x57c>
 4000704:	80800003 	ldbu	r2,0(r16)
 4000708:	10803fcc 	andi	r2,r2,255
 400070c:	1080201c 	xori	r2,r2,128
 4000710:	10bfe004 	addi	r2,r2,-128
 4000714:	1000c926 	beq	r2,zero,4000a3c <___vfprintf_internal_r+0x434>
 4000718:	82c00047 	ldb	r11,1(r16)
 400071c:	85c00044 	addi	r23,r16,1
 4000720:	d8001345 	stb	zero,77(sp)
 4000724:	0009883a 	mov	r4,zero
 4000728:	000b883a 	mov	r5,zero
 400072c:	023fffc4 	movi	r8,-1
 4000730:	0021883a 	mov	r16,zero
 4000734:	0019883a 	mov	r12,zero
 4000738:	bdc00044 	addi	r23,r23,1
 400073c:	5839883a 	mov	fp,r11
 4000740:	e0bff804 	addi	r2,fp,-32
 4000744:	10c01668 	cmpgeui	r3,r2,89
 4000748:	18006c1e 	bne	r3,zero,40008fc <___vfprintf_internal_r+0x2f4>
 400074c:	100490ba 	slli	r2,r2,2
 4000750:	00c10034 	movhi	r3,1024
 4000754:	10c7883a 	add	r3,r2,r3
 4000758:	1881d817 	ldw	r2,1888(r3)
 400075c:	1000683a 	jmp	r2
 4000760:	040010b0 	cmpltui	r16,zero,66
 4000764:	040008fc 	xorhi	r16,zero,35
 4000768:	040008fc 	xorhi	r16,zero,35
 400076c:	040010a4 	muli	r16,zero,66
 4000770:	040008fc 	xorhi	r16,zero,35
 4000774:	040008fc 	xorhi	r16,zero,35
 4000778:	040008fc 	xorhi	r16,zero,35
 400077c:	040008fc 	xorhi	r16,zero,35
 4000780:	040008fc 	xorhi	r16,zero,35
 4000784:	040008fc 	xorhi	r16,zero,35
 4000788:	0400107c 	xorhi	r16,zero,65
 400078c:	0400106c 	andhi	r16,zero,65
 4000790:	040008fc 	xorhi	r16,zero,35
 4000794:	04001054 	movui	r16,65
 4000798:	04001008 	cmpgei	r16,zero,64
 400079c:	040008fc 	xorhi	r16,zero,35
 40007a0:	04000ffc 	xorhi	r16,zero,63
 40007a4:	040008c4 	movi	r16,35
 40007a8:	040008c4 	movi	r16,35
 40007ac:	040008c4 	movi	r16,35
 40007b0:	040008c4 	movi	r16,35
 40007b4:	040008c4 	movi	r16,35
 40007b8:	040008c4 	movi	r16,35
 40007bc:	040008c4 	movi	r16,35
 40007c0:	040008c4 	movi	r16,35
 40007c4:	040008c4 	movi	r16,35
 40007c8:	040008fc 	xorhi	r16,zero,35
 40007cc:	040008fc 	xorhi	r16,zero,35
 40007d0:	040008fc 	xorhi	r16,zero,35
 40007d4:	040008fc 	xorhi	r16,zero,35
 40007d8:	040008fc 	xorhi	r16,zero,35
 40007dc:	040008fc 	xorhi	r16,zero,35
 40007e0:	040008fc 	xorhi	r16,zero,35
 40007e4:	040008fc 	xorhi	r16,zero,35
 40007e8:	040008fc 	xorhi	r16,zero,35
 40007ec:	040008fc 	xorhi	r16,zero,35
 40007f0:	04000f14 	movui	r16,60
 40007f4:	04000be0 	cmpeqi	r16,zero,47
 40007f8:	040008fc 	xorhi	r16,zero,35
 40007fc:	04000be0 	cmpeqi	r16,zero,47
 4000800:	040008fc 	xorhi	r16,zero,35
 4000804:	040008fc 	xorhi	r16,zero,35
 4000808:	040008fc 	xorhi	r16,zero,35
 400080c:	040008fc 	xorhi	r16,zero,35
 4000810:	04000f08 	cmpgei	r16,zero,60
 4000814:	040008fc 	xorhi	r16,zero,35
 4000818:	040008fc 	xorhi	r16,zero,35
 400081c:	04000b14 	movui	r16,44
 4000820:	040008fc 	xorhi	r16,zero,35
 4000824:	040008fc 	xorhi	r16,zero,35
 4000828:	040008fc 	xorhi	r16,zero,35
 400082c:	040008fc 	xorhi	r16,zero,35
 4000830:	040008fc 	xorhi	r16,zero,35
 4000834:	04000aec 	andhi	r16,zero,43
 4000838:	040008fc 	xorhi	r16,zero,35
 400083c:	040008fc 	xorhi	r16,zero,35
 4000840:	04000ec0 	call	4000ec <__alt_mem_sdram_controller_0-0x3bfff14>
 4000844:	040008fc 	xorhi	r16,zero,35
 4000848:	040008fc 	xorhi	r16,zero,35
 400084c:	040008fc 	xorhi	r16,zero,35
 4000850:	040008fc 	xorhi	r16,zero,35
 4000854:	040008fc 	xorhi	r16,zero,35
 4000858:	040008fc 	xorhi	r16,zero,35
 400085c:	040008fc 	xorhi	r16,zero,35
 4000860:	040008fc 	xorhi	r16,zero,35
 4000864:	040008fc 	xorhi	r16,zero,35
 4000868:	040008fc 	xorhi	r16,zero,35
 400086c:	04000e98 	cmpnei	r16,zero,58
 4000870:	04000df4 	movhi	r16,55
 4000874:	04000be0 	cmpeqi	r16,zero,47
 4000878:	04000be0 	cmpeqi	r16,zero,47
 400087c:	04000be0 	cmpeqi	r16,zero,47
 4000880:	04000e8c 	andi	r16,zero,58
 4000884:	04000df4 	movhi	r16,55
 4000888:	040008fc 	xorhi	r16,zero,35
 400088c:	040008fc 	xorhi	r16,zero,35
 4000890:	04001204 	movi	r16,72
 4000894:	040008fc 	xorhi	r16,zero,35
 4000898:	040011c8 	cmpgei	r16,zero,71
 400089c:	04000b18 	cmpnei	r16,zero,44
 40008a0:	04001188 	cmpgei	r16,zero,70
 40008a4:	0400117c 	xorhi	r16,zero,69
 40008a8:	040008fc 	xorhi	r16,zero,35
 40008ac:	04001124 	muli	r16,zero,68
 40008b0:	040008fc 	xorhi	r16,zero,35
 40008b4:	04000af0 	cmpltui	r16,zero,43
 40008b8:	040008fc 	xorhi	r16,zero,35
 40008bc:	040008fc 	xorhi	r16,zero,35
 40008c0:	040010dc 	xori	r16,zero,67
 40008c4:	0021883a 	mov	r16,zero
 40008c8:	e0fff404 	addi	r3,fp,-48
 40008cc:	800490ba 	slli	r2,r16,2
 40008d0:	bf000007 	ldb	fp,0(r23)
 40008d4:	bdc00044 	addi	r23,r23,1
 40008d8:	1421883a 	add	r16,r2,r16
 40008dc:	8421883a 	add	r16,r16,r16
 40008e0:	1c21883a 	add	r16,r3,r16
 40008e4:	e0fff404 	addi	r3,fp,-48
 40008e8:	188002b0 	cmpltui	r2,r3,10
 40008ec:	103ff71e 	bne	r2,zero,40008cc <___vfprintf_internal_r+0x2c4>
 40008f0:	e0bff804 	addi	r2,fp,-32
 40008f4:	10c01668 	cmpgeui	r3,r2,89
 40008f8:	183f9426 	beq	r3,zero,400074c <___vfprintf_internal_r+0x144>
 40008fc:	21003fcc 	andi	r4,r4,255
 4000900:	2006871e 	bne	r4,zero,4002320 <___vfprintf_internal_r+0x1d18>
 4000904:	e0004d26 	beq	fp,zero,4000a3c <___vfprintf_internal_r+0x434>
 4000908:	df001d05 	stb	fp,116(sp)
 400090c:	d8001345 	stb	zero,77(sp)
 4000910:	05000044 	movi	r20,1
 4000914:	05400044 	movi	r21,1
 4000918:	dc401d04 	addi	r17,sp,116
 400091c:	db000415 	stw	r12,16(sp)
 4000920:	0011883a 	mov	r8,zero
 4000924:	d8000715 	stw	zero,28(sp)
 4000928:	d8800417 	ldw	r2,16(sp)
 400092c:	1380008c 	andi	r14,r2,2
 4000930:	70000126 	beq	r14,zero,4000938 <___vfprintf_internal_r+0x330>
 4000934:	a5000084 	addi	r20,r20,2
 4000938:	d8800417 	ldw	r2,16(sp)
 400093c:	d8c01c17 	ldw	r3,112(sp)
 4000940:	1340210c 	andi	r13,r2,132
 4000944:	6800021e 	bne	r13,zero,4000950 <___vfprintf_internal_r+0x348>
 4000948:	850fc83a 	sub	r7,r16,r20
 400094c:	01c34516 	blt	zero,r7,4001664 <___vfprintf_internal_r+0x105c>
 4000950:	d8801347 	ldb	r2,77(sp)
 4000954:	10000c26 	beq	r2,zero,4000988 <___vfprintf_internal_r+0x380>
 4000958:	d8801b17 	ldw	r2,108(sp)
 400095c:	d9001344 	addi	r4,sp,77
 4000960:	18c00044 	addi	r3,r3,1
 4000964:	10800044 	addi	r2,r2,1
 4000968:	b1000015 	stw	r4,0(r22)
 400096c:	01000044 	movi	r4,1
 4000970:	d8801b15 	stw	r2,108(sp)
 4000974:	b1000115 	stw	r4,4(r22)
 4000978:	d8c01c15 	stw	r3,112(sp)
 400097c:	10800208 	cmpgei	r2,r2,8
 4000980:	1003791e 	bne	r2,zero,4001768 <___vfprintf_internal_r+0x1160>
 4000984:	b5800204 	addi	r22,r22,8
 4000988:	70000c26 	beq	r14,zero,40009bc <___vfprintf_internal_r+0x3b4>
 400098c:	d8801b17 	ldw	r2,108(sp)
 4000990:	d9001384 	addi	r4,sp,78
 4000994:	18c00084 	addi	r3,r3,2
 4000998:	10800044 	addi	r2,r2,1
 400099c:	b1000015 	stw	r4,0(r22)
 40009a0:	01000084 	movi	r4,2
 40009a4:	d8801b15 	stw	r2,108(sp)
 40009a8:	b1000115 	stw	r4,4(r22)
 40009ac:	d8c01c15 	stw	r3,112(sp)
 40009b0:	10800208 	cmpgei	r2,r2,8
 40009b4:	10037a1e 	bne	r2,zero,40017a0 <___vfprintf_internal_r+0x1198>
 40009b8:	b5800204 	addi	r22,r22,8
 40009bc:	6b402018 	cmpnei	r13,r13,128
 40009c0:	68025b26 	beq	r13,zero,4001330 <___vfprintf_internal_r+0xd28>
 40009c4:	4551c83a 	sub	r8,r8,r21
 40009c8:	02029316 	blt	zero,r8,4001418 <___vfprintf_internal_r+0xe10>
 40009cc:	d8800417 	ldw	r2,16(sp)
 40009d0:	1080400c 	andi	r2,r2,256
 40009d4:	1002101e 	bne	r2,zero,4001218 <___vfprintf_internal_r+0xc10>
 40009d8:	d8801b17 	ldw	r2,108(sp)
 40009dc:	1d47883a 	add	r3,r3,r21
 40009e0:	b4400015 	stw	r17,0(r22)
 40009e4:	10800044 	addi	r2,r2,1
 40009e8:	b5400115 	stw	r21,4(r22)
 40009ec:	d8801b15 	stw	r2,108(sp)
 40009f0:	d8c01c15 	stw	r3,112(sp)
 40009f4:	10800208 	cmpgei	r2,r2,8
 40009f8:	1003101e 	bne	r2,zero,400163c <___vfprintf_internal_r+0x1034>
 40009fc:	b5800204 	addi	r22,r22,8
 4000a00:	d8800417 	ldw	r2,16(sp)
 4000a04:	1440010c 	andi	r17,r2,4
 4000a08:	88000226 	beq	r17,zero,4000a14 <___vfprintf_internal_r+0x40c>
 4000a0c:	8523c83a 	sub	r17,r16,r20
 4000a10:	0440c616 	blt	zero,r17,4000d2c <___vfprintf_internal_r+0x724>
 4000a14:	8500010e 	bge	r16,r20,4000a1c <___vfprintf_internal_r+0x414>
 4000a18:	a021883a 	mov	r16,r20
 4000a1c:	d8800517 	ldw	r2,20(sp)
 4000a20:	1405883a 	add	r2,r2,r16
 4000a24:	d8800515 	stw	r2,20(sp)
 4000a28:	1802c21e 	bne	r3,zero,4001534 <___vfprintf_internal_r+0xf2c>
 4000a2c:	b8800007 	ldb	r2,0(r23)
 4000a30:	d8001b15 	stw	zero,108(sp)
 4000a34:	dd802704 	addi	r22,sp,156
 4000a38:	103f291e 	bne	r2,zero,40006e0 <___vfprintf_internal_r+0xd8>
 4000a3c:	d8801c17 	ldw	r2,112(sp)
 4000a40:	1006391e 	bne	r2,zero,4002328 <___vfprintf_internal_r+0x1d20>
 4000a44:	9080030b 	ldhu	r2,12(r18)
 4000a48:	1080100c 	andi	r2,r2,64
 4000a4c:	1006cf1e 	bne	r2,zero,400258c <___vfprintf_internal_r+0x1f84>
 4000a50:	d8800517 	ldw	r2,20(sp)
 4000a54:	dfc04017 	ldw	ra,256(sp)
 4000a58:	df003f17 	ldw	fp,252(sp)
 4000a5c:	ddc03e17 	ldw	r23,248(sp)
 4000a60:	dd803d17 	ldw	r22,244(sp)
 4000a64:	dd403c17 	ldw	r21,240(sp)
 4000a68:	dd003b17 	ldw	r20,236(sp)
 4000a6c:	dcc03a17 	ldw	r19,232(sp)
 4000a70:	dc803917 	ldw	r18,228(sp)
 4000a74:	dc403817 	ldw	r17,224(sp)
 4000a78:	dc003717 	ldw	r16,220(sp)
 4000a7c:	dec04104 	addi	sp,sp,260
 4000a80:	f800283a 	ret
 4000a84:	900b883a 	mov	r5,r18
 4000a88:	9809883a 	mov	r4,r19
 4000a8c:	40027e80 	call	40027e8 <__swsetup_r>
 4000a90:	1006be1e 	bne	r2,zero,400258c <___vfprintf_internal_r+0x1f84>
 4000a94:	9080030b 	ldhu	r2,12(r18)
 4000a98:	1080068c 	andi	r2,r2,26
 4000a9c:	10800298 	cmpnei	r2,r2,10
 4000aa0:	103f011e 	bne	r2,zero,40006a8 <___vfprintf_internal_r+0xa0>
 4000aa4:	9080038f 	ldh	r2,14(r18)
 4000aa8:	103eff16 	blt	r2,zero,40006a8 <___vfprintf_internal_r+0xa0>
 4000aac:	d9c00617 	ldw	r7,24(sp)
 4000ab0:	b00d883a 	mov	r6,r22
 4000ab4:	900b883a 	mov	r5,r18
 4000ab8:	9809883a 	mov	r4,r19
 4000abc:	dfc04017 	ldw	ra,256(sp)
 4000ac0:	df003f17 	ldw	fp,252(sp)
 4000ac4:	ddc03e17 	ldw	r23,248(sp)
 4000ac8:	dd803d17 	ldw	r22,244(sp)
 4000acc:	dd403c17 	ldw	r21,240(sp)
 4000ad0:	dd003b17 	ldw	r20,236(sp)
 4000ad4:	dcc03a17 	ldw	r19,232(sp)
 4000ad8:	dc803917 	ldw	r18,228(sp)
 4000adc:	dc403817 	ldw	r17,224(sp)
 4000ae0:	dc003717 	ldw	r16,220(sp)
 4000ae4:	dec04104 	addi	sp,sp,260
 4000ae8:	40027281 	jmpi	4002728 <__sbprintf>
 4000aec:	63000414 	ori	r12,r12,16
 4000af0:	6080080c 	andi	r2,r12,32
 4000af4:	10008126 	beq	r2,zero,4000cfc <___vfprintf_internal_r+0x6f4>
 4000af8:	d8c00617 	ldw	r3,24(sp)
 4000afc:	00800044 	movi	r2,1
 4000b00:	1d000017 	ldw	r20,0(r3)
 4000b04:	1d400117 	ldw	r21,4(r3)
 4000b08:	18c00204 	addi	r3,r3,8
 4000b0c:	d8c00615 	stw	r3,24(sp)
 4000b10:	00000906 	br	4000b38 <___vfprintf_internal_r+0x530>
 4000b14:	63000414 	ori	r12,r12,16
 4000b18:	6080080c 	andi	r2,r12,32
 4000b1c:	10006b26 	beq	r2,zero,4000ccc <___vfprintf_internal_r+0x6c4>
 4000b20:	d8c00617 	ldw	r3,24(sp)
 4000b24:	0005883a 	mov	r2,zero
 4000b28:	1d000017 	ldw	r20,0(r3)
 4000b2c:	1d400117 	ldw	r21,4(r3)
 4000b30:	18c00204 	addi	r3,r3,8
 4000b34:	d8c00615 	stw	r3,24(sp)
 4000b38:	d8001345 	stb	zero,77(sp)
 4000b3c:	40ffffe0 	cmpeqi	r3,r8,-1
 4000b40:	001b883a 	mov	r13,zero
 4000b44:	18010e1e 	bne	r3,zero,4000f80 <___vfprintf_internal_r+0x978>
 4000b48:	047fdfc4 	movi	r17,-129
 4000b4c:	6448703a 	and	r4,r12,r17
 4000b50:	a546b03a 	or	r3,r20,r21
 4000b54:	d9000415 	stw	r4,16(sp)
 4000b58:	1802c01e 	bne	r3,zero,400165c <___vfprintf_internal_r+0x1054>
 4000b5c:	40025f1e 	bne	r8,zero,40014dc <___vfprintf_internal_r+0xed4>
 4000b60:	1003751e 	bne	r2,zero,4001938 <___vfprintf_internal_r+0x1330>
 4000b64:	6540004c 	andi	r21,r12,1
 4000b68:	a803b026 	beq	r21,zero,4001a2c <___vfprintf_internal_r+0x1424>
 4000b6c:	00800c04 	movi	r2,48
 4000b70:	d88026c5 	stb	r2,155(sp)
 4000b74:	dc4026c4 	addi	r17,sp,155
 4000b78:	0000ba06 	br	4000e64 <___vfprintf_internal_r+0x85c>
 4000b7c:	85e3c83a 	sub	r17,r16,r23
 4000b80:	85ffae26 	beq	r16,r23,4000a3c <___vfprintf_internal_r+0x434>
 4000b84:	d8c01c17 	ldw	r3,112(sp)
 4000b88:	d8801b17 	ldw	r2,108(sp)
 4000b8c:	b5c00015 	stw	r23,0(r22)
 4000b90:	1c47883a 	add	r3,r3,r17
 4000b94:	10800044 	addi	r2,r2,1
 4000b98:	d8801b15 	stw	r2,108(sp)
 4000b9c:	b4400115 	stw	r17,4(r22)
 4000ba0:	d8c01c15 	stw	r3,112(sp)
 4000ba4:	10800208 	cmpgei	r2,r2,8
 4000ba8:	1000061e 	bne	r2,zero,4000bc4 <___vfprintf_internal_r+0x5bc>
 4000bac:	b5800204 	addi	r22,r22,8
 4000bb0:	d8c00517 	ldw	r3,20(sp)
 4000bb4:	80800003 	ldbu	r2,0(r16)
 4000bb8:	1c47883a 	add	r3,r3,r17
 4000bbc:	d8c00515 	stw	r3,20(sp)
 4000bc0:	003ed106 	br	4000708 <___vfprintf_internal_r+0x100>
 4000bc4:	d9801a04 	addi	r6,sp,104
 4000bc8:	900b883a 	mov	r5,r18
 4000bcc:	9809883a 	mov	r4,r19
 4000bd0:	40070e00 	call	40070e0 <__sprint_r>
 4000bd4:	103f9b1e 	bne	r2,zero,4000a44 <___vfprintf_internal_r+0x43c>
 4000bd8:	dd802704 	addi	r22,sp,156
 4000bdc:	003ff406 	br	4000bb0 <___vfprintf_internal_r+0x5a8>
 4000be0:	21003fcc 	andi	r4,r4,255
 4000be4:	2006671e 	bne	r4,zero,4002584 <___vfprintf_internal_r+0x1f7c>
 4000be8:	d8c00617 	ldw	r3,24(sp)
 4000bec:	6080020c 	andi	r2,r12,8
 4000bf0:	19000204 	addi	r4,r3,8
 4000bf4:	d9000e15 	stw	r4,56(sp)
 4000bf8:	1003a71e 	bne	r2,zero,4001a98 <___vfprintf_internal_r+0x1490>
 4000bfc:	d8800617 	ldw	r2,24(sp)
 4000c00:	10c00017 	ldw	r3,0(r2)
 4000c04:	10800117 	ldw	r2,4(r2)
 4000c08:	d8c00915 	stw	r3,36(sp)
 4000c0c:	d8800a15 	stw	r2,40(sp)
 4000c10:	dd400a17 	ldw	r21,40(sp)
 4000c14:	dd000917 	ldw	r20,36(sp)
 4000c18:	00a00034 	movhi	r2,32768
 4000c1c:	10bfffc4 	addi	r2,r2,-1
 4000c20:	a8a2703a 	and	r17,r21,r2
 4000c24:	01dffc34 	movhi	r7,32752
 4000c28:	01bfffc4 	movi	r6,-1
 4000c2c:	39ffffc4 	addi	r7,r7,-1
 4000c30:	a009883a 	mov	r4,r20
 4000c34:	880b883a 	mov	r5,r17
 4000c38:	da000615 	stw	r8,24(sp)
 4000c3c:	db000415 	stw	r12,16(sp)
 4000c40:	400d3b80 	call	400d3b8 <__unorddf2>
 4000c44:	db000417 	ldw	r12,16(sp)
 4000c48:	da000617 	ldw	r8,24(sp)
 4000c4c:	1004641e 	bne	r2,zero,4001de0 <___vfprintf_internal_r+0x17d8>
 4000c50:	01dffc34 	movhi	r7,32752
 4000c54:	01bfffc4 	movi	r6,-1
 4000c58:	39ffffc4 	addi	r7,r7,-1
 4000c5c:	a009883a 	mov	r4,r20
 4000c60:	880b883a 	mov	r5,r17
 4000c64:	400c2700 	call	400c270 <__ledf2>
 4000c68:	db000417 	ldw	r12,16(sp)
 4000c6c:	da000617 	ldw	r8,24(sp)
 4000c70:	00845b0e 	bge	zero,r2,4001de0 <___vfprintf_internal_r+0x17d8>
 4000c74:	000d883a 	mov	r6,zero
 4000c78:	000f883a 	mov	r7,zero
 4000c7c:	a009883a 	mov	r4,r20
 4000c80:	a80b883a 	mov	r5,r21
 4000c84:	400c2700 	call	400c270 <__ledf2>
 4000c88:	db000417 	ldw	r12,16(sp)
 4000c8c:	10059116 	blt	r2,zero,40022d4 <___vfprintf_internal_r+0x1ccc>
 4000c90:	db401343 	ldbu	r13,77(sp)
 4000c94:	e0801210 	cmplti	r2,fp,72
 4000c98:	1005391e 	bne	r2,zero,4002180 <___vfprintf_internal_r+0x1b78>
 4000c9c:	04410074 	movhi	r17,1025
 4000ca0:	8c431c04 	addi	r17,r17,3184
 4000ca4:	00bfdfc4 	movi	r2,-129
 4000ca8:	6084703a 	and	r2,r12,r2
 4000cac:	d8800415 	stw	r2,16(sp)
 4000cb0:	d8800e17 	ldw	r2,56(sp)
 4000cb4:	050000c4 	movi	r20,3
 4000cb8:	054000c4 	movi	r21,3
 4000cbc:	d8800615 	stw	r2,24(sp)
 4000cc0:	0011883a 	mov	r8,zero
 4000cc4:	d8000715 	stw	zero,28(sp)
 4000cc8:	00006a06 	br	4000e74 <___vfprintf_internal_r+0x86c>
 4000ccc:	d9000617 	ldw	r4,24(sp)
 4000cd0:	6080040c 	andi	r2,r12,16
 4000cd4:	20c00104 	addi	r3,r4,4
 4000cd8:	10036a1e 	bne	r2,zero,4001a84 <___vfprintf_internal_r+0x147c>
 4000cdc:	6080100c 	andi	r2,r12,64
 4000ce0:	10052126 	beq	r2,zero,4002168 <___vfprintf_internal_r+0x1b60>
 4000ce4:	d8800617 	ldw	r2,24(sp)
 4000ce8:	002b883a 	mov	r21,zero
 4000cec:	d8c00615 	stw	r3,24(sp)
 4000cf0:	1500000b 	ldhu	r20,0(r2)
 4000cf4:	0005883a 	mov	r2,zero
 4000cf8:	003f8f06 	br	4000b38 <___vfprintf_internal_r+0x530>
 4000cfc:	d9000617 	ldw	r4,24(sp)
 4000d00:	6080040c 	andi	r2,r12,16
 4000d04:	20c00104 	addi	r3,r4,4
 4000d08:	1003501e 	bne	r2,zero,4001a4c <___vfprintf_internal_r+0x1444>
 4000d0c:	6080100c 	andi	r2,r12,64
 4000d10:	10055926 	beq	r2,zero,4002278 <___vfprintf_internal_r+0x1c70>
 4000d14:	d8800617 	ldw	r2,24(sp)
 4000d18:	002b883a 	mov	r21,zero
 4000d1c:	d8c00615 	stw	r3,24(sp)
 4000d20:	1500000b 	ldhu	r20,0(r2)
 4000d24:	00800044 	movi	r2,1
 4000d28:	003f8306 	br	4000b38 <___vfprintf_internal_r+0x530>
 4000d2c:	03010074 	movhi	r12,1025
 4000d30:	89000450 	cmplti	r4,r17,17
 4000d34:	d8801b17 	ldw	r2,108(sp)
 4000d38:	63033004 	addi	r12,r12,3264
 4000d3c:	20001b1e 	bne	r4,zero,4000dac <___vfprintf_internal_r+0x7a4>
 4000d40:	05400404 	movi	r21,16
 4000d44:	6039883a 	mov	fp,r12
 4000d48:	00000406 	br	4000d5c <___vfprintf_internal_r+0x754>
 4000d4c:	8c7ffc04 	addi	r17,r17,-16
 4000d50:	89000448 	cmpgei	r4,r17,17
 4000d54:	b5800204 	addi	r22,r22,8
 4000d58:	20001326 	beq	r4,zero,4000da8 <___vfprintf_internal_r+0x7a0>
 4000d5c:	10800044 	addi	r2,r2,1
 4000d60:	18c00404 	addi	r3,r3,16
 4000d64:	b7000015 	stw	fp,0(r22)
 4000d68:	b5400115 	stw	r21,4(r22)
 4000d6c:	d8c01c15 	stw	r3,112(sp)
 4000d70:	d8801b15 	stw	r2,108(sp)
 4000d74:	11000208 	cmpgei	r4,r2,8
 4000d78:	203ff426 	beq	r4,zero,4000d4c <___vfprintf_internal_r+0x744>
 4000d7c:	d9801a04 	addi	r6,sp,104
 4000d80:	900b883a 	mov	r5,r18
 4000d84:	9809883a 	mov	r4,r19
 4000d88:	40070e00 	call	40070e0 <__sprint_r>
 4000d8c:	103f2d1e 	bne	r2,zero,4000a44 <___vfprintf_internal_r+0x43c>
 4000d90:	8c7ffc04 	addi	r17,r17,-16
 4000d94:	89000448 	cmpgei	r4,r17,17
 4000d98:	d8c01c17 	ldw	r3,112(sp)
 4000d9c:	d8801b17 	ldw	r2,108(sp)
 4000da0:	dd802704 	addi	r22,sp,156
 4000da4:	203fed1e 	bne	r4,zero,4000d5c <___vfprintf_internal_r+0x754>
 4000da8:	e019883a 	mov	r12,fp
 4000dac:	10800044 	addi	r2,r2,1
 4000db0:	1c47883a 	add	r3,r3,r17
 4000db4:	d8801b15 	stw	r2,108(sp)
 4000db8:	b3000015 	stw	r12,0(r22)
 4000dbc:	b4400115 	stw	r17,4(r22)
 4000dc0:	d8c01c15 	stw	r3,112(sp)
 4000dc4:	10800210 	cmplti	r2,r2,8
 4000dc8:	103f121e 	bne	r2,zero,4000a14 <___vfprintf_internal_r+0x40c>
 4000dcc:	d9801a04 	addi	r6,sp,104
 4000dd0:	900b883a 	mov	r5,r18
 4000dd4:	9809883a 	mov	r4,r19
 4000dd8:	40070e00 	call	40070e0 <__sprint_r>
 4000ddc:	103f191e 	bne	r2,zero,4000a44 <___vfprintf_internal_r+0x43c>
 4000de0:	d8c01c17 	ldw	r3,112(sp)
 4000de4:	003f0b06 	br	4000a14 <___vfprintf_internal_r+0x40c>
 4000de8:	9809883a 	mov	r4,r19
 4000dec:	40049240 	call	4004924 <__sinit>
 4000df0:	003e1d06 	br	4000668 <___vfprintf_internal_r+0x60>
 4000df4:	21003fcc 	andi	r4,r4,255
 4000df8:	2005de1e 	bne	r4,zero,4002574 <___vfprintf_internal_r+0x1f6c>
 4000dfc:	6080080c 	andi	r2,r12,32
 4000e00:	10004926 	beq	r2,zero,4000f28 <___vfprintf_internal_r+0x920>
 4000e04:	d8c00617 	ldw	r3,24(sp)
 4000e08:	18800117 	ldw	r2,4(r3)
 4000e0c:	1d000017 	ldw	r20,0(r3)
 4000e10:	18c00204 	addi	r3,r3,8
 4000e14:	d8c00615 	stw	r3,24(sp)
 4000e18:	102b883a 	mov	r21,r2
 4000e1c:	10004e16 	blt	r2,zero,4000f58 <___vfprintf_internal_r+0x950>
 4000e20:	40bfffd8 	cmpnei	r2,r8,-1
 4000e24:	db401343 	ldbu	r13,77(sp)
 4000e28:	10000626 	beq	r2,zero,4000e44 <___vfprintf_internal_r+0x83c>
 4000e2c:	047fdfc4 	movi	r17,-129
 4000e30:	6446703a 	and	r3,r12,r17
 4000e34:	a544b03a 	or	r2,r20,r21
 4000e38:	d8c00415 	stw	r3,16(sp)
 4000e3c:	1002bd26 	beq	r2,zero,4001934 <___vfprintf_internal_r+0x132c>
 4000e40:	db000417 	ldw	r12,16(sp)
 4000e44:	a803701e 	bne	r21,zero,4001c08 <___vfprintf_internal_r+0x1600>
 4000e48:	a08002a8 	cmpgeui	r2,r20,10
 4000e4c:	10036e1e 	bne	r2,zero,4001c08 <___vfprintf_internal_r+0x1600>
 4000e50:	a5000c04 	addi	r20,r20,48
 4000e54:	dd0026c5 	stb	r20,155(sp)
 4000e58:	db000415 	stw	r12,16(sp)
 4000e5c:	05400044 	movi	r21,1
 4000e60:	dc4026c4 	addi	r17,sp,155
 4000e64:	4029883a 	mov	r20,r8
 4000e68:	4540010e 	bge	r8,r21,4000e70 <___vfprintf_internal_r+0x868>
 4000e6c:	a829883a 	mov	r20,r21
 4000e70:	d8000715 	stw	zero,28(sp)
 4000e74:	6b403fcc 	andi	r13,r13,255
 4000e78:	6b40201c 	xori	r13,r13,128
 4000e7c:	6b7fe004 	addi	r13,r13,-128
 4000e80:	683ea926 	beq	r13,zero,4000928 <___vfprintf_internal_r+0x320>
 4000e84:	a5000044 	addi	r20,r20,1
 4000e88:	003ea706 	br	4000928 <___vfprintf_internal_r+0x320>
 4000e8c:	bac00007 	ldb	r11,0(r23)
 4000e90:	63001014 	ori	r12,r12,64
 4000e94:	003e2806 	br	4000738 <___vfprintf_internal_r+0x130>
 4000e98:	d8c00617 	ldw	r3,24(sp)
 4000e9c:	d8001345 	stb	zero,77(sp)
 4000ea0:	05000044 	movi	r20,1
 4000ea4:	18800017 	ldw	r2,0(r3)
 4000ea8:	18c00104 	addi	r3,r3,4
 4000eac:	d8c00615 	stw	r3,24(sp)
 4000eb0:	d8801d05 	stb	r2,116(sp)
 4000eb4:	05400044 	movi	r21,1
 4000eb8:	dc401d04 	addi	r17,sp,116
 4000ebc:	003e9706 	br	400091c <___vfprintf_internal_r+0x314>
 4000ec0:	21003fcc 	andi	r4,r4,255
 4000ec4:	2005a71e 	bne	r4,zero,4002564 <___vfprintf_internal_r+0x1f5c>
 4000ec8:	00810074 	movhi	r2,1025
 4000ecc:	10832404 	addi	r2,r2,3216
 4000ed0:	d8800c15 	stw	r2,48(sp)
 4000ed4:	6080080c 	andi	r2,r12,32
 4000ed8:	10008726 	beq	r2,zero,40010f8 <___vfprintf_internal_r+0xaf0>
 4000edc:	d8800617 	ldw	r2,24(sp)
 4000ee0:	15000017 	ldw	r20,0(r2)
 4000ee4:	15400117 	ldw	r21,4(r2)
 4000ee8:	10800204 	addi	r2,r2,8
 4000eec:	d8800615 	stw	r2,24(sp)
 4000ef0:	6080004c 	andi	r2,r12,1
 4000ef4:	10000226 	beq	r2,zero,4000f00 <___vfprintf_internal_r+0x8f8>
 4000ef8:	a544b03a 	or	r2,r20,r21
 4000efc:	1002cd1e 	bne	r2,zero,4001a34 <___vfprintf_internal_r+0x142c>
 4000f00:	00800084 	movi	r2,2
 4000f04:	003f0c06 	br	4000b38 <___vfprintf_internal_r+0x530>
 4000f08:	bac00007 	ldb	r11,0(r23)
 4000f0c:	63000214 	ori	r12,r12,8
 4000f10:	003e0906 	br	4000738 <___vfprintf_internal_r+0x130>
 4000f14:	21003fcc 	andi	r4,r4,255
 4000f18:	2005981e 	bne	r4,zero,400257c <___vfprintf_internal_r+0x1f74>
 4000f1c:	63000414 	ori	r12,r12,16
 4000f20:	6080080c 	andi	r2,r12,32
 4000f24:	103fb71e 	bne	r2,zero,4000e04 <___vfprintf_internal_r+0x7fc>
 4000f28:	d9000617 	ldw	r4,24(sp)
 4000f2c:	6080040c 	andi	r2,r12,16
 4000f30:	20c00104 	addi	r3,r4,4
 4000f34:	1002dd1e 	bne	r2,zero,4001aac <___vfprintf_internal_r+0x14a4>
 4000f38:	6080100c 	andi	r2,r12,64
 4000f3c:	10048426 	beq	r2,zero,4002150 <___vfprintf_internal_r+0x1b48>
 4000f40:	d8800617 	ldw	r2,24(sp)
 4000f44:	d8c00615 	stw	r3,24(sp)
 4000f48:	1500000f 	ldh	r20,0(r2)
 4000f4c:	a02bd7fa 	srai	r21,r20,31
 4000f50:	a805883a 	mov	r2,r21
 4000f54:	103fb20e 	bge	r2,zero,4000e20 <___vfprintf_internal_r+0x818>
 4000f58:	a004c03a 	cmpne	r2,r20,zero
 4000f5c:	056bc83a 	sub	r21,zero,r21
 4000f60:	a8abc83a 	sub	r21,r21,r2
 4000f64:	00800b44 	movi	r2,45
 4000f68:	d8801345 	stb	r2,77(sp)
 4000f6c:	40ffffe0 	cmpeqi	r3,r8,-1
 4000f70:	0529c83a 	sub	r20,zero,r20
 4000f74:	03400b44 	movi	r13,45
 4000f78:	00800044 	movi	r2,1
 4000f7c:	183ef226 	beq	r3,zero,4000b48 <___vfprintf_internal_r+0x540>
 4000f80:	10c00060 	cmpeqi	r3,r2,1
 4000f84:	183faf1e 	bne	r3,zero,4000e44 <___vfprintf_internal_r+0x83c>
 4000f88:	108000a0 	cmpeqi	r2,r2,2
 4000f8c:	1001581e 	bne	r2,zero,40014f0 <___vfprintf_internal_r+0xee8>
 4000f90:	dc402704 	addi	r17,sp,156
 4000f94:	a006d0fa 	srli	r3,r20,3
 4000f98:	a808977a 	slli	r4,r21,29
 4000f9c:	a82ad0fa 	srli	r21,r21,3
 4000fa0:	a50001cc 	andi	r20,r20,7
 4000fa4:	a0800c04 	addi	r2,r20,48
 4000fa8:	20e8b03a 	or	r20,r4,r3
 4000fac:	88bfffc5 	stb	r2,-1(r17)
 4000fb0:	a546b03a 	or	r3,r20,r21
 4000fb4:	880b883a 	mov	r5,r17
 4000fb8:	8c7fffc4 	addi	r17,r17,-1
 4000fbc:	183ff51e 	bne	r3,zero,4000f94 <___vfprintf_internal_r+0x98c>
 4000fc0:	60c0004c 	andi	r3,r12,1
 4000fc4:	18015726 	beq	r3,zero,4001524 <___vfprintf_internal_r+0xf1c>
 4000fc8:	10803fcc 	andi	r2,r2,255
 4000fcc:	1080201c 	xori	r2,r2,128
 4000fd0:	10bfe004 	addi	r2,r2,-128
 4000fd4:	10800c18 	cmpnei	r2,r2,48
 4000fd8:	10015226 	beq	r2,zero,4001524 <___vfprintf_internal_r+0xf1c>
 4000fdc:	00800c04 	movi	r2,48
 4000fe0:	297fff84 	addi	r5,r5,-2
 4000fe4:	88bfffc5 	stb	r2,-1(r17)
 4000fe8:	d8802704 	addi	r2,sp,156
 4000fec:	116bc83a 	sub	r21,r2,r5
 4000ff0:	db000415 	stw	r12,16(sp)
 4000ff4:	2823883a 	mov	r17,r5
 4000ff8:	003f9a06 	br	4000e64 <___vfprintf_internal_r+0x85c>
 4000ffc:	bac00007 	ldb	r11,0(r23)
 4001000:	63002014 	ori	r12,r12,128
 4001004:	003dcc06 	br	4000738 <___vfprintf_internal_r+0x130>
 4001008:	bf000007 	ldb	fp,0(r23)
 400100c:	b8800044 	addi	r2,r23,1
 4001010:	e0c00aa0 	cmpeqi	r3,fp,42
 4001014:	1805b11e 	bne	r3,zero,40026dc <___vfprintf_internal_r+0x20d4>
 4001018:	e0fff404 	addi	r3,fp,-48
 400101c:	198002b0 	cmpltui	r6,r3,10
 4001020:	102f883a 	mov	r23,r2
 4001024:	0011883a 	mov	r8,zero
 4001028:	303dc526 	beq	r6,zero,4000740 <___vfprintf_internal_r+0x138>
 400102c:	400490ba 	slli	r2,r8,2
 4001030:	bf000007 	ldb	fp,0(r23)
 4001034:	bdc00044 	addi	r23,r23,1
 4001038:	1211883a 	add	r8,r2,r8
 400103c:	4211883a 	add	r8,r8,r8
 4001040:	40d1883a 	add	r8,r8,r3
 4001044:	e0fff404 	addi	r3,fp,-48
 4001048:	188002b0 	cmpltui	r2,r3,10
 400104c:	103ff71e 	bne	r2,zero,400102c <___vfprintf_internal_r+0xa24>
 4001050:	003dbb06 	br	4000740 <___vfprintf_internal_r+0x138>
 4001054:	bf000003 	ldbu	fp,0(r23)
 4001058:	e2c03fcc 	andi	r11,fp,255
 400105c:	5ac0201c 	xori	r11,r11,128
 4001060:	63000114 	ori	r12,r12,4
 4001064:	5affe004 	addi	r11,r11,-128
 4001068:	003db306 	br	4000738 <___vfprintf_internal_r+0x130>
 400106c:	bac00007 	ldb	r11,0(r23)
 4001070:	01000044 	movi	r4,1
 4001074:	01400ac4 	movi	r5,43
 4001078:	003daf06 	br	4000738 <___vfprintf_internal_r+0x130>
 400107c:	d8800617 	ldw	r2,24(sp)
 4001080:	bf000003 	ldbu	fp,0(r23)
 4001084:	14000017 	ldw	r16,0(r2)
 4001088:	10800104 	addi	r2,r2,4
 400108c:	80028c16 	blt	r16,zero,4001ac0 <___vfprintf_internal_r+0x14b8>
 4001090:	d8800615 	stw	r2,24(sp)
 4001094:	e2c03fcc 	andi	r11,fp,255
 4001098:	5ac0201c 	xori	r11,r11,128
 400109c:	5affe004 	addi	r11,r11,-128
 40010a0:	003da506 	br	4000738 <___vfprintf_internal_r+0x130>
 40010a4:	bac00007 	ldb	r11,0(r23)
 40010a8:	63000054 	ori	r12,r12,1
 40010ac:	003da206 	br	4000738 <___vfprintf_internal_r+0x130>
 40010b0:	28803fcc 	andi	r2,r5,255
 40010b4:	1080201c 	xori	r2,r2,128
 40010b8:	10bfe004 	addi	r2,r2,-128
 40010bc:	bf000003 	ldbu	fp,0(r23)
 40010c0:	103ff41e 	bne	r2,zero,4001094 <___vfprintf_internal_r+0xa8c>
 40010c4:	e2c03fcc 	andi	r11,fp,255
 40010c8:	5ac0201c 	xori	r11,r11,128
 40010cc:	01000044 	movi	r4,1
 40010d0:	01400804 	movi	r5,32
 40010d4:	5affe004 	addi	r11,r11,-128
 40010d8:	003d9706 	br	4000738 <___vfprintf_internal_r+0x130>
 40010dc:	21003fcc 	andi	r4,r4,255
 40010e0:	20051e1e 	bne	r4,zero,400255c <___vfprintf_internal_r+0x1f54>
 40010e4:	00810074 	movhi	r2,1025
 40010e8:	10831f04 	addi	r2,r2,3196
 40010ec:	d8800c15 	stw	r2,48(sp)
 40010f0:	6080080c 	andi	r2,r12,32
 40010f4:	103f791e 	bne	r2,zero,4000edc <___vfprintf_internal_r+0x8d4>
 40010f8:	d9000617 	ldw	r4,24(sp)
 40010fc:	6080040c 	andi	r2,r12,16
 4001100:	20c00104 	addi	r3,r4,4
 4001104:	10025b1e 	bne	r2,zero,4001a74 <___vfprintf_internal_r+0x146c>
 4001108:	6080100c 	andi	r2,r12,64
 400110c:	10046026 	beq	r2,zero,4002290 <___vfprintf_internal_r+0x1c88>
 4001110:	d8800617 	ldw	r2,24(sp)
 4001114:	002b883a 	mov	r21,zero
 4001118:	d8c00615 	stw	r3,24(sp)
 400111c:	1500000b 	ldhu	r20,0(r2)
 4001120:	003f7306 	br	4000ef0 <___vfprintf_internal_r+0x8e8>
 4001124:	d8800617 	ldw	r2,24(sp)
 4001128:	d8001345 	stb	zero,77(sp)
 400112c:	14400017 	ldw	r17,0(r2)
 4001130:	10c00104 	addi	r3,r2,4
 4001134:	88028e26 	beq	r17,zero,4001b70 <___vfprintf_internal_r+0x1568>
 4001138:	40bfffe0 	cmpeqi	r2,r8,-1
 400113c:	1003c01e 	bne	r2,zero,4002040 <___vfprintf_internal_r+0x1a38>
 4001140:	400d883a 	mov	r6,r8
 4001144:	000b883a 	mov	r5,zero
 4001148:	8809883a 	mov	r4,r17
 400114c:	d8c00715 	stw	r3,28(sp)
 4001150:	db000615 	stw	r12,24(sp)
 4001154:	da000415 	stw	r8,16(sp)
 4001158:	400590c0 	call	400590c <memchr>
 400115c:	da000417 	ldw	r8,16(sp)
 4001160:	db000617 	ldw	r12,24(sp)
 4001164:	d8c00717 	ldw	r3,28(sp)
 4001168:	1004ec26 	beq	r2,zero,400251c <___vfprintf_internal_r+0x1f14>
 400116c:	146bc83a 	sub	r21,r2,r17
 4001170:	a829883a 	mov	r20,r21
 4001174:	d8c00615 	stw	r3,24(sp)
 4001178:	003de806 	br	400091c <___vfprintf_internal_r+0x314>
 400117c:	bac00007 	ldb	r11,0(r23)
 4001180:	63000814 	ori	r12,r12,32
 4001184:	003d6c06 	br	4000738 <___vfprintf_internal_r+0x130>
 4001188:	d8c00617 	ldw	r3,24(sp)
 400118c:	00800c04 	movi	r2,48
 4001190:	d8801385 	stb	r2,78(sp)
 4001194:	00801e04 	movi	r2,120
 4001198:	01010074 	movhi	r4,1025
 400119c:	d88013c5 	stb	r2,79(sp)
 40011a0:	18800104 	addi	r2,r3,4
 40011a4:	d8800615 	stw	r2,24(sp)
 40011a8:	20831f04 	addi	r2,r4,3196
 40011ac:	d8800c15 	stw	r2,48(sp)
 40011b0:	1d000017 	ldw	r20,0(r3)
 40011b4:	002b883a 	mov	r21,zero
 40011b8:	63000094 	ori	r12,r12,2
 40011bc:	00800084 	movi	r2,2
 40011c0:	07001e04 	movi	fp,120
 40011c4:	003e5c06 	br	4000b38 <___vfprintf_internal_r+0x530>
 40011c8:	21003fcc 	andi	r4,r4,255
 40011cc:	2004e71e 	bne	r4,zero,400256c <___vfprintf_internal_r+0x1f64>
 40011d0:	d9000617 	ldw	r4,24(sp)
 40011d4:	6080080c 	andi	r2,r12,32
 40011d8:	20c00017 	ldw	r3,0(r4)
 40011dc:	21000104 	addi	r4,r4,4
 40011e0:	d9000615 	stw	r4,24(sp)
 40011e4:	10021e1e 	bne	r2,zero,4001a60 <___vfprintf_internal_r+0x1458>
 40011e8:	6080040c 	andi	r2,r12,16
 40011ec:	1002ae1e 	bne	r2,zero,4001ca8 <___vfprintf_internal_r+0x16a0>
 40011f0:	6300100c 	andi	r12,r12,64
 40011f4:	6002ac26 	beq	r12,zero,4001ca8 <___vfprintf_internal_r+0x16a0>
 40011f8:	d8800517 	ldw	r2,20(sp)
 40011fc:	1880000d 	sth	r2,0(r3)
 4001200:	003d3506 	br	40006d8 <___vfprintf_internal_r+0xd0>
 4001204:	bac00007 	ldb	r11,0(r23)
 4001208:	58801b18 	cmpnei	r2,r11,108
 400120c:	10024926 	beq	r2,zero,4001b34 <___vfprintf_internal_r+0x152c>
 4001210:	63000414 	ori	r12,r12,16
 4001214:	003d4806 	br	4000738 <___vfprintf_internal_r+0x130>
 4001218:	e2c01990 	cmplti	r11,fp,102
 400121c:	5800cb1e 	bne	r11,zero,400154c <___vfprintf_internal_r+0xf44>
 4001220:	d9000917 	ldw	r4,36(sp)
 4001224:	d9400a17 	ldw	r5,40(sp)
 4001228:	000d883a 	mov	r6,zero
 400122c:	000f883a 	mov	r7,zero
 4001230:	d8c00e15 	stw	r3,56(sp)
 4001234:	400c1080 	call	400c108 <__eqdf2>
 4001238:	d8c00e17 	ldw	r3,56(sp)
 400123c:	1001641e 	bne	r2,zero,40017d0 <___vfprintf_internal_r+0x11c8>
 4001240:	d8801b17 	ldw	r2,108(sp)
 4001244:	01010074 	movhi	r4,1025
 4001248:	21032b04 	addi	r4,r4,3244
 400124c:	10800044 	addi	r2,r2,1
 4001250:	18c00044 	addi	r3,r3,1
 4001254:	b1000015 	stw	r4,0(r22)
 4001258:	01000044 	movi	r4,1
 400125c:	d8801b15 	stw	r2,108(sp)
 4001260:	b1000115 	stw	r4,4(r22)
 4001264:	d8c01c15 	stw	r3,112(sp)
 4001268:	10800208 	cmpgei	r2,r2,8
 400126c:	1003621e 	bne	r2,zero,4001ff8 <___vfprintf_internal_r+0x19f0>
 4001270:	b5800204 	addi	r22,r22,8
 4001274:	d8801417 	ldw	r2,80(sp)
 4001278:	d9000817 	ldw	r4,32(sp)
 400127c:	1101e70e 	bge	r2,r4,4001a1c <___vfprintf_internal_r+0x1414>
 4001280:	d8800d17 	ldw	r2,52(sp)
 4001284:	d9000b17 	ldw	r4,44(sp)
 4001288:	b0800015 	stw	r2,0(r22)
 400128c:	d8801b17 	ldw	r2,108(sp)
 4001290:	1907883a 	add	r3,r3,r4
 4001294:	b1000115 	stw	r4,4(r22)
 4001298:	10800044 	addi	r2,r2,1
 400129c:	d8801b15 	stw	r2,108(sp)
 40012a0:	d8c01c15 	stw	r3,112(sp)
 40012a4:	10800208 	cmpgei	r2,r2,8
 40012a8:	1002291e 	bne	r2,zero,4001b50 <___vfprintf_internal_r+0x1548>
 40012ac:	b5800204 	addi	r22,r22,8
 40012b0:	d8800817 	ldw	r2,32(sp)
 40012b4:	157fffc4 	addi	r21,r2,-1
 40012b8:	057dd10e 	bge	zero,r21,4000a00 <___vfprintf_internal_r+0x3f8>
 40012bc:	01c10074 	movhi	r7,1025
 40012c0:	a9000450 	cmplti	r4,r21,17
 40012c4:	d8801b17 	ldw	r2,108(sp)
 40012c8:	39c32c04 	addi	r7,r7,3248
 40012cc:	2003461e 	bne	r4,zero,4001fe8 <___vfprintf_internal_r+0x19e0>
 40012d0:	07000404 	movi	fp,16
 40012d4:	3823883a 	mov	r17,r7
 40012d8:	00000406 	br	40012ec <___vfprintf_internal_r+0xce4>
 40012dc:	b5800204 	addi	r22,r22,8
 40012e0:	ad7ffc04 	addi	r21,r21,-16
 40012e4:	a9000448 	cmpgei	r4,r21,17
 40012e8:	20033e26 	beq	r4,zero,4001fe4 <___vfprintf_internal_r+0x19dc>
 40012ec:	10800044 	addi	r2,r2,1
 40012f0:	18c00404 	addi	r3,r3,16
 40012f4:	b4400015 	stw	r17,0(r22)
 40012f8:	b7000115 	stw	fp,4(r22)
 40012fc:	d8c01c15 	stw	r3,112(sp)
 4001300:	d8801b15 	stw	r2,108(sp)
 4001304:	11000208 	cmpgei	r4,r2,8
 4001308:	203ff426 	beq	r4,zero,40012dc <___vfprintf_internal_r+0xcd4>
 400130c:	d9801a04 	addi	r6,sp,104
 4001310:	900b883a 	mov	r5,r18
 4001314:	9809883a 	mov	r4,r19
 4001318:	40070e00 	call	40070e0 <__sprint_r>
 400131c:	103dc91e 	bne	r2,zero,4000a44 <___vfprintf_internal_r+0x43c>
 4001320:	d8c01c17 	ldw	r3,112(sp)
 4001324:	d8801b17 	ldw	r2,108(sp)
 4001328:	dd802704 	addi	r22,sp,156
 400132c:	003fec06 	br	40012e0 <___vfprintf_internal_r+0xcd8>
 4001330:	8519c83a 	sub	r12,r16,r20
 4001334:	033da30e 	bge	zero,r12,40009c4 <___vfprintf_internal_r+0x3bc>
 4001338:	01c10074 	movhi	r7,1025
 400133c:	61000450 	cmplti	r4,r12,17
 4001340:	d8801b17 	ldw	r2,108(sp)
 4001344:	39c32c04 	addi	r7,r7,3248
 4001348:	2000281e 	bne	r4,zero,40013ec <___vfprintf_internal_r+0xde4>
 400134c:	dc400e15 	stw	r17,56(sp)
 4001350:	dc000f15 	stw	r16,60(sp)
 4001354:	b009883a 	mov	r4,r22
 4001358:	03400404 	movi	r13,16
 400135c:	a02d883a 	mov	r22,r20
 4001360:	6021883a 	mov	r16,r12
 4001364:	4029883a 	mov	r20,r8
 4001368:	3823883a 	mov	r17,r7
 400136c:	00000406 	br	4001380 <___vfprintf_internal_r+0xd78>
 4001370:	843ffc04 	addi	r16,r16,-16
 4001374:	81400448 	cmpgei	r5,r16,17
 4001378:	21000204 	addi	r4,r4,8
 400137c:	28001426 	beq	r5,zero,40013d0 <___vfprintf_internal_r+0xdc8>
 4001380:	10800044 	addi	r2,r2,1
 4001384:	18c00404 	addi	r3,r3,16
 4001388:	24400015 	stw	r17,0(r4)
 400138c:	23400115 	stw	r13,4(r4)
 4001390:	d8c01c15 	stw	r3,112(sp)
 4001394:	d8801b15 	stw	r2,108(sp)
 4001398:	11400208 	cmpgei	r5,r2,8
 400139c:	283ff426 	beq	r5,zero,4001370 <___vfprintf_internal_r+0xd68>
 40013a0:	d9801a04 	addi	r6,sp,104
 40013a4:	900b883a 	mov	r5,r18
 40013a8:	9809883a 	mov	r4,r19
 40013ac:	40070e00 	call	40070e0 <__sprint_r>
 40013b0:	103da41e 	bne	r2,zero,4000a44 <___vfprintf_internal_r+0x43c>
 40013b4:	843ffc04 	addi	r16,r16,-16
 40013b8:	81400448 	cmpgei	r5,r16,17
 40013bc:	d8c01c17 	ldw	r3,112(sp)
 40013c0:	d8801b17 	ldw	r2,108(sp)
 40013c4:	d9002704 	addi	r4,sp,156
 40013c8:	03400404 	movi	r13,16
 40013cc:	283fec1e 	bne	r5,zero,4001380 <___vfprintf_internal_r+0xd78>
 40013d0:	8019883a 	mov	r12,r16
 40013d4:	880f883a 	mov	r7,r17
 40013d8:	dc000f17 	ldw	r16,60(sp)
 40013dc:	dc400e17 	ldw	r17,56(sp)
 40013e0:	a011883a 	mov	r8,r20
 40013e4:	b029883a 	mov	r20,r22
 40013e8:	202d883a 	mov	r22,r4
 40013ec:	10800044 	addi	r2,r2,1
 40013f0:	1b07883a 	add	r3,r3,r12
 40013f4:	d8801b15 	stw	r2,108(sp)
 40013f8:	b1c00015 	stw	r7,0(r22)
 40013fc:	b3000115 	stw	r12,4(r22)
 4001400:	d8c01c15 	stw	r3,112(sp)
 4001404:	10800208 	cmpgei	r2,r2,8
 4001408:	1003031e 	bne	r2,zero,4002018 <___vfprintf_internal_r+0x1a10>
 400140c:	4551c83a 	sub	r8,r8,r21
 4001410:	b5800204 	addi	r22,r22,8
 4001414:	023d6d0e 	bge	zero,r8,40009cc <___vfprintf_internal_r+0x3c4>
 4001418:	01c10074 	movhi	r7,1025
 400141c:	41000450 	cmplti	r4,r8,17
 4001420:	d8801b17 	ldw	r2,108(sp)
 4001424:	39c32c04 	addi	r7,r7,3248
 4001428:	2000221e 	bne	r4,zero,40014b4 <___vfprintf_internal_r+0xeac>
 400142c:	dc400e15 	stw	r17,56(sp)
 4001430:	dc000f15 	stw	r16,60(sp)
 4001434:	03000404 	movi	r12,16
 4001438:	4021883a 	mov	r16,r8
 400143c:	3823883a 	mov	r17,r7
 4001440:	00000406 	br	4001454 <___vfprintf_internal_r+0xe4c>
 4001444:	843ffc04 	addi	r16,r16,-16
 4001448:	81000448 	cmpgei	r4,r16,17
 400144c:	b5800204 	addi	r22,r22,8
 4001450:	20001426 	beq	r4,zero,40014a4 <___vfprintf_internal_r+0xe9c>
 4001454:	10800044 	addi	r2,r2,1
 4001458:	18c00404 	addi	r3,r3,16
 400145c:	b4400015 	stw	r17,0(r22)
 4001460:	b3000115 	stw	r12,4(r22)
 4001464:	d8c01c15 	stw	r3,112(sp)
 4001468:	d8801b15 	stw	r2,108(sp)
 400146c:	11000208 	cmpgei	r4,r2,8
 4001470:	203ff426 	beq	r4,zero,4001444 <___vfprintf_internal_r+0xe3c>
 4001474:	d9801a04 	addi	r6,sp,104
 4001478:	900b883a 	mov	r5,r18
 400147c:	9809883a 	mov	r4,r19
 4001480:	40070e00 	call	40070e0 <__sprint_r>
 4001484:	103d6f1e 	bne	r2,zero,4000a44 <___vfprintf_internal_r+0x43c>
 4001488:	843ffc04 	addi	r16,r16,-16
 400148c:	81000448 	cmpgei	r4,r16,17
 4001490:	d8c01c17 	ldw	r3,112(sp)
 4001494:	d8801b17 	ldw	r2,108(sp)
 4001498:	dd802704 	addi	r22,sp,156
 400149c:	03000404 	movi	r12,16
 40014a0:	203fec1e 	bne	r4,zero,4001454 <___vfprintf_internal_r+0xe4c>
 40014a4:	8011883a 	mov	r8,r16
 40014a8:	880f883a 	mov	r7,r17
 40014ac:	dc000f17 	ldw	r16,60(sp)
 40014b0:	dc400e17 	ldw	r17,56(sp)
 40014b4:	10800044 	addi	r2,r2,1
 40014b8:	1a07883a 	add	r3,r3,r8
 40014bc:	d8801b15 	stw	r2,108(sp)
 40014c0:	b1c00015 	stw	r7,0(r22)
 40014c4:	b2000115 	stw	r8,4(r22)
 40014c8:	d8c01c15 	stw	r3,112(sp)
 40014cc:	10800208 	cmpgei	r2,r2,8
 40014d0:	10014a1e 	bne	r2,zero,40019fc <___vfprintf_internal_r+0x13f4>
 40014d4:	b5800204 	addi	r22,r22,8
 40014d8:	003d3c06 	br	40009cc <___vfprintf_internal_r+0x3c4>
 40014dc:	10c00060 	cmpeqi	r3,r2,1
 40014e0:	1803bc1e 	bne	r3,zero,40023d4 <___vfprintf_internal_r+0x1dcc>
 40014e4:	108000a0 	cmpeqi	r2,r2,2
 40014e8:	db000417 	ldw	r12,16(sp)
 40014ec:	103ea826 	beq	r2,zero,4000f90 <___vfprintf_internal_r+0x988>
 40014f0:	d9000c17 	ldw	r4,48(sp)
 40014f4:	dc402704 	addi	r17,sp,156
 40014f8:	a08003cc 	andi	r2,r20,15
 40014fc:	a806973a 	slli	r3,r21,28
 4001500:	a028d13a 	srli	r20,r20,4
 4001504:	2085883a 	add	r2,r4,r2
 4001508:	10800003 	ldbu	r2,0(r2)
 400150c:	a82ad13a 	srli	r21,r21,4
 4001510:	1d28b03a 	or	r20,r3,r20
 4001514:	88bfffc5 	stb	r2,-1(r17)
 4001518:	a544b03a 	or	r2,r20,r21
 400151c:	8c7fffc4 	addi	r17,r17,-1
 4001520:	103ff51e 	bne	r2,zero,40014f8 <___vfprintf_internal_r+0xef0>
 4001524:	d8802704 	addi	r2,sp,156
 4001528:	146bc83a 	sub	r21,r2,r17
 400152c:	db000415 	stw	r12,16(sp)
 4001530:	003e4c06 	br	4000e64 <___vfprintf_internal_r+0x85c>
 4001534:	d9801a04 	addi	r6,sp,104
 4001538:	900b883a 	mov	r5,r18
 400153c:	9809883a 	mov	r4,r19
 4001540:	40070e00 	call	40070e0 <__sprint_r>
 4001544:	103d3926 	beq	r2,zero,4000a2c <___vfprintf_internal_r+0x424>
 4001548:	003d3e06 	br	4000a44 <___vfprintf_internal_r+0x43c>
 400154c:	d8800817 	ldw	r2,32(sp)
 4001550:	da001b17 	ldw	r8,108(sp)
 4001554:	18c00044 	addi	r3,r3,1
 4001558:	10800088 	cmpgei	r2,r2,2
 400155c:	45400044 	addi	r21,r8,1
 4001560:	b7000204 	addi	fp,r22,8
 4001564:	1000f826 	beq	r2,zero,4001948 <___vfprintf_internal_r+0x1340>
 4001568:	00800044 	movi	r2,1
 400156c:	b0800115 	stw	r2,4(r22)
 4001570:	b4400015 	stw	r17,0(r22)
 4001574:	d8c01c15 	stw	r3,112(sp)
 4001578:	dd401b15 	stw	r21,108(sp)
 400157c:	a8800210 	cmplti	r2,r21,8
 4001580:	1001cc26 	beq	r2,zero,4001cb4 <___vfprintf_internal_r+0x16ac>
 4001584:	d8800b17 	ldw	r2,44(sp)
 4001588:	d9000d17 	ldw	r4,52(sp)
 400158c:	ad400044 	addi	r21,r21,1
 4001590:	1887883a 	add	r3,r3,r2
 4001594:	e0800115 	stw	r2,4(fp)
 4001598:	e1000015 	stw	r4,0(fp)
 400159c:	d8c01c15 	stw	r3,112(sp)
 40015a0:	dd401b15 	stw	r21,108(sp)
 40015a4:	a8800208 	cmpgei	r2,r21,8
 40015a8:	1001cb1e 	bne	r2,zero,4001cd8 <___vfprintf_internal_r+0x16d0>
 40015ac:	e7000204 	addi	fp,fp,8
 40015b0:	d9000917 	ldw	r4,36(sp)
 40015b4:	d9400a17 	ldw	r5,40(sp)
 40015b8:	aa000044 	addi	r8,r21,1
 40015bc:	000d883a 	mov	r6,zero
 40015c0:	000f883a 	mov	r7,zero
 40015c4:	d8c00e15 	stw	r3,56(sp)
 40015c8:	da000715 	stw	r8,28(sp)
 40015cc:	400c1080 	call	400c108 <__eqdf2>
 40015d0:	d8c00817 	ldw	r3,32(sp)
 40015d4:	da000717 	ldw	r8,28(sp)
 40015d8:	e5800204 	addi	r22,fp,8
 40015dc:	1affffc4 	addi	r11,r3,-1
 40015e0:	d8c00e17 	ldw	r3,56(sp)
 40015e4:	1000e526 	beq	r2,zero,400197c <___vfprintf_internal_r+0x1374>
 40015e8:	8a400044 	addi	r9,r17,1
 40015ec:	1ac7883a 	add	r3,r3,r11
 40015f0:	da001b15 	stw	r8,108(sp)
 40015f4:	e2400015 	stw	r9,0(fp)
 40015f8:	e2c00115 	stw	r11,4(fp)
 40015fc:	d8c01c15 	stw	r3,112(sp)
 4001600:	42000208 	cmpgei	r8,r8,8
 4001604:	40013e1e 	bne	r8,zero,4001b00 <___vfprintf_internal_r+0x14f8>
 4001608:	e0800404 	addi	r2,fp,16
 400160c:	aa000084 	addi	r8,r21,2
 4001610:	b039883a 	mov	fp,r22
 4001614:	102d883a 	mov	r22,r2
 4001618:	d9001017 	ldw	r4,64(sp)
 400161c:	d8801644 	addi	r2,sp,89
 4001620:	da001b15 	stw	r8,108(sp)
 4001624:	20c7883a 	add	r3,r4,r3
 4001628:	e0800015 	stw	r2,0(fp)
 400162c:	e1000115 	stw	r4,4(fp)
 4001630:	d8c01c15 	stw	r3,112(sp)
 4001634:	42000210 	cmplti	r8,r8,8
 4001638:	403cf11e 	bne	r8,zero,4000a00 <___vfprintf_internal_r+0x3f8>
 400163c:	d9801a04 	addi	r6,sp,104
 4001640:	900b883a 	mov	r5,r18
 4001644:	9809883a 	mov	r4,r19
 4001648:	40070e00 	call	40070e0 <__sprint_r>
 400164c:	103cfd1e 	bne	r2,zero,4000a44 <___vfprintf_internal_r+0x43c>
 4001650:	d8c01c17 	ldw	r3,112(sp)
 4001654:	dd802704 	addi	r22,sp,156
 4001658:	003ce906 	br	4000a00 <___vfprintf_internal_r+0x3f8>
 400165c:	db000417 	ldw	r12,16(sp)
 4001660:	003e4706 	br	4000f80 <___vfprintf_internal_r+0x978>
 4001664:	03010074 	movhi	r12,1025
 4001668:	39000450 	cmplti	r4,r7,17
 400166c:	d8801b17 	ldw	r2,108(sp)
 4001670:	63033004 	addi	r12,r12,3264
 4001674:	2000321e 	bne	r4,zero,4001740 <___vfprintf_internal_r+0x1138>
 4001678:	dc401115 	stw	r17,68(sp)
 400167c:	b009883a 	mov	r4,r22
 4001680:	9023883a 	mov	r17,r18
 4001684:	a82d883a 	mov	r22,r21
 4001688:	ddc01215 	stw	r23,72(sp)
 400168c:	03c00404 	movi	r15,16
 4001690:	a02f883a 	mov	r23,r20
 4001694:	db800e15 	stw	r14,56(sp)
 4001698:	8029883a 	mov	r20,r16
 400169c:	db400f15 	stw	r13,60(sp)
 40016a0:	402b883a 	mov	r21,r8
 40016a4:	3821883a 	mov	r16,r7
 40016a8:	6025883a 	mov	r18,r12
 40016ac:	00000406 	br	40016c0 <___vfprintf_internal_r+0x10b8>
 40016b0:	843ffc04 	addi	r16,r16,-16
 40016b4:	81800448 	cmpgei	r6,r16,17
 40016b8:	21000204 	addi	r4,r4,8
 40016bc:	30001426 	beq	r6,zero,4001710 <___vfprintf_internal_r+0x1108>
 40016c0:	10800044 	addi	r2,r2,1
 40016c4:	18c00404 	addi	r3,r3,16
 40016c8:	24800015 	stw	r18,0(r4)
 40016cc:	23c00115 	stw	r15,4(r4)
 40016d0:	d8c01c15 	stw	r3,112(sp)
 40016d4:	d8801b15 	stw	r2,108(sp)
 40016d8:	11800208 	cmpgei	r6,r2,8
 40016dc:	303ff426 	beq	r6,zero,40016b0 <___vfprintf_internal_r+0x10a8>
 40016e0:	d9801a04 	addi	r6,sp,104
 40016e4:	880b883a 	mov	r5,r17
 40016e8:	9809883a 	mov	r4,r19
 40016ec:	40070e00 	call	40070e0 <__sprint_r>
 40016f0:	1001b91e 	bne	r2,zero,4001dd8 <___vfprintf_internal_r+0x17d0>
 40016f4:	843ffc04 	addi	r16,r16,-16
 40016f8:	81800448 	cmpgei	r6,r16,17
 40016fc:	d8c01c17 	ldw	r3,112(sp)
 4001700:	d8801b17 	ldw	r2,108(sp)
 4001704:	d9002704 	addi	r4,sp,156
 4001708:	03c00404 	movi	r15,16
 400170c:	303fec1e 	bne	r6,zero,40016c0 <___vfprintf_internal_r+0x10b8>
 4001710:	800f883a 	mov	r7,r16
 4001714:	9019883a 	mov	r12,r18
 4001718:	a021883a 	mov	r16,r20
 400171c:	8825883a 	mov	r18,r17
 4001720:	b829883a 	mov	r20,r23
 4001724:	db800e17 	ldw	r14,56(sp)
 4001728:	db400f17 	ldw	r13,60(sp)
 400172c:	ddc01217 	ldw	r23,72(sp)
 4001730:	dc401117 	ldw	r17,68(sp)
 4001734:	a811883a 	mov	r8,r21
 4001738:	b02b883a 	mov	r21,r22
 400173c:	202d883a 	mov	r22,r4
 4001740:	10800044 	addi	r2,r2,1
 4001744:	19c7883a 	add	r3,r3,r7
 4001748:	d8801b15 	stw	r2,108(sp)
 400174c:	b3000015 	stw	r12,0(r22)
 4001750:	b1c00115 	stw	r7,4(r22)
 4001754:	d8c01c15 	stw	r3,112(sp)
 4001758:	10800208 	cmpgei	r2,r2,8
 400175c:	1001671e 	bne	r2,zero,4001cfc <___vfprintf_internal_r+0x16f4>
 4001760:	b5800204 	addi	r22,r22,8
 4001764:	003c7a06 	br	4000950 <___vfprintf_internal_r+0x348>
 4001768:	d9801a04 	addi	r6,sp,104
 400176c:	900b883a 	mov	r5,r18
 4001770:	9809883a 	mov	r4,r19
 4001774:	da001115 	stw	r8,68(sp)
 4001778:	db400f15 	stw	r13,60(sp)
 400177c:	db800e15 	stw	r14,56(sp)
 4001780:	40070e00 	call	40070e0 <__sprint_r>
 4001784:	103caf1e 	bne	r2,zero,4000a44 <___vfprintf_internal_r+0x43c>
 4001788:	d8c01c17 	ldw	r3,112(sp)
 400178c:	da001117 	ldw	r8,68(sp)
 4001790:	db400f17 	ldw	r13,60(sp)
 4001794:	db800e17 	ldw	r14,56(sp)
 4001798:	dd802704 	addi	r22,sp,156
 400179c:	003c7a06 	br	4000988 <___vfprintf_internal_r+0x380>
 40017a0:	d9801a04 	addi	r6,sp,104
 40017a4:	900b883a 	mov	r5,r18
 40017a8:	9809883a 	mov	r4,r19
 40017ac:	da000f15 	stw	r8,60(sp)
 40017b0:	db400e15 	stw	r13,56(sp)
 40017b4:	40070e00 	call	40070e0 <__sprint_r>
 40017b8:	103ca21e 	bne	r2,zero,4000a44 <___vfprintf_internal_r+0x43c>
 40017bc:	d8c01c17 	ldw	r3,112(sp)
 40017c0:	da000f17 	ldw	r8,60(sp)
 40017c4:	db400e17 	ldw	r13,56(sp)
 40017c8:	dd802704 	addi	r22,sp,156
 40017cc:	003c7b06 	br	40009bc <___vfprintf_internal_r+0x3b4>
 40017d0:	d9401417 	ldw	r5,80(sp)
 40017d4:	0141570e 	bge	zero,r5,4001d34 <___vfprintf_internal_r+0x172c>
 40017d8:	d8800717 	ldw	r2,28(sp)
 40017dc:	d9000817 	ldw	r4,32(sp)
 40017e0:	102b883a 	mov	r21,r2
 40017e4:	2080b916 	blt	r4,r2,4001acc <___vfprintf_internal_r+0x14c4>
 40017e8:	05400a0e 	bge	zero,r21,4001814 <___vfprintf_internal_r+0x120c>
 40017ec:	d8801b17 	ldw	r2,108(sp)
 40017f0:	1d47883a 	add	r3,r3,r21
 40017f4:	b4400015 	stw	r17,0(r22)
 40017f8:	10800044 	addi	r2,r2,1
 40017fc:	d8801b15 	stw	r2,108(sp)
 4001800:	b5400115 	stw	r21,4(r22)
 4001804:	d8c01c15 	stw	r3,112(sp)
 4001808:	10800208 	cmpgei	r2,r2,8
 400180c:	10032d1e 	bne	r2,zero,40024c4 <___vfprintf_internal_r+0x1ebc>
 4001810:	b5800204 	addi	r22,r22,8
 4001814:	a800c516 	blt	r21,zero,4001b2c <___vfprintf_internal_r+0x1524>
 4001818:	d8800717 	ldw	r2,28(sp)
 400181c:	156bc83a 	sub	r21,r2,r21
 4001820:	0540db16 	blt	zero,r21,4001b90 <___vfprintf_internal_r+0x1588>
 4001824:	dd401417 	ldw	r21,80(sp)
 4001828:	d8800817 	ldw	r2,32(sp)
 400182c:	a880aa0e 	bge	r21,r2,4001ad8 <___vfprintf_internal_r+0x14d0>
 4001830:	d8800d17 	ldw	r2,52(sp)
 4001834:	d9000b17 	ldw	r4,44(sp)
 4001838:	b0800015 	stw	r2,0(r22)
 400183c:	d8801b17 	ldw	r2,108(sp)
 4001840:	1907883a 	add	r3,r3,r4
 4001844:	b1000115 	stw	r4,4(r22)
 4001848:	10800044 	addi	r2,r2,1
 400184c:	d8801b15 	stw	r2,108(sp)
 4001850:	d8c01c15 	stw	r3,112(sp)
 4001854:	10800208 	cmpgei	r2,r2,8
 4001858:	1003111e 	bne	r2,zero,40024a0 <___vfprintf_internal_r+0x1e98>
 400185c:	b5800204 	addi	r22,r22,8
 4001860:	d9000817 	ldw	r4,32(sp)
 4001864:	d9400717 	ldw	r5,28(sp)
 4001868:	2545c83a 	sub	r2,r4,r21
 400186c:	2149c83a 	sub	r4,r4,r5
 4001870:	102b883a 	mov	r21,r2
 4001874:	2080010e 	bge	r4,r2,400187c <___vfprintf_internal_r+0x1274>
 4001878:	202b883a 	mov	r21,r4
 400187c:	05400c0e 	bge	zero,r21,40018b0 <___vfprintf_internal_r+0x12a8>
 4001880:	d9000717 	ldw	r4,28(sp)
 4001884:	1d47883a 	add	r3,r3,r21
 4001888:	b5400115 	stw	r21,4(r22)
 400188c:	8913883a 	add	r9,r17,r4
 4001890:	d9001b17 	ldw	r4,108(sp)
 4001894:	b2400015 	stw	r9,0(r22)
 4001898:	d8c01c15 	stw	r3,112(sp)
 400189c:	21000044 	addi	r4,r4,1
 40018a0:	d9001b15 	stw	r4,108(sp)
 40018a4:	21000208 	cmpgei	r4,r4,8
 40018a8:	2003111e 	bne	r4,zero,40024f0 <___vfprintf_internal_r+0x1ee8>
 40018ac:	b5800204 	addi	r22,r22,8
 40018b0:	a800010e 	bge	r21,zero,40018b8 <___vfprintf_internal_r+0x12b0>
 40018b4:	002b883a 	mov	r21,zero
 40018b8:	156bc83a 	sub	r21,r2,r21
 40018bc:	057c500e 	bge	zero,r21,4000a00 <___vfprintf_internal_r+0x3f8>
 40018c0:	01c10074 	movhi	r7,1025
 40018c4:	a9000450 	cmplti	r4,r21,17
 40018c8:	d8801b17 	ldw	r2,108(sp)
 40018cc:	39c32c04 	addi	r7,r7,3248
 40018d0:	2001c51e 	bne	r4,zero,4001fe8 <___vfprintf_internal_r+0x19e0>
 40018d4:	07000404 	movi	fp,16
 40018d8:	3823883a 	mov	r17,r7
 40018dc:	00000406 	br	40018f0 <___vfprintf_internal_r+0x12e8>
 40018e0:	b5800204 	addi	r22,r22,8
 40018e4:	ad7ffc04 	addi	r21,r21,-16
 40018e8:	a9000448 	cmpgei	r4,r21,17
 40018ec:	2001bd26 	beq	r4,zero,4001fe4 <___vfprintf_internal_r+0x19dc>
 40018f0:	10800044 	addi	r2,r2,1
 40018f4:	18c00404 	addi	r3,r3,16
 40018f8:	b4400015 	stw	r17,0(r22)
 40018fc:	b7000115 	stw	fp,4(r22)
 4001900:	d8c01c15 	stw	r3,112(sp)
 4001904:	d8801b15 	stw	r2,108(sp)
 4001908:	11000208 	cmpgei	r4,r2,8
 400190c:	203ff426 	beq	r4,zero,40018e0 <___vfprintf_internal_r+0x12d8>
 4001910:	d9801a04 	addi	r6,sp,104
 4001914:	900b883a 	mov	r5,r18
 4001918:	9809883a 	mov	r4,r19
 400191c:	40070e00 	call	40070e0 <__sprint_r>
 4001920:	103c481e 	bne	r2,zero,4000a44 <___vfprintf_internal_r+0x43c>
 4001924:	d8c01c17 	ldw	r3,112(sp)
 4001928:	d8801b17 	ldw	r2,108(sp)
 400192c:	dd802704 	addi	r22,sp,156
 4001930:	003fec06 	br	40018e4 <___vfprintf_internal_r+0x12dc>
 4001934:	4002a71e 	bne	r8,zero,40023d4 <___vfprintf_internal_r+0x1dcc>
 4001938:	0011883a 	mov	r8,zero
 400193c:	002b883a 	mov	r21,zero
 4001940:	dc402704 	addi	r17,sp,156
 4001944:	003d4706 	br	4000e64 <___vfprintf_internal_r+0x85c>
 4001948:	d8800417 	ldw	r2,16(sp)
 400194c:	1080004c 	andi	r2,r2,1
 4001950:	103f051e 	bne	r2,zero,4001568 <___vfprintf_internal_r+0xf60>
 4001954:	00800044 	movi	r2,1
 4001958:	dd401b15 	stw	r21,108(sp)
 400195c:	b4400015 	stw	r17,0(r22)
 4001960:	b0800115 	stw	r2,4(r22)
 4001964:	d8c01c15 	stw	r3,112(sp)
 4001968:	ad400208 	cmpgei	r21,r21,8
 400196c:	a800641e 	bne	r21,zero,4001b00 <___vfprintf_internal_r+0x14f8>
 4001970:	42000084 	addi	r8,r8,2
 4001974:	b5800404 	addi	r22,r22,16
 4001978:	003f2706 	br	4001618 <___vfprintf_internal_r+0x1010>
 400197c:	02ff260e 	bge	zero,r11,4001618 <___vfprintf_internal_r+0x1010>
 4001980:	58800450 	cmplti	r2,r11,17
 4001984:	01c10074 	movhi	r7,1025
 4001988:	10034c1e 	bne	r2,zero,40026bc <___vfprintf_internal_r+0x20b4>
 400198c:	39c32c04 	addi	r7,r7,3248
 4001990:	dc000715 	stw	r16,28(sp)
 4001994:	05800404 	movi	r22,16
 4001998:	5823883a 	mov	r17,r11
 400199c:	402b883a 	mov	r21,r8
 40019a0:	3821883a 	mov	r16,r7
 40019a4:	00000506 	br	40019bc <___vfprintf_internal_r+0x13b4>
 40019a8:	e7000204 	addi	fp,fp,8
 40019ac:	8c7ffc04 	addi	r17,r17,-16
 40019b0:	88800448 	cmpgei	r2,r17,17
 40019b4:	1001d626 	beq	r2,zero,4002110 <___vfprintf_internal_r+0x1b08>
 40019b8:	ad400044 	addi	r21,r21,1
 40019bc:	18c00404 	addi	r3,r3,16
 40019c0:	e4000015 	stw	r16,0(fp)
 40019c4:	e5800115 	stw	r22,4(fp)
 40019c8:	d8c01c15 	stw	r3,112(sp)
 40019cc:	dd401b15 	stw	r21,108(sp)
 40019d0:	a8800208 	cmpgei	r2,r21,8
 40019d4:	103ff426 	beq	r2,zero,40019a8 <___vfprintf_internal_r+0x13a0>
 40019d8:	d9801a04 	addi	r6,sp,104
 40019dc:	900b883a 	mov	r5,r18
 40019e0:	9809883a 	mov	r4,r19
 40019e4:	40070e00 	call	40070e0 <__sprint_r>
 40019e8:	103c161e 	bne	r2,zero,4000a44 <___vfprintf_internal_r+0x43c>
 40019ec:	dd401b17 	ldw	r21,108(sp)
 40019f0:	d8c01c17 	ldw	r3,112(sp)
 40019f4:	df002704 	addi	fp,sp,156
 40019f8:	003fec06 	br	40019ac <___vfprintf_internal_r+0x13a4>
 40019fc:	d9801a04 	addi	r6,sp,104
 4001a00:	900b883a 	mov	r5,r18
 4001a04:	9809883a 	mov	r4,r19
 4001a08:	40070e00 	call	40070e0 <__sprint_r>
 4001a0c:	103c0d1e 	bne	r2,zero,4000a44 <___vfprintf_internal_r+0x43c>
 4001a10:	d8c01c17 	ldw	r3,112(sp)
 4001a14:	dd802704 	addi	r22,sp,156
 4001a18:	003bec06 	br	40009cc <___vfprintf_internal_r+0x3c4>
 4001a1c:	d8800417 	ldw	r2,16(sp)
 4001a20:	1080004c 	andi	r2,r2,1
 4001a24:	103bf626 	beq	r2,zero,4000a00 <___vfprintf_internal_r+0x3f8>
 4001a28:	003e1506 	br	4001280 <___vfprintf_internal_r+0xc78>
 4001a2c:	dc402704 	addi	r17,sp,156
 4001a30:	003d0c06 	br	4000e64 <___vfprintf_internal_r+0x85c>
 4001a34:	00800c04 	movi	r2,48
 4001a38:	d8801385 	stb	r2,78(sp)
 4001a3c:	df0013c5 	stb	fp,79(sp)
 4001a40:	63000094 	ori	r12,r12,2
 4001a44:	00800084 	movi	r2,2
 4001a48:	003c3b06 	br	4000b38 <___vfprintf_internal_r+0x530>
 4001a4c:	25000017 	ldw	r20,0(r4)
 4001a50:	002b883a 	mov	r21,zero
 4001a54:	d8c00615 	stw	r3,24(sp)
 4001a58:	00800044 	movi	r2,1
 4001a5c:	003c3606 	br	4000b38 <___vfprintf_internal_r+0x530>
 4001a60:	d9000517 	ldw	r4,20(sp)
 4001a64:	2005d7fa 	srai	r2,r4,31
 4001a68:	19000015 	stw	r4,0(r3)
 4001a6c:	18800115 	stw	r2,4(r3)
 4001a70:	003b1906 	br	40006d8 <___vfprintf_internal_r+0xd0>
 4001a74:	25000017 	ldw	r20,0(r4)
 4001a78:	002b883a 	mov	r21,zero
 4001a7c:	d8c00615 	stw	r3,24(sp)
 4001a80:	003d1b06 	br	4000ef0 <___vfprintf_internal_r+0x8e8>
 4001a84:	25000017 	ldw	r20,0(r4)
 4001a88:	002b883a 	mov	r21,zero
 4001a8c:	d8c00615 	stw	r3,24(sp)
 4001a90:	0005883a 	mov	r2,zero
 4001a94:	003c2806 	br	4000b38 <___vfprintf_internal_r+0x530>
 4001a98:	18800017 	ldw	r2,0(r3)
 4001a9c:	d8800915 	stw	r2,36(sp)
 4001aa0:	18800117 	ldw	r2,4(r3)
 4001aa4:	d8800a15 	stw	r2,40(sp)
 4001aa8:	003c5906 	br	4000c10 <___vfprintf_internal_r+0x608>
 4001aac:	25000017 	ldw	r20,0(r4)
 4001ab0:	d8c00615 	stw	r3,24(sp)
 4001ab4:	a02bd7fa 	srai	r21,r20,31
 4001ab8:	a805883a 	mov	r2,r21
 4001abc:	003cd706 	br	4000e1c <___vfprintf_internal_r+0x814>
 4001ac0:	0421c83a 	sub	r16,zero,r16
 4001ac4:	d8800615 	stw	r2,24(sp)
 4001ac8:	003d6306 	br	4001058 <___vfprintf_internal_r+0xa50>
 4001acc:	202b883a 	mov	r21,r4
 4001ad0:	057f4616 	blt	zero,r21,40017ec <___vfprintf_internal_r+0x11e4>
 4001ad4:	003f4f06 	br	4001814 <___vfprintf_internal_r+0x120c>
 4001ad8:	d8800417 	ldw	r2,16(sp)
 4001adc:	1080004c 	andi	r2,r2,1
 4001ae0:	103f531e 	bne	r2,zero,4001830 <___vfprintf_internal_r+0x1228>
 4001ae4:	d9000817 	ldw	r4,32(sp)
 4001ae8:	d9400717 	ldw	r5,28(sp)
 4001aec:	2545c83a 	sub	r2,r4,r21
 4001af0:	216bc83a 	sub	r21,r4,r5
 4001af4:	157f6e0e 	bge	r2,r21,40018b0 <___vfprintf_internal_r+0x12a8>
 4001af8:	102b883a 	mov	r21,r2
 4001afc:	003f6c06 	br	40018b0 <___vfprintf_internal_r+0x12a8>
 4001b00:	d9801a04 	addi	r6,sp,104
 4001b04:	900b883a 	mov	r5,r18
 4001b08:	9809883a 	mov	r4,r19
 4001b0c:	40070e00 	call	40070e0 <__sprint_r>
 4001b10:	103bcc1e 	bne	r2,zero,4000a44 <___vfprintf_internal_r+0x43c>
 4001b14:	da001b17 	ldw	r8,108(sp)
 4001b18:	d8c01c17 	ldw	r3,112(sp)
 4001b1c:	dd802904 	addi	r22,sp,164
 4001b20:	42000044 	addi	r8,r8,1
 4001b24:	df002704 	addi	fp,sp,156
 4001b28:	003ebb06 	br	4001618 <___vfprintf_internal_r+0x1010>
 4001b2c:	002b883a 	mov	r21,zero
 4001b30:	003f3906 	br	4001818 <___vfprintf_internal_r+0x1210>
 4001b34:	bf000043 	ldbu	fp,1(r23)
 4001b38:	63000814 	ori	r12,r12,32
 4001b3c:	bdc00044 	addi	r23,r23,1
 4001b40:	e2c03fcc 	andi	r11,fp,255
 4001b44:	5ac0201c 	xori	r11,r11,128
 4001b48:	5affe004 	addi	r11,r11,-128
 4001b4c:	003afa06 	br	4000738 <___vfprintf_internal_r+0x130>
 4001b50:	d9801a04 	addi	r6,sp,104
 4001b54:	900b883a 	mov	r5,r18
 4001b58:	9809883a 	mov	r4,r19
 4001b5c:	40070e00 	call	40070e0 <__sprint_r>
 4001b60:	103bb81e 	bne	r2,zero,4000a44 <___vfprintf_internal_r+0x43c>
 4001b64:	d8c01c17 	ldw	r3,112(sp)
 4001b68:	dd802704 	addi	r22,sp,156
 4001b6c:	003dd006 	br	40012b0 <___vfprintf_internal_r+0xca8>
 4001b70:	408001f0 	cmpltui	r2,r8,7
 4001b74:	402b883a 	mov	r21,r8
 4001b78:	1001e726 	beq	r2,zero,4002318 <___vfprintf_internal_r+0x1d10>
 4001b7c:	04410074 	movhi	r17,1025
 4001b80:	a829883a 	mov	r20,r21
 4001b84:	d8c00615 	stw	r3,24(sp)
 4001b88:	8c432904 	addi	r17,r17,3236
 4001b8c:	003b6306 	br	400091c <___vfprintf_internal_r+0x314>
 4001b90:	01c10074 	movhi	r7,1025
 4001b94:	a9000450 	cmplti	r4,r21,17
 4001b98:	d8801b17 	ldw	r2,108(sp)
 4001b9c:	39c32c04 	addi	r7,r7,3248
 4001ba0:	2001c21e 	bne	r4,zero,40022ac <___vfprintf_internal_r+0x1ca4>
 4001ba4:	dc000e15 	stw	r16,56(sp)
 4001ba8:	07000404 	movi	fp,16
 4001bac:	3821883a 	mov	r16,r7
 4001bb0:	00000406 	br	4001bc4 <___vfprintf_internal_r+0x15bc>
 4001bb4:	b5800204 	addi	r22,r22,8
 4001bb8:	ad7ffc04 	addi	r21,r21,-16
 4001bbc:	a9000448 	cmpgei	r4,r21,17
 4001bc0:	2001b826 	beq	r4,zero,40022a4 <___vfprintf_internal_r+0x1c9c>
 4001bc4:	10800044 	addi	r2,r2,1
 4001bc8:	18c00404 	addi	r3,r3,16
 4001bcc:	b4000015 	stw	r16,0(r22)
 4001bd0:	b7000115 	stw	fp,4(r22)
 4001bd4:	d8c01c15 	stw	r3,112(sp)
 4001bd8:	d8801b15 	stw	r2,108(sp)
 4001bdc:	11000208 	cmpgei	r4,r2,8
 4001be0:	203ff426 	beq	r4,zero,4001bb4 <___vfprintf_internal_r+0x15ac>
 4001be4:	d9801a04 	addi	r6,sp,104
 4001be8:	900b883a 	mov	r5,r18
 4001bec:	9809883a 	mov	r4,r19
 4001bf0:	40070e00 	call	40070e0 <__sprint_r>
 4001bf4:	103b931e 	bne	r2,zero,4000a44 <___vfprintf_internal_r+0x43c>
 4001bf8:	d8c01c17 	ldw	r3,112(sp)
 4001bfc:	d8801b17 	ldw	r2,108(sp)
 4001c00:	dd802704 	addi	r22,sp,156
 4001c04:	003fec06 	br	4001bb8 <___vfprintf_internal_r+0x15b0>
 4001c08:	dc402704 	addi	r17,sp,156
 4001c0c:	a805883a 	mov	r2,r21
 4001c10:	dc000715 	stw	r16,28(sp)
 4001c14:	902b883a 	mov	r21,r18
 4001c18:	8821883a 	mov	r16,r17
 4001c1c:	db000415 	stw	r12,16(sp)
 4001c20:	a023883a 	mov	r17,r20
 4001c24:	da000e15 	stw	r8,56(sp)
 4001c28:	9829883a 	mov	r20,r19
 4001c2c:	1025883a 	mov	r18,r2
 4001c30:	6827883a 	mov	r19,r13
 4001c34:	8809883a 	mov	r4,r17
 4001c38:	900b883a 	mov	r5,r18
 4001c3c:	01800284 	movi	r6,10
 4001c40:	000f883a 	mov	r7,zero
 4001c44:	400a8fc0 	call	400a8fc <__umoddi3>
 4001c48:	10800c04 	addi	r2,r2,48
 4001c4c:	8809883a 	mov	r4,r17
 4001c50:	900b883a 	mov	r5,r18
 4001c54:	01800284 	movi	r6,10
 4001c58:	000f883a 	mov	r7,zero
 4001c5c:	80bfffc5 	stb	r2,-1(r16)
 4001c60:	400a2dc0 	call	400a2dc <__udivdi3>
 4001c64:	900d883a 	mov	r6,r18
 4001c68:	880f883a 	mov	r7,r17
 4001c6c:	843fffc4 	addi	r16,r16,-1
 4001c70:	1023883a 	mov	r17,r2
 4001c74:	1825883a 	mov	r18,r3
 4001c78:	303fee1e 	bne	r6,zero,4001c34 <___vfprintf_internal_r+0x162c>
 4001c7c:	39c002a8 	cmpgeui	r7,r7,10
 4001c80:	383fec1e 	bne	r7,zero,4001c34 <___vfprintf_internal_r+0x162c>
 4001c84:	8023883a 	mov	r17,r16
 4001c88:	d8802704 	addi	r2,sp,156
 4001c8c:	981b883a 	mov	r13,r19
 4001c90:	a825883a 	mov	r18,r21
 4001c94:	dc000717 	ldw	r16,28(sp)
 4001c98:	da000e17 	ldw	r8,56(sp)
 4001c9c:	a027883a 	mov	r19,r20
 4001ca0:	146bc83a 	sub	r21,r2,r17
 4001ca4:	003c6f06 	br	4000e64 <___vfprintf_internal_r+0x85c>
 4001ca8:	d8800517 	ldw	r2,20(sp)
 4001cac:	18800015 	stw	r2,0(r3)
 4001cb0:	003a8906 	br	40006d8 <___vfprintf_internal_r+0xd0>
 4001cb4:	d9801a04 	addi	r6,sp,104
 4001cb8:	900b883a 	mov	r5,r18
 4001cbc:	9809883a 	mov	r4,r19
 4001cc0:	40070e00 	call	40070e0 <__sprint_r>
 4001cc4:	103b5f1e 	bne	r2,zero,4000a44 <___vfprintf_internal_r+0x43c>
 4001cc8:	d8c01c17 	ldw	r3,112(sp)
 4001ccc:	dd401b17 	ldw	r21,108(sp)
 4001cd0:	df002704 	addi	fp,sp,156
 4001cd4:	003e2b06 	br	4001584 <___vfprintf_internal_r+0xf7c>
 4001cd8:	d9801a04 	addi	r6,sp,104
 4001cdc:	900b883a 	mov	r5,r18
 4001ce0:	9809883a 	mov	r4,r19
 4001ce4:	40070e00 	call	40070e0 <__sprint_r>
 4001ce8:	103b561e 	bne	r2,zero,4000a44 <___vfprintf_internal_r+0x43c>
 4001cec:	d8c01c17 	ldw	r3,112(sp)
 4001cf0:	dd401b17 	ldw	r21,108(sp)
 4001cf4:	df002704 	addi	fp,sp,156
 4001cf8:	003e2d06 	br	40015b0 <___vfprintf_internal_r+0xfa8>
 4001cfc:	d9801a04 	addi	r6,sp,104
 4001d00:	900b883a 	mov	r5,r18
 4001d04:	9809883a 	mov	r4,r19
 4001d08:	da001115 	stw	r8,68(sp)
 4001d0c:	db400f15 	stw	r13,60(sp)
 4001d10:	db800e15 	stw	r14,56(sp)
 4001d14:	40070e00 	call	40070e0 <__sprint_r>
 4001d18:	103b4a1e 	bne	r2,zero,4000a44 <___vfprintf_internal_r+0x43c>
 4001d1c:	d8c01c17 	ldw	r3,112(sp)
 4001d20:	da001117 	ldw	r8,68(sp)
 4001d24:	db400f17 	ldw	r13,60(sp)
 4001d28:	db800e17 	ldw	r14,56(sp)
 4001d2c:	dd802704 	addi	r22,sp,156
 4001d30:	003b0706 	br	4000950 <___vfprintf_internal_r+0x348>
 4001d34:	d8801b17 	ldw	r2,108(sp)
 4001d38:	01010074 	movhi	r4,1025
 4001d3c:	21032b04 	addi	r4,r4,3244
 4001d40:	10800044 	addi	r2,r2,1
 4001d44:	18c00044 	addi	r3,r3,1
 4001d48:	b1000015 	stw	r4,0(r22)
 4001d4c:	01000044 	movi	r4,1
 4001d50:	d8801b15 	stw	r2,108(sp)
 4001d54:	b1000115 	stw	r4,4(r22)
 4001d58:	d8c01c15 	stw	r3,112(sp)
 4001d5c:	10800208 	cmpgei	r2,r2,8
 4001d60:	1001641e 	bne	r2,zero,40022f4 <___vfprintf_internal_r+0x1cec>
 4001d64:	b5800204 	addi	r22,r22,8
 4001d68:	2800bd1e 	bne	r5,zero,4002060 <___vfprintf_internal_r+0x1a58>
 4001d6c:	d8800417 	ldw	r2,16(sp)
 4001d70:	d9000817 	ldw	r4,32(sp)
 4001d74:	1080004c 	andi	r2,r2,1
 4001d78:	1104b03a 	or	r2,r2,r4
 4001d7c:	103b2026 	beq	r2,zero,4000a00 <___vfprintf_internal_r+0x3f8>
 4001d80:	d8800d17 	ldw	r2,52(sp)
 4001d84:	d9000b17 	ldw	r4,44(sp)
 4001d88:	b0800015 	stw	r2,0(r22)
 4001d8c:	d8801b17 	ldw	r2,108(sp)
 4001d90:	20c7883a 	add	r3,r4,r3
 4001d94:	b1000115 	stw	r4,4(r22)
 4001d98:	10800044 	addi	r2,r2,1
 4001d9c:	d8c01c15 	stw	r3,112(sp)
 4001da0:	d8801b15 	stw	r2,108(sp)
 4001da4:	11000208 	cmpgei	r4,r2,8
 4001da8:	2001771e 	bne	r4,zero,4002388 <___vfprintf_internal_r+0x1d80>
 4001dac:	b5800204 	addi	r22,r22,8
 4001db0:	d9000817 	ldw	r4,32(sp)
 4001db4:	10800044 	addi	r2,r2,1
 4001db8:	d8801b15 	stw	r2,108(sp)
 4001dbc:	20c7883a 	add	r3,r4,r3
 4001dc0:	b4400015 	stw	r17,0(r22)
 4001dc4:	b1000115 	stw	r4,4(r22)
 4001dc8:	d8c01c15 	stw	r3,112(sp)
 4001dcc:	10800208 	cmpgei	r2,r2,8
 4001dd0:	103b0a26 	beq	r2,zero,40009fc <___vfprintf_internal_r+0x3f4>
 4001dd4:	003e1906 	br	400163c <___vfprintf_internal_r+0x1034>
 4001dd8:	8825883a 	mov	r18,r17
 4001ddc:	003b1906 	br	4000a44 <___vfprintf_internal_r+0x43c>
 4001de0:	d9000917 	ldw	r4,36(sp)
 4001de4:	d9400a17 	ldw	r5,40(sp)
 4001de8:	da000615 	stw	r8,24(sp)
 4001dec:	200d883a 	mov	r6,r4
 4001df0:	280f883a 	mov	r7,r5
 4001df4:	db000415 	stw	r12,16(sp)
 4001df8:	400d3b80 	call	400d3b8 <__unorddf2>
 4001dfc:	db000417 	ldw	r12,16(sp)
 4001e00:	da000617 	ldw	r8,24(sp)
 4001e04:	1002061e 	bne	r2,zero,4002620 <___vfprintf_internal_r+0x2018>
 4001e08:	057ff7c4 	movi	r21,-33
 4001e0c:	40bfffe0 	cmpeqi	r2,r8,-1
 4001e10:	e56a703a 	and	r21,fp,r21
 4001e14:	1001b41e 	bne	r2,zero,40024e8 <___vfprintf_internal_r+0x1ee0>
 4001e18:	a88011d8 	cmpnei	r2,r21,71
 4001e1c:	10015726 	beq	r2,zero,400237c <___vfprintf_internal_r+0x1d74>
 4001e20:	60804014 	ori	r2,r12,256
 4001e24:	d8800415 	stw	r2,16(sp)
 4001e28:	d8800a17 	ldw	r2,40(sp)
 4001e2c:	10012d16 	blt	r2,zero,40022e4 <___vfprintf_internal_r+0x1cdc>
 4001e30:	dd000a17 	ldw	r20,40(sp)
 4001e34:	d8000605 	stb	zero,24(sp)
 4001e38:	e08019a0 	cmpeqi	r2,fp,102
 4001e3c:	d8800f15 	stw	r2,60(sp)
 4001e40:	1000d21e 	bne	r2,zero,400218c <___vfprintf_internal_r+0x1b84>
 4001e44:	e08011a0 	cmpeqi	r2,fp,70
 4001e48:	1000d01e 	bne	r2,zero,400218c <___vfprintf_internal_r+0x1b84>
 4001e4c:	a8801158 	cmpnei	r2,r21,69
 4001e50:	10016226 	beq	r2,zero,40023dc <___vfprintf_internal_r+0x1dd4>
 4001e54:	d8801804 	addi	r2,sp,96
 4001e58:	d8800315 	stw	r2,12(sp)
 4001e5c:	d9400917 	ldw	r5,36(sp)
 4001e60:	d8801504 	addi	r2,sp,84
 4001e64:	d8800215 	stw	r2,8(sp)
 4001e68:	d8801404 	addi	r2,sp,80
 4001e6c:	da000015 	stw	r8,0(sp)
 4001e70:	9809883a 	mov	r4,r19
 4001e74:	d8800115 	stw	r2,4(sp)
 4001e78:	01c00084 	movi	r7,2
 4001e7c:	a00d883a 	mov	r6,r20
 4001e80:	db000815 	stw	r12,32(sp)
 4001e84:	da000715 	stw	r8,28(sp)
 4001e88:	4002b6c0 	call	4002b6c <_dtoa_r>
 4001e8c:	da000717 	ldw	r8,28(sp)
 4001e90:	e10019d8 	cmpnei	r4,fp,103
 4001e94:	db000817 	ldw	r12,32(sp)
 4001e98:	1023883a 	mov	r17,r2
 4001e9c:	4007883a 	mov	r3,r8
 4001ea0:	2001621e 	bne	r4,zero,400242c <___vfprintf_internal_r+0x1e24>
 4001ea4:	6080004c 	andi	r2,r12,1
 4001ea8:	1001621e 	bne	r2,zero,4002434 <___vfprintf_internal_r+0x1e2c>
 4001eac:	d8801417 	ldw	r2,80(sp)
 4001eb0:	ad4011e0 	cmpeqi	r21,r21,71
 4001eb4:	d8800715 	stw	r2,28(sp)
 4001eb8:	d8801817 	ldw	r2,96(sp)
 4001ebc:	1445c83a 	sub	r2,r2,r17
 4001ec0:	d8800815 	stw	r2,32(sp)
 4001ec4:	a8000526 	beq	r21,zero,4001edc <___vfprintf_internal_r+0x18d4>
 4001ec8:	d8c00717 	ldw	r3,28(sp)
 4001ecc:	18bfff50 	cmplti	r2,r3,-3
 4001ed0:	1000011e 	bne	r2,zero,4001ed8 <___vfprintf_internal_r+0x18d0>
 4001ed4:	40c1670e 	bge	r8,r3,4002474 <___vfprintf_internal_r+0x1e6c>
 4001ed8:	e73fff84 	addi	fp,fp,-2
 4001edc:	d8800717 	ldw	r2,28(sp)
 4001ee0:	df001645 	stb	fp,89(sp)
 4001ee4:	157fffc4 	addi	r21,r2,-1
 4001ee8:	dd401415 	stw	r21,80(sp)
 4001eec:	a801d416 	blt	r21,zero,4002640 <___vfprintf_internal_r+0x2038>
 4001ef0:	00800ac4 	movi	r2,43
 4001ef4:	d8801685 	stb	r2,90(sp)
 4001ef8:	a8800290 	cmplti	r2,r21,10
 4001efc:	1001c11e 	bne	r2,zero,4002604 <___vfprintf_internal_r+0x1ffc>
 4001f00:	d98019c4 	addi	r6,sp,103
 4001f04:	9029883a 	mov	r20,r18
 4001f08:	dc400715 	stw	r17,28(sp)
 4001f0c:	8025883a 	mov	r18,r16
 4001f10:	db000f15 	stw	r12,60(sp)
 4001f14:	3021883a 	mov	r16,r6
 4001f18:	a809883a 	mov	r4,r21
 4001f1c:	01400284 	movi	r5,10
 4001f20:	40003f80 	call	40003f8 <__modsi3>
 4001f24:	10800c04 	addi	r2,r2,48
 4001f28:	a809883a 	mov	r4,r21
 4001f2c:	80bfffc5 	stb	r2,-1(r16)
 4001f30:	01400284 	movi	r5,10
 4001f34:	40003780 	call	4000378 <__divsi3>
 4001f38:	a9001908 	cmpgei	r4,r21,100
 4001f3c:	8023883a 	mov	r17,r16
 4001f40:	102b883a 	mov	r21,r2
 4001f44:	843fffc4 	addi	r16,r16,-1
 4001f48:	203ff31e 	bne	r4,zero,4001f18 <___vfprintf_internal_r+0x1910>
 4001f4c:	800d883a 	mov	r6,r16
 4001f50:	11000c04 	addi	r4,r2,48
 4001f54:	9021883a 	mov	r16,r18
 4001f58:	a025883a 	mov	r18,r20
 4001f5c:	8829883a 	mov	r20,r17
 4001f60:	a0bfff84 	addi	r2,r20,-2
 4001f64:	313fffc5 	stb	r4,-1(r6)
 4001f68:	d8c019c4 	addi	r3,sp,103
 4001f6c:	db000f17 	ldw	r12,60(sp)
 4001f70:	dc400717 	ldw	r17,28(sp)
 4001f74:	10c1d62e 	bgeu	r2,r3,40026d0 <___vfprintf_internal_r+0x20c8>
 4001f78:	d8c016c4 	addi	r3,sp,91
 4001f7c:	00000106 	br	4001f84 <___vfprintf_internal_r+0x197c>
 4001f80:	11000003 	ldbu	r4,0(r2)
 4001f84:	19000005 	stb	r4,0(r3)
 4001f88:	10800044 	addi	r2,r2,1
 4001f8c:	d90019c4 	addi	r4,sp,103
 4001f90:	18c00044 	addi	r3,r3,1
 4001f94:	113ffa1e 	bne	r2,r4,4001f80 <___vfprintf_internal_r+0x1978>
 4001f98:	d8801a44 	addi	r2,sp,105
 4001f9c:	d8c016c4 	addi	r3,sp,91
 4001fa0:	1505c83a 	sub	r2,r2,r20
 4001fa4:	1885883a 	add	r2,r3,r2
 4001fa8:	d8c01644 	addi	r3,sp,89
 4001fac:	10c5c83a 	sub	r2,r2,r3
 4001fb0:	d8801015 	stw	r2,64(sp)
 4001fb4:	d8c00817 	ldw	r3,32(sp)
 4001fb8:	d9001017 	ldw	r4,64(sp)
 4001fbc:	18800088 	cmpgei	r2,r3,2
 4001fc0:	192b883a 	add	r21,r3,r4
 4001fc4:	1001aa26 	beq	r2,zero,4002670 <___vfprintf_internal_r+0x2068>
 4001fc8:	d8800b17 	ldw	r2,44(sp)
 4001fcc:	a8ab883a 	add	r21,r21,r2
 4001fd0:	a829883a 	mov	r20,r21
 4001fd4:	a800010e 	bge	r21,zero,4001fdc <___vfprintf_internal_r+0x19d4>
 4001fd8:	0029883a 	mov	r20,zero
 4001fdc:	d8000715 	stw	zero,28(sp)
 4001fe0:	00009d06 	br	4002258 <___vfprintf_internal_r+0x1c50>
 4001fe4:	880f883a 	mov	r7,r17
 4001fe8:	10800044 	addi	r2,r2,1
 4001fec:	1d47883a 	add	r3,r3,r21
 4001ff0:	b1c00015 	stw	r7,0(r22)
 4001ff4:	003a7c06 	br	40009e8 <___vfprintf_internal_r+0x3e0>
 4001ff8:	d9801a04 	addi	r6,sp,104
 4001ffc:	900b883a 	mov	r5,r18
 4002000:	9809883a 	mov	r4,r19
 4002004:	40070e00 	call	40070e0 <__sprint_r>
 4002008:	103a8e1e 	bne	r2,zero,4000a44 <___vfprintf_internal_r+0x43c>
 400200c:	d8c01c17 	ldw	r3,112(sp)
 4002010:	dd802704 	addi	r22,sp,156
 4002014:	003c9706 	br	4001274 <___vfprintf_internal_r+0xc6c>
 4002018:	d9801a04 	addi	r6,sp,104
 400201c:	900b883a 	mov	r5,r18
 4002020:	9809883a 	mov	r4,r19
 4002024:	da000e15 	stw	r8,56(sp)
 4002028:	40070e00 	call	40070e0 <__sprint_r>
 400202c:	103a851e 	bne	r2,zero,4000a44 <___vfprintf_internal_r+0x43c>
 4002030:	d8c01c17 	ldw	r3,112(sp)
 4002034:	da000e17 	ldw	r8,56(sp)
 4002038:	dd802704 	addi	r22,sp,156
 400203c:	003a6106 	br	40009c4 <___vfprintf_internal_r+0x3bc>
 4002040:	8809883a 	mov	r4,r17
 4002044:	db000415 	stw	r12,16(sp)
 4002048:	d8c00615 	stw	r3,24(sp)
 400204c:	4006f540 	call	4006f54 <strlen>
 4002050:	db000417 	ldw	r12,16(sp)
 4002054:	102b883a 	mov	r21,r2
 4002058:	1029883a 	mov	r20,r2
 400205c:	003a2f06 	br	400091c <___vfprintf_internal_r+0x314>
 4002060:	d8800d17 	ldw	r2,52(sp)
 4002064:	d9000b17 	ldw	r4,44(sp)
 4002068:	b0800015 	stw	r2,0(r22)
 400206c:	d8801b17 	ldw	r2,108(sp)
 4002070:	20c7883a 	add	r3,r4,r3
 4002074:	b1000115 	stw	r4,4(r22)
 4002078:	10800044 	addi	r2,r2,1
 400207c:	d8c01c15 	stw	r3,112(sp)
 4002080:	d8801b15 	stw	r2,108(sp)
 4002084:	11000208 	cmpgei	r4,r2,8
 4002088:	2000bf1e 	bne	r4,zero,4002388 <___vfprintf_internal_r+0x1d80>
 400208c:	b5800204 	addi	r22,r22,8
 4002090:	283f470e 	bge	r5,zero,4001db0 <___vfprintf_internal_r+0x17a8>
 4002094:	01c10074 	movhi	r7,1025
 4002098:	293ffc08 	cmpgei	r4,r5,-16
 400209c:	39c32c04 	addi	r7,r7,3248
 40020a0:	0179c83a 	sub	fp,zero,r5
 40020a4:	20013f1e 	bne	r4,zero,40025a4 <___vfprintf_internal_r+0x1f9c>
 40020a8:	dc000715 	stw	r16,28(sp)
 40020ac:	05400404 	movi	r21,16
 40020b0:	9021883a 	mov	r16,r18
 40020b4:	3825883a 	mov	r18,r7
 40020b8:	00000406 	br	40020cc <___vfprintf_internal_r+0x1ac4>
 40020bc:	b5800204 	addi	r22,r22,8
 40020c0:	e73ffc04 	addi	fp,fp,-16
 40020c4:	e1800448 	cmpgei	r6,fp,17
 40020c8:	30013326 	beq	r6,zero,4002598 <___vfprintf_internal_r+0x1f90>
 40020cc:	10800044 	addi	r2,r2,1
 40020d0:	18c00404 	addi	r3,r3,16
 40020d4:	b4800015 	stw	r18,0(r22)
 40020d8:	b5400115 	stw	r21,4(r22)
 40020dc:	d8c01c15 	stw	r3,112(sp)
 40020e0:	d8801b15 	stw	r2,108(sp)
 40020e4:	11800208 	cmpgei	r6,r2,8
 40020e8:	303ff426 	beq	r6,zero,40020bc <___vfprintf_internal_r+0x1ab4>
 40020ec:	d9801a04 	addi	r6,sp,104
 40020f0:	800b883a 	mov	r5,r16
 40020f4:	9809883a 	mov	r4,r19
 40020f8:	40070e00 	call	40070e0 <__sprint_r>
 40020fc:	1001721e 	bne	r2,zero,40026c8 <___vfprintf_internal_r+0x20c0>
 4002100:	d8c01c17 	ldw	r3,112(sp)
 4002104:	d8801b17 	ldw	r2,108(sp)
 4002108:	dd802704 	addi	r22,sp,156
 400210c:	003fec06 	br	40020c0 <___vfprintf_internal_r+0x1ab8>
 4002110:	800f883a 	mov	r7,r16
 4002114:	dc000717 	ldw	r16,28(sp)
 4002118:	8817883a 	mov	r11,r17
 400211c:	aa000044 	addi	r8,r21,1
 4002120:	e0800204 	addi	r2,fp,8
 4002124:	1ac7883a 	add	r3,r3,r11
 4002128:	e1c00015 	stw	r7,0(fp)
 400212c:	e2c00115 	stw	r11,4(fp)
 4002130:	d8c01c15 	stw	r3,112(sp)
 4002134:	da001b15 	stw	r8,108(sp)
 4002138:	41000208 	cmpgei	r4,r8,8
 400213c:	203e701e 	bne	r4,zero,4001b00 <___vfprintf_internal_r+0x14f8>
 4002140:	42000044 	addi	r8,r8,1
 4002144:	15800204 	addi	r22,r2,8
 4002148:	1039883a 	mov	fp,r2
 400214c:	003d3206 	br	4001618 <___vfprintf_internal_r+0x1010>
 4002150:	d8800617 	ldw	r2,24(sp)
 4002154:	d8c00615 	stw	r3,24(sp)
 4002158:	15000017 	ldw	r20,0(r2)
 400215c:	a02bd7fa 	srai	r21,r20,31
 4002160:	a805883a 	mov	r2,r21
 4002164:	003b2d06 	br	4000e1c <___vfprintf_internal_r+0x814>
 4002168:	d8800617 	ldw	r2,24(sp)
 400216c:	002b883a 	mov	r21,zero
 4002170:	d8c00615 	stw	r3,24(sp)
 4002174:	15000017 	ldw	r20,0(r2)
 4002178:	0005883a 	mov	r2,zero
 400217c:	003a6e06 	br	4000b38 <___vfprintf_internal_r+0x530>
 4002180:	04410074 	movhi	r17,1025
 4002184:	8c431b04 	addi	r17,r17,3180
 4002188:	003ac606 	br	4000ca4 <___vfprintf_internal_r+0x69c>
 400218c:	d8801804 	addi	r2,sp,96
 4002190:	d8800315 	stw	r2,12(sp)
 4002194:	d9400917 	ldw	r5,36(sp)
 4002198:	d8801504 	addi	r2,sp,84
 400219c:	d8800215 	stw	r2,8(sp)
 40021a0:	d8801404 	addi	r2,sp,80
 40021a4:	da000015 	stw	r8,0(sp)
 40021a8:	d8800115 	stw	r2,4(sp)
 40021ac:	01c000c4 	movi	r7,3
 40021b0:	a00d883a 	mov	r6,r20
 40021b4:	9809883a 	mov	r4,r19
 40021b8:	db000815 	stw	r12,32(sp)
 40021bc:	da000715 	stw	r8,28(sp)
 40021c0:	4002b6c0 	call	4002b6c <_dtoa_r>
 40021c4:	da000717 	ldw	r8,28(sp)
 40021c8:	1023883a 	mov	r17,r2
 40021cc:	db000817 	ldw	r12,32(sp)
 40021d0:	1207883a 	add	r3,r2,r8
 40021d4:	88800007 	ldb	r2,0(r17)
 40021d8:	10800c20 	cmpeqi	r2,r2,48
 40021dc:	1000571e 	bne	r2,zero,400233c <___vfprintf_internal_r+0x1d34>
 40021e0:	d8801417 	ldw	r2,80(sp)
 40021e4:	1893883a 	add	r9,r3,r2
 40021e8:	d9000917 	ldw	r4,36(sp)
 40021ec:	000d883a 	mov	r6,zero
 40021f0:	000f883a 	mov	r7,zero
 40021f4:	a00b883a 	mov	r5,r20
 40021f8:	da401115 	stw	r9,68(sp)
 40021fc:	da000815 	stw	r8,32(sp)
 4002200:	db000715 	stw	r12,28(sp)
 4002204:	400c1080 	call	400c108 <__eqdf2>
 4002208:	db000717 	ldw	r12,28(sp)
 400220c:	da000817 	ldw	r8,32(sp)
 4002210:	da401117 	ldw	r9,68(sp)
 4002214:	1000891e 	bne	r2,zero,400243c <___vfprintf_internal_r+0x1e34>
 4002218:	4805883a 	mov	r2,r9
 400221c:	d8c01417 	ldw	r3,80(sp)
 4002220:	1445c83a 	sub	r2,r2,r17
 4002224:	ad4011d8 	cmpnei	r21,r21,71
 4002228:	d8c00715 	stw	r3,28(sp)
 400222c:	d8800815 	stw	r2,32(sp)
 4002230:	a83f2526 	beq	r21,zero,4001ec8 <___vfprintf_internal_r+0x18c0>
 4002234:	d8800f17 	ldw	r2,60(sp)
 4002238:	103f2826 	beq	r2,zero,4001edc <___vfprintf_internal_r+0x18d4>
 400223c:	d8c00717 	ldw	r3,28(sp)
 4002240:	6080004c 	andi	r2,r12,1
 4002244:	1204b03a 	or	r2,r2,r8
 4002248:	00c1140e 	bge	zero,r3,400269c <___vfprintf_internal_r+0x2094>
 400224c:	1001011e 	bne	r2,zero,4002654 <___vfprintf_internal_r+0x204c>
 4002250:	dd400717 	ldw	r21,28(sp)
 4002254:	a829883a 	mov	r20,r21
 4002258:	d8800607 	ldb	r2,24(sp)
 400225c:	10008026 	beq	r2,zero,4002460 <___vfprintf_internal_r+0x1e58>
 4002260:	00800b44 	movi	r2,45
 4002264:	d8801345 	stb	r2,77(sp)
 4002268:	d8800e17 	ldw	r2,56(sp)
 400226c:	0011883a 	mov	r8,zero
 4002270:	d8800615 	stw	r2,24(sp)
 4002274:	003b0306 	br	4000e84 <___vfprintf_internal_r+0x87c>
 4002278:	d8800617 	ldw	r2,24(sp)
 400227c:	002b883a 	mov	r21,zero
 4002280:	d8c00615 	stw	r3,24(sp)
 4002284:	15000017 	ldw	r20,0(r2)
 4002288:	00800044 	movi	r2,1
 400228c:	003a2a06 	br	4000b38 <___vfprintf_internal_r+0x530>
 4002290:	d8800617 	ldw	r2,24(sp)
 4002294:	002b883a 	mov	r21,zero
 4002298:	d8c00615 	stw	r3,24(sp)
 400229c:	15000017 	ldw	r20,0(r2)
 40022a0:	003b1306 	br	4000ef0 <___vfprintf_internal_r+0x8e8>
 40022a4:	800f883a 	mov	r7,r16
 40022a8:	dc000e17 	ldw	r16,56(sp)
 40022ac:	10800044 	addi	r2,r2,1
 40022b0:	1d47883a 	add	r3,r3,r21
 40022b4:	d8801b15 	stw	r2,108(sp)
 40022b8:	b1c00015 	stw	r7,0(r22)
 40022bc:	b5400115 	stw	r21,4(r22)
 40022c0:	d8c01c15 	stw	r3,112(sp)
 40022c4:	10800208 	cmpgei	r2,r2,8
 40022c8:	10003a1e 	bne	r2,zero,40023b4 <___vfprintf_internal_r+0x1dac>
 40022cc:	b5800204 	addi	r22,r22,8
 40022d0:	003d5406 	br	4001824 <___vfprintf_internal_r+0x121c>
 40022d4:	00800b44 	movi	r2,45
 40022d8:	d8801345 	stb	r2,77(sp)
 40022dc:	03400b44 	movi	r13,45
 40022e0:	003a6c06 	br	4000c94 <___vfprintf_internal_r+0x68c>
 40022e4:	1520003c 	xorhi	r20,r2,32768
 40022e8:	00800b44 	movi	r2,45
 40022ec:	d8800605 	stb	r2,24(sp)
 40022f0:	003ed106 	br	4001e38 <___vfprintf_internal_r+0x1830>
 40022f4:	d9801a04 	addi	r6,sp,104
 40022f8:	900b883a 	mov	r5,r18
 40022fc:	9809883a 	mov	r4,r19
 4002300:	40070e00 	call	40070e0 <__sprint_r>
 4002304:	1039cf1e 	bne	r2,zero,4000a44 <___vfprintf_internal_r+0x43c>
 4002308:	d9401417 	ldw	r5,80(sp)
 400230c:	d8c01c17 	ldw	r3,112(sp)
 4002310:	dd802704 	addi	r22,sp,156
 4002314:	003e9406 	br	4001d68 <___vfprintf_internal_r+0x1760>
 4002318:	05400184 	movi	r21,6
 400231c:	003e1706 	br	4001b7c <___vfprintf_internal_r+0x1574>
 4002320:	d9401345 	stb	r5,77(sp)
 4002324:	00397706 	br	4000904 <___vfprintf_internal_r+0x2fc>
 4002328:	d9801a04 	addi	r6,sp,104
 400232c:	900b883a 	mov	r5,r18
 4002330:	9809883a 	mov	r4,r19
 4002334:	40070e00 	call	40070e0 <__sprint_r>
 4002338:	0039c206 	br	4000a44 <___vfprintf_internal_r+0x43c>
 400233c:	d9000917 	ldw	r4,36(sp)
 4002340:	000d883a 	mov	r6,zero
 4002344:	000f883a 	mov	r7,zero
 4002348:	a00b883a 	mov	r5,r20
 400234c:	d8c01115 	stw	r3,68(sp)
 4002350:	da000815 	stw	r8,32(sp)
 4002354:	db000715 	stw	r12,28(sp)
 4002358:	400c1080 	call	400c108 <__eqdf2>
 400235c:	db000717 	ldw	r12,28(sp)
 4002360:	da000817 	ldw	r8,32(sp)
 4002364:	d8c01117 	ldw	r3,68(sp)
 4002368:	103f9d26 	beq	r2,zero,40021e0 <___vfprintf_internal_r+0x1bd8>
 400236c:	00800044 	movi	r2,1
 4002370:	1205c83a 	sub	r2,r2,r8
 4002374:	d8801415 	stw	r2,80(sp)
 4002378:	003f9a06 	br	40021e4 <___vfprintf_internal_r+0x1bdc>
 400237c:	403ea81e 	bne	r8,zero,4001e20 <___vfprintf_internal_r+0x1818>
 4002380:	02000044 	movi	r8,1
 4002384:	003ea606 	br	4001e20 <___vfprintf_internal_r+0x1818>
 4002388:	d9801a04 	addi	r6,sp,104
 400238c:	900b883a 	mov	r5,r18
 4002390:	9809883a 	mov	r4,r19
 4002394:	40070e00 	call	40070e0 <__sprint_r>
 4002398:	1039aa1e 	bne	r2,zero,4000a44 <___vfprintf_internal_r+0x43c>
 400239c:	d9401417 	ldw	r5,80(sp)
 40023a0:	d8c01c17 	ldw	r3,112(sp)
 40023a4:	d8801b17 	ldw	r2,108(sp)
 40023a8:	dd802704 	addi	r22,sp,156
 40023ac:	283e800e 	bge	r5,zero,4001db0 <___vfprintf_internal_r+0x17a8>
 40023b0:	003f3806 	br	4002094 <___vfprintf_internal_r+0x1a8c>
 40023b4:	d9801a04 	addi	r6,sp,104
 40023b8:	900b883a 	mov	r5,r18
 40023bc:	9809883a 	mov	r4,r19
 40023c0:	40070e00 	call	40070e0 <__sprint_r>
 40023c4:	10399f1e 	bne	r2,zero,4000a44 <___vfprintf_internal_r+0x43c>
 40023c8:	d8c01c17 	ldw	r3,112(sp)
 40023cc:	dd802704 	addi	r22,sp,156
 40023d0:	003d1406 	br	4001824 <___vfprintf_internal_r+0x121c>
 40023d4:	db000417 	ldw	r12,16(sp)
 40023d8:	003a9d06 	br	4000e50 <___vfprintf_internal_r+0x848>
 40023dc:	d8801804 	addi	r2,sp,96
 40023e0:	d8800315 	stw	r2,12(sp)
 40023e4:	d9400917 	ldw	r5,36(sp)
 40023e8:	d8801504 	addi	r2,sp,84
 40023ec:	40c00044 	addi	r3,r8,1
 40023f0:	d8800215 	stw	r2,8(sp)
 40023f4:	d8801404 	addi	r2,sp,80
 40023f8:	d8c00015 	stw	r3,0(sp)
 40023fc:	d8800115 	stw	r2,4(sp)
 4002400:	01c00084 	movi	r7,2
 4002404:	a00d883a 	mov	r6,r20
 4002408:	9809883a 	mov	r4,r19
 400240c:	db001115 	stw	r12,68(sp)
 4002410:	da000815 	stw	r8,32(sp)
 4002414:	d8c00715 	stw	r3,28(sp)
 4002418:	4002b6c0 	call	4002b6c <_dtoa_r>
 400241c:	d8c00717 	ldw	r3,28(sp)
 4002420:	da000817 	ldw	r8,32(sp)
 4002424:	db001117 	ldw	r12,68(sp)
 4002428:	1023883a 	mov	r17,r2
 400242c:	e08011d8 	cmpnei	r2,fp,71
 4002430:	103e9c26 	beq	r2,zero,4001ea4 <___vfprintf_internal_r+0x189c>
 4002434:	88d3883a 	add	r9,r17,r3
 4002438:	003f6b06 	br	40021e8 <___vfprintf_internal_r+0x1be0>
 400243c:	d8801817 	ldw	r2,96(sp)
 4002440:	127f762e 	bgeu	r2,r9,400221c <___vfprintf_internal_r+0x1c14>
 4002444:	01000c04 	movi	r4,48
 4002448:	10c00044 	addi	r3,r2,1
 400244c:	d8c01815 	stw	r3,96(sp)
 4002450:	11000005 	stb	r4,0(r2)
 4002454:	d8801817 	ldw	r2,96(sp)
 4002458:	127ffb36 	bltu	r2,r9,4002448 <___vfprintf_internal_r+0x1e40>
 400245c:	003f6f06 	br	400221c <___vfprintf_internal_r+0x1c14>
 4002460:	d8800e17 	ldw	r2,56(sp)
 4002464:	db401343 	ldbu	r13,77(sp)
 4002468:	0011883a 	mov	r8,zero
 400246c:	d8800615 	stw	r2,24(sp)
 4002470:	003a8006 	br	4000e74 <___vfprintf_internal_r+0x86c>
 4002474:	d8800717 	ldw	r2,28(sp)
 4002478:	d8c00817 	ldw	r3,32(sp)
 400247c:	10c02b16 	blt	r2,r3,400252c <___vfprintf_internal_r+0x1f24>
 4002480:	6300004c 	andi	r12,r12,1
 4002484:	6000581e 	bne	r12,zero,40025e8 <___vfprintf_internal_r+0x1fe0>
 4002488:	1029883a 	mov	r20,r2
 400248c:	1000010e 	bge	r2,zero,4002494 <___vfprintf_internal_r+0x1e8c>
 4002490:	0029883a 	mov	r20,zero
 4002494:	dd400717 	ldw	r21,28(sp)
 4002498:	070019c4 	movi	fp,103
 400249c:	003f6e06 	br	4002258 <___vfprintf_internal_r+0x1c50>
 40024a0:	d9801a04 	addi	r6,sp,104
 40024a4:	900b883a 	mov	r5,r18
 40024a8:	9809883a 	mov	r4,r19
 40024ac:	40070e00 	call	40070e0 <__sprint_r>
 40024b0:	1039641e 	bne	r2,zero,4000a44 <___vfprintf_internal_r+0x43c>
 40024b4:	dd401417 	ldw	r21,80(sp)
 40024b8:	d8c01c17 	ldw	r3,112(sp)
 40024bc:	dd802704 	addi	r22,sp,156
 40024c0:	003ce706 	br	4001860 <___vfprintf_internal_r+0x1258>
 40024c4:	d9801a04 	addi	r6,sp,104
 40024c8:	900b883a 	mov	r5,r18
 40024cc:	9809883a 	mov	r4,r19
 40024d0:	40070e00 	call	40070e0 <__sprint_r>
 40024d4:	10395b1e 	bne	r2,zero,4000a44 <___vfprintf_internal_r+0x43c>
 40024d8:	d8c01c17 	ldw	r3,112(sp)
 40024dc:	dd802704 	addi	r22,sp,156
 40024e0:	a83ccd0e 	bge	r21,zero,4001818 <___vfprintf_internal_r+0x1210>
 40024e4:	003d9106 	br	4001b2c <___vfprintf_internal_r+0x1524>
 40024e8:	02000184 	movi	r8,6
 40024ec:	003e4c06 	br	4001e20 <___vfprintf_internal_r+0x1818>
 40024f0:	d9801a04 	addi	r6,sp,104
 40024f4:	900b883a 	mov	r5,r18
 40024f8:	9809883a 	mov	r4,r19
 40024fc:	40070e00 	call	40070e0 <__sprint_r>
 4002500:	1039501e 	bne	r2,zero,4000a44 <___vfprintf_internal_r+0x43c>
 4002504:	d8801417 	ldw	r2,80(sp)
 4002508:	d9000817 	ldw	r4,32(sp)
 400250c:	d8c01c17 	ldw	r3,112(sp)
 4002510:	dd802704 	addi	r22,sp,156
 4002514:	2085c83a 	sub	r2,r4,r2
 4002518:	003ce506 	br	40018b0 <___vfprintf_internal_r+0x12a8>
 400251c:	4029883a 	mov	r20,r8
 4002520:	d8c00615 	stw	r3,24(sp)
 4002524:	402b883a 	mov	r21,r8
 4002528:	0038fc06 	br	400091c <___vfprintf_internal_r+0x314>
 400252c:	d8800817 	ldw	r2,32(sp)
 4002530:	d8c00b17 	ldw	r3,44(sp)
 4002534:	10eb883a 	add	r21,r2,r3
 4002538:	d8800717 	ldw	r2,28(sp)
 400253c:	00800316 	blt	zero,r2,400254c <___vfprintf_internal_r+0x1f44>
 4002540:	d8800717 	ldw	r2,28(sp)
 4002544:	a8abc83a 	sub	r21,r21,r2
 4002548:	ad400044 	addi	r21,r21,1
 400254c:	a829883a 	mov	r20,r21
 4002550:	a8002a16 	blt	r21,zero,40025fc <___vfprintf_internal_r+0x1ff4>
 4002554:	070019c4 	movi	fp,103
 4002558:	003f3f06 	br	4002258 <___vfprintf_internal_r+0x1c50>
 400255c:	d9401345 	stb	r5,77(sp)
 4002560:	003ae006 	br	40010e4 <___vfprintf_internal_r+0xadc>
 4002564:	d9401345 	stb	r5,77(sp)
 4002568:	003a5706 	br	4000ec8 <___vfprintf_internal_r+0x8c0>
 400256c:	d9401345 	stb	r5,77(sp)
 4002570:	003b1706 	br	40011d0 <___vfprintf_internal_r+0xbc8>
 4002574:	d9401345 	stb	r5,77(sp)
 4002578:	003a2006 	br	4000dfc <___vfprintf_internal_r+0x7f4>
 400257c:	d9401345 	stb	r5,77(sp)
 4002580:	003a6606 	br	4000f1c <___vfprintf_internal_r+0x914>
 4002584:	d9401345 	stb	r5,77(sp)
 4002588:	00399706 	br	4000be8 <___vfprintf_internal_r+0x5e0>
 400258c:	00bfffc4 	movi	r2,-1
 4002590:	d8800515 	stw	r2,20(sp)
 4002594:	00392e06 	br	4000a50 <___vfprintf_internal_r+0x448>
 4002598:	900f883a 	mov	r7,r18
 400259c:	8025883a 	mov	r18,r16
 40025a0:	dc000717 	ldw	r16,28(sp)
 40025a4:	10800044 	addi	r2,r2,1
 40025a8:	1f07883a 	add	r3,r3,fp
 40025ac:	b1c00015 	stw	r7,0(r22)
 40025b0:	b7000115 	stw	fp,4(r22)
 40025b4:	d8c01c15 	stw	r3,112(sp)
 40025b8:	d8801b15 	stw	r2,108(sp)
 40025bc:	11000208 	cmpgei	r4,r2,8
 40025c0:	203dfa26 	beq	r4,zero,4001dac <___vfprintf_internal_r+0x17a4>
 40025c4:	d9801a04 	addi	r6,sp,104
 40025c8:	900b883a 	mov	r5,r18
 40025cc:	9809883a 	mov	r4,r19
 40025d0:	40070e00 	call	40070e0 <__sprint_r>
 40025d4:	10391b1e 	bne	r2,zero,4000a44 <___vfprintf_internal_r+0x43c>
 40025d8:	d8c01c17 	ldw	r3,112(sp)
 40025dc:	d8801b17 	ldw	r2,108(sp)
 40025e0:	dd802704 	addi	r22,sp,156
 40025e4:	003df206 	br	4001db0 <___vfprintf_internal_r+0x17a8>
 40025e8:	d8800717 	ldw	r2,28(sp)
 40025ec:	d8c00b17 	ldw	r3,44(sp)
 40025f0:	10eb883a 	add	r21,r2,r3
 40025f4:	a829883a 	mov	r20,r21
 40025f8:	a83fd60e 	bge	r21,zero,4002554 <___vfprintf_internal_r+0x1f4c>
 40025fc:	0029883a 	mov	r20,zero
 4002600:	003fd406 	br	4002554 <___vfprintf_internal_r+0x1f4c>
 4002604:	00800c04 	movi	r2,48
 4002608:	ad400c04 	addi	r21,r21,48
 400260c:	d88016c5 	stb	r2,91(sp)
 4002610:	00800104 	movi	r2,4
 4002614:	dd401705 	stb	r21,92(sp)
 4002618:	d8801015 	stw	r2,64(sp)
 400261c:	003e6506 	br	4001fb4 <___vfprintf_internal_r+0x19ac>
 4002620:	d8800a17 	ldw	r2,40(sp)
 4002624:	10001916 	blt	r2,zero,400268c <___vfprintf_internal_r+0x2084>
 4002628:	db401343 	ldbu	r13,77(sp)
 400262c:	e0801210 	cmplti	r2,fp,72
 4002630:	1000131e 	bne	r2,zero,4002680 <___vfprintf_internal_r+0x2078>
 4002634:	04410074 	movhi	r17,1025
 4002638:	8c431e04 	addi	r17,r17,3192
 400263c:	00399906 	br	4000ca4 <___vfprintf_internal_r+0x69c>
 4002640:	05400044 	movi	r21,1
 4002644:	a8abc83a 	sub	r21,r21,r2
 4002648:	00800b44 	movi	r2,45
 400264c:	d8801685 	stb	r2,90(sp)
 4002650:	003e2906 	br	4001ef8 <___vfprintf_internal_r+0x18f0>
 4002654:	d8800b17 	ldw	r2,44(sp)
 4002658:	18ab883a 	add	r21,r3,r2
 400265c:	aa2b883a 	add	r21,r21,r8
 4002660:	a829883a 	mov	r20,r21
 4002664:	a83efc0e 	bge	r21,zero,4002258 <___vfprintf_internal_r+0x1c50>
 4002668:	0029883a 	mov	r20,zero
 400266c:	003efa06 	br	4002258 <___vfprintf_internal_r+0x1c50>
 4002670:	6080004c 	andi	r2,r12,1
 4002674:	d8800715 	stw	r2,28(sp)
 4002678:	103e531e 	bne	r2,zero,4001fc8 <___vfprintf_internal_r+0x19c0>
 400267c:	003ff806 	br	4002660 <___vfprintf_internal_r+0x2058>
 4002680:	04410074 	movhi	r17,1025
 4002684:	8c431d04 	addi	r17,r17,3188
 4002688:	00398606 	br	4000ca4 <___vfprintf_internal_r+0x69c>
 400268c:	00800b44 	movi	r2,45
 4002690:	d8801345 	stb	r2,77(sp)
 4002694:	03400b44 	movi	r13,45
 4002698:	003fe406 	br	400262c <___vfprintf_internal_r+0x2024>
 400269c:	1000031e 	bne	r2,zero,40026ac <___vfprintf_internal_r+0x20a4>
 40026a0:	05000044 	movi	r20,1
 40026a4:	05400044 	movi	r21,1
 40026a8:	003eeb06 	br	4002258 <___vfprintf_internal_r+0x1c50>
 40026ac:	d8800b17 	ldw	r2,44(sp)
 40026b0:	15400044 	addi	r21,r2,1
 40026b4:	aa2b883a 	add	r21,r21,r8
 40026b8:	003fe906 	br	4002660 <___vfprintf_internal_r+0x2058>
 40026bc:	b005883a 	mov	r2,r22
 40026c0:	39c32c04 	addi	r7,r7,3248
 40026c4:	003e9706 	br	4002124 <___vfprintf_internal_r+0x1b1c>
 40026c8:	8025883a 	mov	r18,r16
 40026cc:	0038dd06 	br	4000a44 <___vfprintf_internal_r+0x43c>
 40026d0:	00800084 	movi	r2,2
 40026d4:	d8801015 	stw	r2,64(sp)
 40026d8:	003e3606 	br	4001fb4 <___vfprintf_internal_r+0x19ac>
 40026dc:	d8c00617 	ldw	r3,24(sp)
 40026e0:	1a000017 	ldw	r8,0(r3)
 40026e4:	18c00104 	addi	r3,r3,4
 40026e8:	4000010e 	bge	r8,zero,40026f0 <___vfprintf_internal_r+0x20e8>
 40026ec:	023fffc4 	movi	r8,-1
 40026f0:	bf000043 	ldbu	fp,1(r23)
 40026f4:	d8c00615 	stw	r3,24(sp)
 40026f8:	102f883a 	mov	r23,r2
 40026fc:	e2c03fcc 	andi	r11,fp,255
 4002700:	5ac0201c 	xori	r11,r11,128
 4002704:	5affe004 	addi	r11,r11,-128
 4002708:	00380b06 	br	4000738 <___vfprintf_internal_r+0x130>

0400270c <__vfprintf_internal>:
 400270c:	00c10074 	movhi	r3,1025
 4002710:	2005883a 	mov	r2,r4
 4002714:	190bdd17 	ldw	r4,12148(r3)
 4002718:	300f883a 	mov	r7,r6
 400271c:	280d883a 	mov	r6,r5
 4002720:	100b883a 	mov	r5,r2
 4002724:	40006081 	jmpi	4000608 <___vfprintf_internal_r>

04002728 <__sbprintf>:
 4002728:	2880030b 	ldhu	r2,12(r5)
 400272c:	2b001917 	ldw	r12,100(r5)
 4002730:	2ac0038b 	ldhu	r11,14(r5)
 4002734:	2a800717 	ldw	r10,28(r5)
 4002738:	2a400917 	ldw	r9,36(r5)
 400273c:	defee204 	addi	sp,sp,-1144
 4002740:	da001a04 	addi	r8,sp,104
 4002744:	00c10004 	movi	r3,1024
 4002748:	dc011a15 	stw	r16,1128(sp)
 400274c:	10bfff4c 	andi	r2,r2,65533
 4002750:	2821883a 	mov	r16,r5
 4002754:	d80b883a 	mov	r5,sp
 4002758:	dc811c15 	stw	r18,1136(sp)
 400275c:	dc411b15 	stw	r17,1132(sp)
 4002760:	dfc11d15 	stw	ra,1140(sp)
 4002764:	2025883a 	mov	r18,r4
 4002768:	d880030d 	sth	r2,12(sp)
 400276c:	db001915 	stw	r12,100(sp)
 4002770:	dac0038d 	sth	r11,14(sp)
 4002774:	da800715 	stw	r10,28(sp)
 4002778:	da400915 	stw	r9,36(sp)
 400277c:	da000015 	stw	r8,0(sp)
 4002780:	da000415 	stw	r8,16(sp)
 4002784:	d8c00215 	stw	r3,8(sp)
 4002788:	d8c00515 	stw	r3,20(sp)
 400278c:	d8000615 	stw	zero,24(sp)
 4002790:	40006080 	call	4000608 <___vfprintf_internal_r>
 4002794:	1023883a 	mov	r17,r2
 4002798:	10000d0e 	bge	r2,zero,40027d0 <__sbprintf+0xa8>
 400279c:	d880030b 	ldhu	r2,12(sp)
 40027a0:	1080100c 	andi	r2,r2,64
 40027a4:	10000326 	beq	r2,zero,40027b4 <__sbprintf+0x8c>
 40027a8:	8080030b 	ldhu	r2,12(r16)
 40027ac:	10801014 	ori	r2,r2,64
 40027b0:	8080030d 	sth	r2,12(r16)
 40027b4:	8805883a 	mov	r2,r17
 40027b8:	dfc11d17 	ldw	ra,1140(sp)
 40027bc:	dc811c17 	ldw	r18,1136(sp)
 40027c0:	dc411b17 	ldw	r17,1132(sp)
 40027c4:	dc011a17 	ldw	r16,1128(sp)
 40027c8:	dec11e04 	addi	sp,sp,1144
 40027cc:	f800283a 	ret
 40027d0:	d80b883a 	mov	r5,sp
 40027d4:	9009883a 	mov	r4,r18
 40027d8:	40044dc0 	call	40044dc <_fflush_r>
 40027dc:	103fef26 	beq	r2,zero,400279c <__sbprintf+0x74>
 40027e0:	047fffc4 	movi	r17,-1
 40027e4:	003fed06 	br	400279c <__sbprintf+0x74>

040027e8 <__swsetup_r>:
 40027e8:	00810074 	movhi	r2,1025
 40027ec:	108bdd17 	ldw	r2,12148(r2)
 40027f0:	defffd04 	addi	sp,sp,-12
 40027f4:	dc400115 	stw	r17,4(sp)
 40027f8:	dc000015 	stw	r16,0(sp)
 40027fc:	dfc00215 	stw	ra,8(sp)
 4002800:	2023883a 	mov	r17,r4
 4002804:	2821883a 	mov	r16,r5
 4002808:	10000226 	beq	r2,zero,4002814 <__swsetup_r+0x2c>
 400280c:	10c00e17 	ldw	r3,56(r2)
 4002810:	18001f26 	beq	r3,zero,4002890 <__swsetup_r+0xa8>
 4002814:	8180030b 	ldhu	r6,12(r16)
 4002818:	30c0020c 	andi	r3,r6,8
 400281c:	3005883a 	mov	r2,r6
 4002820:	18002126 	beq	r3,zero,40028a8 <__swsetup_r+0xc0>
 4002824:	80c00417 	ldw	r3,16(r16)
 4002828:	18002826 	beq	r3,zero,40028cc <__swsetup_r+0xe4>
 400282c:	1100004c 	andi	r4,r2,1
 4002830:	20000b1e 	bne	r4,zero,4002860 <__swsetup_r+0x78>
 4002834:	1100008c 	andi	r4,r2,2
 4002838:	20002e1e 	bne	r4,zero,40028f4 <__swsetup_r+0x10c>
 400283c:	81000517 	ldw	r4,20(r16)
 4002840:	81000215 	stw	r4,8(r16)
 4002844:	18000b26 	beq	r3,zero,4002874 <__swsetup_r+0x8c>
 4002848:	0005883a 	mov	r2,zero
 400284c:	dfc00217 	ldw	ra,8(sp)
 4002850:	dc400117 	ldw	r17,4(sp)
 4002854:	dc000017 	ldw	r16,0(sp)
 4002858:	dec00304 	addi	sp,sp,12
 400285c:	f800283a 	ret
 4002860:	81000517 	ldw	r4,20(r16)
 4002864:	80000215 	stw	zero,8(r16)
 4002868:	0109c83a 	sub	r4,zero,r4
 400286c:	81000615 	stw	r4,24(r16)
 4002870:	183ff51e 	bne	r3,zero,4002848 <__swsetup_r+0x60>
 4002874:	10c0200c 	andi	r3,r2,128
 4002878:	0005883a 	mov	r2,zero
 400287c:	183ff326 	beq	r3,zero,400284c <__swsetup_r+0x64>
 4002880:	31801014 	ori	r6,r6,64
 4002884:	8180030d 	sth	r6,12(r16)
 4002888:	00bfffc4 	movi	r2,-1
 400288c:	003fef06 	br	400284c <__swsetup_r+0x64>
 4002890:	1009883a 	mov	r4,r2
 4002894:	40049240 	call	4004924 <__sinit>
 4002898:	8180030b 	ldhu	r6,12(r16)
 400289c:	30c0020c 	andi	r3,r6,8
 40028a0:	3005883a 	mov	r2,r6
 40028a4:	183fdf1e 	bne	r3,zero,4002824 <__swsetup_r+0x3c>
 40028a8:	3080040c 	andi	r2,r6,16
 40028ac:	10002126 	beq	r2,zero,4002934 <__swsetup_r+0x14c>
 40028b0:	3080010c 	andi	r2,r6,4
 40028b4:	1000111e 	bne	r2,zero,40028fc <__swsetup_r+0x114>
 40028b8:	80c00417 	ldw	r3,16(r16)
 40028bc:	30800214 	ori	r2,r6,8
 40028c0:	8080030d 	sth	r2,12(r16)
 40028c4:	100d883a 	mov	r6,r2
 40028c8:	183fd81e 	bne	r3,zero,400282c <__swsetup_r+0x44>
 40028cc:	1100a00c 	andi	r4,r2,640
 40028d0:	21008020 	cmpeqi	r4,r4,512
 40028d4:	203fd51e 	bne	r4,zero,400282c <__swsetup_r+0x44>
 40028d8:	800b883a 	mov	r5,r16
 40028dc:	8809883a 	mov	r4,r17
 40028e0:	4004ee40 	call	4004ee4 <__smakebuf_r>
 40028e4:	8180030b 	ldhu	r6,12(r16)
 40028e8:	80c00417 	ldw	r3,16(r16)
 40028ec:	3005883a 	mov	r2,r6
 40028f0:	003fce06 	br	400282c <__swsetup_r+0x44>
 40028f4:	0009883a 	mov	r4,zero
 40028f8:	003fd106 	br	4002840 <__swsetup_r+0x58>
 40028fc:	81400c17 	ldw	r5,48(r16)
 4002900:	28000626 	beq	r5,zero,400291c <__swsetup_r+0x134>
 4002904:	80801004 	addi	r2,r16,64
 4002908:	28800326 	beq	r5,r2,4002918 <__swsetup_r+0x130>
 400290c:	8809883a 	mov	r4,r17
 4002910:	4004a880 	call	4004a88 <_free_r>
 4002914:	8180030b 	ldhu	r6,12(r16)
 4002918:	80000c15 	stw	zero,48(r16)
 400291c:	80c00417 	ldw	r3,16(r16)
 4002920:	00bff6c4 	movi	r2,-37
 4002924:	118c703a 	and	r6,r2,r6
 4002928:	80000115 	stw	zero,4(r16)
 400292c:	80c00015 	stw	r3,0(r16)
 4002930:	003fe206 	br	40028bc <__swsetup_r+0xd4>
 4002934:	00800244 	movi	r2,9
 4002938:	88800015 	stw	r2,0(r17)
 400293c:	31801014 	ori	r6,r6,64
 4002940:	8180030d 	sth	r6,12(r16)
 4002944:	00bfffc4 	movi	r2,-1
 4002948:	003fc006 	br	400284c <__swsetup_r+0x64>

0400294c <quorem>:
 400294c:	defff204 	addi	sp,sp,-56
 4002950:	dc400515 	stw	r17,20(sp)
 4002954:	20800417 	ldw	r2,16(r4)
 4002958:	2c400417 	ldw	r17,16(r5)
 400295c:	dfc00d15 	stw	ra,52(sp)
 4002960:	df000c15 	stw	fp,48(sp)
 4002964:	ddc00b15 	stw	r23,44(sp)
 4002968:	dd800a15 	stw	r22,40(sp)
 400296c:	dd400915 	stw	r21,36(sp)
 4002970:	dd000815 	stw	r20,32(sp)
 4002974:	dcc00715 	stw	r19,28(sp)
 4002978:	dc800615 	stw	r18,24(sp)
 400297c:	dc000415 	stw	r16,16(sp)
 4002980:	d9000115 	stw	r4,4(sp)
 4002984:	d9400215 	stw	r5,8(sp)
 4002988:	14407616 	blt	r2,r17,4002b64 <quorem+0x218>
 400298c:	8c7fffc4 	addi	r17,r17,-1
 4002990:	882a90ba 	slli	r21,r17,2
 4002994:	2f000504 	addi	fp,r5,20
 4002998:	25800504 	addi	r22,r4,20
 400299c:	e565883a 	add	r18,fp,r21
 40029a0:	b545883a 	add	r2,r22,r21
 40029a4:	95c00017 	ldw	r23,0(r18)
 40029a8:	15000017 	ldw	r20,0(r2)
 40029ac:	dd800015 	stw	r22,0(sp)
 40029b0:	bdc00044 	addi	r23,r23,1
 40029b4:	b80b883a 	mov	r5,r23
 40029b8:	a009883a 	mov	r4,r20
 40029bc:	d8800315 	stw	r2,12(sp)
 40029c0:	400046c0 	call	400046c <__udivsi3>
 40029c4:	1021883a 	mov	r16,r2
 40029c8:	a5c02f36 	bltu	r20,r23,4002a88 <quorem+0x13c>
 40029cc:	e029883a 	mov	r20,fp
 40029d0:	002b883a 	mov	r21,zero
 40029d4:	002f883a 	mov	r23,zero
 40029d8:	a4c00017 	ldw	r19,0(r20)
 40029dc:	800b883a 	mov	r5,r16
 40029e0:	b5800104 	addi	r22,r22,4
 40029e4:	993fffcc 	andi	r4,r19,65535
 40029e8:	400aec00 	call	400aec0 <__mulsi3>
 40029ec:	9808d43a 	srli	r4,r19,16
 40029f0:	800b883a 	mov	r5,r16
 40029f4:	156b883a 	add	r21,r2,r21
 40029f8:	400aec00 	call	400aec0 <__mulsi3>
 40029fc:	b0ffff17 	ldw	r3,-4(r22)
 4002a00:	a80ad43a 	srli	r5,r21,16
 4002a04:	a93fffcc 	andi	r4,r21,65535
 4002a08:	19bfffcc 	andi	r6,r3,65535
 4002a0c:	b909c83a 	sub	r4,r23,r4
 4002a10:	2189883a 	add	r4,r4,r6
 4002a14:	1806d43a 	srli	r3,r3,16
 4002a18:	1145883a 	add	r2,r2,r5
 4002a1c:	200bd43a 	srai	r5,r4,16
 4002a20:	11bfffcc 	andi	r6,r2,65535
 4002a24:	1987c83a 	sub	r3,r3,r6
 4002a28:	1947883a 	add	r3,r3,r5
 4002a2c:	180a943a 	slli	r5,r3,16
 4002a30:	213fffcc 	andi	r4,r4,65535
 4002a34:	a5000104 	addi	r20,r20,4
 4002a38:	2908b03a 	or	r4,r5,r4
 4002a3c:	b13fff15 	stw	r4,-4(r22)
 4002a40:	102ad43a 	srli	r21,r2,16
 4002a44:	182fd43a 	srai	r23,r3,16
 4002a48:	953fe32e 	bgeu	r18,r20,40029d8 <quorem+0x8c>
 4002a4c:	d8c00317 	ldw	r3,12(sp)
 4002a50:	18800017 	ldw	r2,0(r3)
 4002a54:	10000c1e 	bne	r2,zero,4002a88 <quorem+0x13c>
 4002a58:	d8800017 	ldw	r2,0(sp)
 4002a5c:	1d7fff04 	addi	r21,r3,-4
 4002a60:	15400436 	bltu	r2,r21,4002a74 <quorem+0x128>
 4002a64:	00000606 	br	4002a80 <quorem+0x134>
 4002a68:	d8800017 	ldw	r2,0(sp)
 4002a6c:	8c7fffc4 	addi	r17,r17,-1
 4002a70:	1540032e 	bgeu	r2,r21,4002a80 <quorem+0x134>
 4002a74:	a8800017 	ldw	r2,0(r21)
 4002a78:	ad7fff04 	addi	r21,r21,-4
 4002a7c:	103ffa26 	beq	r2,zero,4002a68 <quorem+0x11c>
 4002a80:	d8800117 	ldw	r2,4(sp)
 4002a84:	14400415 	stw	r17,16(r2)
 4002a88:	d9400217 	ldw	r5,8(sp)
 4002a8c:	d9000117 	ldw	r4,4(sp)
 4002a90:	40066800 	call	4006680 <__mcmp>
 4002a94:	10002616 	blt	r2,zero,4002b30 <quorem+0x1e4>
 4002a98:	d9400017 	ldw	r5,0(sp)
 4002a9c:	84000044 	addi	r16,r16,1
 4002aa0:	0007883a 	mov	r3,zero
 4002aa4:	e1000017 	ldw	r4,0(fp)
 4002aa8:	29800017 	ldw	r6,0(r5)
 4002aac:	29400104 	addi	r5,r5,4
 4002ab0:	20bfffcc 	andi	r2,r4,65535
 4002ab4:	1887c83a 	sub	r3,r3,r2
 4002ab8:	30bfffcc 	andi	r2,r6,65535
 4002abc:	1885883a 	add	r2,r3,r2
 4002ac0:	2008d43a 	srli	r4,r4,16
 4002ac4:	3006d43a 	srli	r3,r6,16
 4002ac8:	100fd43a 	srai	r7,r2,16
 4002acc:	11bfffcc 	andi	r6,r2,65535
 4002ad0:	1907c83a 	sub	r3,r3,r4
 4002ad4:	19c7883a 	add	r3,r3,r7
 4002ad8:	1804943a 	slli	r2,r3,16
 4002adc:	e7000104 	addi	fp,fp,4
 4002ae0:	1807d43a 	srai	r3,r3,16
 4002ae4:	1184b03a 	or	r2,r2,r6
 4002ae8:	28bfff15 	stw	r2,-4(r5)
 4002aec:	973fed2e 	bgeu	r18,fp,4002aa4 <quorem+0x158>
 4002af0:	880490ba 	slli	r2,r17,2
 4002af4:	d9000017 	ldw	r4,0(sp)
 4002af8:	2085883a 	add	r2,r4,r2
 4002afc:	10c00017 	ldw	r3,0(r2)
 4002b00:	18000b1e 	bne	r3,zero,4002b30 <quorem+0x1e4>
 4002b04:	10bfff04 	addi	r2,r2,-4
 4002b08:	20800436 	bltu	r4,r2,4002b1c <quorem+0x1d0>
 4002b0c:	00000606 	br	4002b28 <quorem+0x1dc>
 4002b10:	d8c00017 	ldw	r3,0(sp)
 4002b14:	8c7fffc4 	addi	r17,r17,-1
 4002b18:	1880032e 	bgeu	r3,r2,4002b28 <quorem+0x1dc>
 4002b1c:	10c00017 	ldw	r3,0(r2)
 4002b20:	10bfff04 	addi	r2,r2,-4
 4002b24:	183ffa26 	beq	r3,zero,4002b10 <quorem+0x1c4>
 4002b28:	d8800117 	ldw	r2,4(sp)
 4002b2c:	14400415 	stw	r17,16(r2)
 4002b30:	8005883a 	mov	r2,r16
 4002b34:	dfc00d17 	ldw	ra,52(sp)
 4002b38:	df000c17 	ldw	fp,48(sp)
 4002b3c:	ddc00b17 	ldw	r23,44(sp)
 4002b40:	dd800a17 	ldw	r22,40(sp)
 4002b44:	dd400917 	ldw	r21,36(sp)
 4002b48:	dd000817 	ldw	r20,32(sp)
 4002b4c:	dcc00717 	ldw	r19,28(sp)
 4002b50:	dc800617 	ldw	r18,24(sp)
 4002b54:	dc400517 	ldw	r17,20(sp)
 4002b58:	dc000417 	ldw	r16,16(sp)
 4002b5c:	dec00e04 	addi	sp,sp,56
 4002b60:	f800283a 	ret
 4002b64:	0005883a 	mov	r2,zero
 4002b68:	003ff206 	br	4002b34 <quorem+0x1e8>

04002b6c <_dtoa_r>:
 4002b6c:	20801017 	ldw	r2,64(r4)
 4002b70:	deffe204 	addi	sp,sp,-120
 4002b74:	ddc01b15 	stw	r23,108(sp)
 4002b78:	dcc01715 	stw	r19,92(sp)
 4002b7c:	dc801615 	stw	r18,88(sp)
 4002b80:	dc401515 	stw	r17,84(sp)
 4002b84:	dc001415 	stw	r16,80(sp)
 4002b88:	dfc01d15 	stw	ra,116(sp)
 4002b8c:	df001c15 	stw	fp,112(sp)
 4002b90:	dd801a15 	stw	r22,104(sp)
 4002b94:	dd401915 	stw	r21,100(sp)
 4002b98:	dd001815 	stw	r20,96(sp)
 4002b9c:	d9c00215 	stw	r7,8(sp)
 4002ba0:	dc002017 	ldw	r16,128(sp)
 4002ba4:	202f883a 	mov	r23,r4
 4002ba8:	3025883a 	mov	r18,r6
 4002bac:	2827883a 	mov	r19,r5
 4002bb0:	3023883a 	mov	r17,r6
 4002bb4:	10000826 	beq	r2,zero,4002bd8 <_dtoa_r+0x6c>
 4002bb8:	21801117 	ldw	r6,68(r4)
 4002bbc:	00c00044 	movi	r3,1
 4002bc0:	100b883a 	mov	r5,r2
 4002bc4:	1986983a 	sll	r3,r3,r6
 4002bc8:	11800115 	stw	r6,4(r2)
 4002bcc:	10c00215 	stw	r3,8(r2)
 4002bd0:	4005c700 	call	4005c70 <_Bfree>
 4002bd4:	b8001015 	stw	zero,64(r23)
 4002bd8:	90018816 	blt	r18,zero,40031fc <_dtoa_r+0x690>
 4002bdc:	80000015 	stw	zero,0(r16)
 4002be0:	909ffc2c 	andhi	r2,r18,32752
 4002be4:	00dffc34 	movhi	r3,32752
 4002be8:	10c18d26 	beq	r2,r3,4003220 <_dtoa_r+0x6b4>
 4002bec:	000d883a 	mov	r6,zero
 4002bf0:	000f883a 	mov	r7,zero
 4002bf4:	9809883a 	mov	r4,r19
 4002bf8:	880b883a 	mov	r5,r17
 4002bfc:	400c1080 	call	400c108 <__eqdf2>
 4002c00:	1000191e 	bne	r2,zero,4002c68 <_dtoa_r+0xfc>
 4002c04:	d8c01f17 	ldw	r3,124(sp)
 4002c08:	00800044 	movi	r2,1
 4002c0c:	18800015 	stw	r2,0(r3)
 4002c10:	d8802117 	ldw	r2,132(sp)
 4002c14:	1002f926 	beq	r2,zero,40037fc <_dtoa_r+0xc90>
 4002c18:	d9002117 	ldw	r4,132(sp)
 4002c1c:	00810074 	movhi	r2,1025
 4002c20:	10832b44 	addi	r2,r2,3245
 4002c24:	00c10074 	movhi	r3,1025
 4002c28:	20800015 	stw	r2,0(r4)
 4002c2c:	18832b04 	addi	r2,r3,3244
 4002c30:	d8800115 	stw	r2,4(sp)
 4002c34:	d8800117 	ldw	r2,4(sp)
 4002c38:	dfc01d17 	ldw	ra,116(sp)
 4002c3c:	df001c17 	ldw	fp,112(sp)
 4002c40:	ddc01b17 	ldw	r23,108(sp)
 4002c44:	dd801a17 	ldw	r22,104(sp)
 4002c48:	dd401917 	ldw	r21,100(sp)
 4002c4c:	dd001817 	ldw	r20,96(sp)
 4002c50:	dcc01717 	ldw	r19,92(sp)
 4002c54:	dc801617 	ldw	r18,88(sp)
 4002c58:	dc401517 	ldw	r17,84(sp)
 4002c5c:	dc001417 	ldw	r16,80(sp)
 4002c60:	dec01e04 	addi	sp,sp,120
 4002c64:	f800283a 	ret
 4002c68:	d8801204 	addi	r2,sp,72
 4002c6c:	9020d53a 	srli	r16,r18,20
 4002c70:	d8800015 	stw	r2,0(sp)
 4002c74:	d9c01304 	addi	r7,sp,76
 4002c78:	980b883a 	mov	r5,r19
 4002c7c:	880d883a 	mov	r6,r17
 4002c80:	b809883a 	mov	r4,r23
 4002c84:	4006a680 	call	4006a68 <__d2b>
 4002c88:	1039883a 	mov	fp,r2
 4002c8c:	8001771e 	bne	r16,zero,400326c <_dtoa_r+0x700>
 4002c90:	dd001217 	ldw	r20,72(sp)
 4002c94:	dc001317 	ldw	r16,76(sp)
 4002c98:	a421883a 	add	r16,r20,r16
 4002c9c:	80810c84 	addi	r2,r16,1074
 4002ca0:	10c00850 	cmplti	r3,r2,33
 4002ca4:	1802e51e 	bne	r3,zero,400383c <_dtoa_r+0xcd0>
 4002ca8:	01001004 	movi	r4,64
 4002cac:	2085c83a 	sub	r2,r4,r2
 4002cb0:	81010484 	addi	r4,r16,1042
 4002cb4:	90a4983a 	sll	r18,r18,r2
 4002cb8:	9908d83a 	srl	r4,r19,r4
 4002cbc:	9108b03a 	or	r4,r18,r4
 4002cc0:	400d5440 	call	400d544 <__floatunsidf>
 4002cc4:	1009883a 	mov	r4,r2
 4002cc8:	017f8434 	movhi	r5,65040
 4002ccc:	00800044 	movi	r2,1
 4002cd0:	194b883a 	add	r5,r3,r5
 4002cd4:	843fffc4 	addi	r16,r16,-1
 4002cd8:	d8800a15 	stw	r2,40(sp)
 4002cdc:	000d883a 	mov	r6,zero
 4002ce0:	01cffe34 	movhi	r7,16376
 4002ce4:	400cb040 	call	400cb04 <__subdf3>
 4002ce8:	0198dbf4 	movhi	r6,25455
 4002cec:	01cff4f4 	movhi	r7,16339
 4002cf0:	3190d844 	addi	r6,r6,17249
 4002cf4:	39e1e9c4 	addi	r7,r7,-30809
 4002cf8:	1009883a 	mov	r4,r2
 4002cfc:	180b883a 	mov	r5,r3
 4002d00:	400c3580 	call	400c358 <__muldf3>
 4002d04:	01a2d874 	movhi	r6,35681
 4002d08:	01cff1f4 	movhi	r7,16327
 4002d0c:	31b22cc4 	addi	r6,r6,-14157
 4002d10:	39e28a04 	addi	r7,r7,-30168
 4002d14:	180b883a 	mov	r5,r3
 4002d18:	1009883a 	mov	r4,r2
 4002d1c:	400aee80 	call	400aee8 <__adddf3>
 4002d20:	8009883a 	mov	r4,r16
 4002d24:	102b883a 	mov	r21,r2
 4002d28:	1825883a 	mov	r18,r3
 4002d2c:	400d48c0 	call	400d48c <__floatsidf>
 4002d30:	019427f4 	movhi	r6,20639
 4002d34:	01cff4f4 	movhi	r7,16339
 4002d38:	319e7ec4 	addi	r6,r6,31227
 4002d3c:	39d104c4 	addi	r7,r7,17427
 4002d40:	1009883a 	mov	r4,r2
 4002d44:	180b883a 	mov	r5,r3
 4002d48:	400c3580 	call	400c358 <__muldf3>
 4002d4c:	100d883a 	mov	r6,r2
 4002d50:	180f883a 	mov	r7,r3
 4002d54:	a809883a 	mov	r4,r21
 4002d58:	900b883a 	mov	r5,r18
 4002d5c:	400aee80 	call	400aee8 <__adddf3>
 4002d60:	1009883a 	mov	r4,r2
 4002d64:	180b883a 	mov	r5,r3
 4002d68:	1025883a 	mov	r18,r2
 4002d6c:	182d883a 	mov	r22,r3
 4002d70:	400d40c0 	call	400d40c <__fixdfsi>
 4002d74:	000d883a 	mov	r6,zero
 4002d78:	000f883a 	mov	r7,zero
 4002d7c:	9009883a 	mov	r4,r18
 4002d80:	b00b883a 	mov	r5,r22
 4002d84:	102b883a 	mov	r21,r2
 4002d88:	d8800315 	stw	r2,12(sp)
 4002d8c:	400c2700 	call	400c270 <__ledf2>
 4002d90:	10028f16 	blt	r2,zero,40037d0 <_dtoa_r+0xc64>
 4002d94:	dc800317 	ldw	r18,12(sp)
 4002d98:	a421c83a 	sub	r16,r20,r16
 4002d9c:	85bfffc4 	addi	r22,r16,-1
 4002da0:	908005e8 	cmpgeui	r2,r18,23
 4002da4:	1002821e 	bne	r2,zero,40037b0 <_dtoa_r+0xc44>
 4002da8:	900690fa 	slli	r3,r18,3
 4002dac:	00810074 	movhi	r2,1025
 4002db0:	10837404 	addi	r2,r2,3536
 4002db4:	10c5883a 	add	r2,r2,r3
 4002db8:	11800017 	ldw	r6,0(r2)
 4002dbc:	11c00117 	ldw	r7,4(r2)
 4002dc0:	9809883a 	mov	r4,r19
 4002dc4:	880b883a 	mov	r5,r17
 4002dc8:	400c2700 	call	400c270 <__ledf2>
 4002dcc:	1002550e 	bge	r2,zero,4003724 <_dtoa_r+0xbb8>
 4002dd0:	90bfffc4 	addi	r2,r18,-1
 4002dd4:	d8800315 	stw	r2,12(sp)
 4002dd8:	d8000915 	stw	zero,36(sp)
 4002ddc:	b0027716 	blt	r22,zero,40037bc <_dtoa_r+0xc50>
 4002de0:	d8000615 	stw	zero,24(sp)
 4002de4:	d8800317 	ldw	r2,12(sp)
 4002de8:	1002510e 	bge	r2,zero,4003730 <_dtoa_r+0xbc4>
 4002dec:	d8800317 	ldw	r2,12(sp)
 4002df0:	d8c00617 	ldw	r3,24(sp)
 4002df4:	d8000315 	stw	zero,12(sp)
 4002df8:	d8800415 	stw	r2,16(sp)
 4002dfc:	1887c83a 	sub	r3,r3,r2
 4002e00:	d8c00615 	stw	r3,24(sp)
 4002e04:	0087c83a 	sub	r3,zero,r2
 4002e08:	d8c00815 	stw	r3,32(sp)
 4002e0c:	d8c00217 	ldw	r3,8(sp)
 4002e10:	188002a8 	cmpgeui	r2,r3,10
 4002e14:	10024d1e 	bne	r2,zero,400374c <_dtoa_r+0xbe0>
 4002e18:	18800190 	cmplti	r2,r3,6
 4002e1c:	10028b1e 	bne	r2,zero,400384c <_dtoa_r+0xce0>
 4002e20:	18bfff04 	addi	r2,r3,-4
 4002e24:	d8800215 	stw	r2,8(sp)
 4002e28:	0021883a 	mov	r16,zero
 4002e2c:	d8c00217 	ldw	r3,8(sp)
 4002e30:	18800120 	cmpeqi	r2,r3,4
 4002e34:	10035d1e 	bne	r2,zero,4003bac <_dtoa_r+0x1040>
 4002e38:	18800160 	cmpeqi	r2,r3,5
 4002e3c:	10031b1e 	bne	r2,zero,4003aac <_dtoa_r+0xf40>
 4002e40:	188000a0 	cmpeqi	r2,r3,2
 4002e44:	10024d26 	beq	r2,zero,400377c <_dtoa_r+0xc10>
 4002e48:	d8000715 	stw	zero,28(sp)
 4002e4c:	d8801e17 	ldw	r2,120(sp)
 4002e50:	0083260e 	bge	zero,r2,4003aec <_dtoa_r+0xf80>
 4002e54:	d8800b15 	stw	r2,44(sp)
 4002e58:	d8800515 	stw	r2,20(sp)
 4002e5c:	100d883a 	mov	r6,r2
 4002e60:	b8001115 	stw	zero,68(r23)
 4002e64:	30800610 	cmplti	r2,r6,24
 4002e68:	1004f11e 	bne	r2,zero,4004230 <_dtoa_r+0x16c4>
 4002e6c:	00c00044 	movi	r3,1
 4002e70:	00800104 	movi	r2,4
 4002e74:	1085883a 	add	r2,r2,r2
 4002e78:	11000504 	addi	r4,r2,20
 4002e7c:	180b883a 	mov	r5,r3
 4002e80:	18c00044 	addi	r3,r3,1
 4002e84:	313ffb2e 	bgeu	r6,r4,4002e74 <_dtoa_r+0x308>
 4002e88:	b9401115 	stw	r5,68(r23)
 4002e8c:	b809883a 	mov	r4,r23
 4002e90:	4005bcc0 	call	4005bcc <_Balloc>
 4002e94:	d8800115 	stw	r2,4(sp)
 4002e98:	1004de26 	beq	r2,zero,4004214 <_dtoa_r+0x16a8>
 4002e9c:	d8800117 	ldw	r2,4(sp)
 4002ea0:	b8801015 	stw	r2,64(r23)
 4002ea4:	d8800517 	ldw	r2,20(sp)
 4002ea8:	108003e8 	cmpgeui	r2,r2,15
 4002eac:	1001021e 	bne	r2,zero,40032b8 <_dtoa_r+0x74c>
 4002eb0:	80010126 	beq	r16,zero,40032b8 <_dtoa_r+0x74c>
 4002eb4:	d9000417 	ldw	r4,16(sp)
 4002eb8:	01038b0e 	bge	zero,r4,4003ce8 <_dtoa_r+0x117c>
 4002ebc:	208003cc 	andi	r2,r4,15
 4002ec0:	100690fa 	slli	r3,r2,3
 4002ec4:	2029d13a 	srai	r20,r4,4
 4002ec8:	00810074 	movhi	r2,1025
 4002ecc:	10837404 	addi	r2,r2,3536
 4002ed0:	10c5883a 	add	r2,r2,r3
 4002ed4:	a0c0040c 	andi	r3,r20,16
 4002ed8:	12800017 	ldw	r10,0(r2)
 4002edc:	12400117 	ldw	r9,4(r2)
 4002ee0:	18032c26 	beq	r3,zero,4003b94 <_dtoa_r+0x1028>
 4002ee4:	00810074 	movhi	r2,1025
 4002ee8:	10836a04 	addi	r2,r2,3496
 4002eec:	11800817 	ldw	r6,32(r2)
 4002ef0:	11c00917 	ldw	r7,36(r2)
 4002ef4:	9809883a 	mov	r4,r19
 4002ef8:	880b883a 	mov	r5,r17
 4002efc:	da400e15 	stw	r9,56(sp)
 4002f00:	da800d15 	stw	r10,52(sp)
 4002f04:	400b7d80 	call	400b7d8 <__divdf3>
 4002f08:	da800d17 	ldw	r10,52(sp)
 4002f0c:	da400e17 	ldw	r9,56(sp)
 4002f10:	a50003cc 	andi	r20,r20,15
 4002f14:	d8800c15 	stw	r2,48(sp)
 4002f18:	1825883a 	mov	r18,r3
 4002f1c:	054000c4 	movi	r21,3
 4002f20:	a0001126 	beq	r20,zero,4002f68 <_dtoa_r+0x3fc>
 4002f24:	04010074 	movhi	r16,1025
 4002f28:	84036a04 	addi	r16,r16,3496
 4002f2c:	5009883a 	mov	r4,r10
 4002f30:	480b883a 	mov	r5,r9
 4002f34:	a180004c 	andi	r6,r20,1
 4002f38:	30000626 	beq	r6,zero,4002f54 <_dtoa_r+0x3e8>
 4002f3c:	81800017 	ldw	r6,0(r16)
 4002f40:	81c00117 	ldw	r7,4(r16)
 4002f44:	ad400044 	addi	r21,r21,1
 4002f48:	400c3580 	call	400c358 <__muldf3>
 4002f4c:	1009883a 	mov	r4,r2
 4002f50:	180b883a 	mov	r5,r3
 4002f54:	a029d07a 	srai	r20,r20,1
 4002f58:	84000204 	addi	r16,r16,8
 4002f5c:	a03ff51e 	bne	r20,zero,4002f34 <_dtoa_r+0x3c8>
 4002f60:	2015883a 	mov	r10,r4
 4002f64:	2813883a 	mov	r9,r5
 4002f68:	d9000c17 	ldw	r4,48(sp)
 4002f6c:	900b883a 	mov	r5,r18
 4002f70:	500d883a 	mov	r6,r10
 4002f74:	480f883a 	mov	r7,r9
 4002f78:	400b7d80 	call	400b7d8 <__divdf3>
 4002f7c:	1021883a 	mov	r16,r2
 4002f80:	1825883a 	mov	r18,r3
 4002f84:	d8800917 	ldw	r2,36(sp)
 4002f88:	10000626 	beq	r2,zero,4002fa4 <_dtoa_r+0x438>
 4002f8c:	000d883a 	mov	r6,zero
 4002f90:	01cffc34 	movhi	r7,16368
 4002f94:	8009883a 	mov	r4,r16
 4002f98:	900b883a 	mov	r5,r18
 4002f9c:	400c2700 	call	400c270 <__ledf2>
 4002fa0:	10044416 	blt	r2,zero,40040b4 <_dtoa_r+0x1548>
 4002fa4:	a809883a 	mov	r4,r21
 4002fa8:	400d48c0 	call	400d48c <__floatsidf>
 4002fac:	800d883a 	mov	r6,r16
 4002fb0:	900f883a 	mov	r7,r18
 4002fb4:	1009883a 	mov	r4,r2
 4002fb8:	180b883a 	mov	r5,r3
 4002fbc:	400c3580 	call	400c358 <__muldf3>
 4002fc0:	000d883a 	mov	r6,zero
 4002fc4:	01d00734 	movhi	r7,16412
 4002fc8:	1009883a 	mov	r4,r2
 4002fcc:	180b883a 	mov	r5,r3
 4002fd0:	400aee80 	call	400aee8 <__adddf3>
 4002fd4:	1029883a 	mov	r20,r2
 4002fd8:	00bf3034 	movhi	r2,64704
 4002fdc:	1885883a 	add	r2,r3,r2
 4002fe0:	d8800c15 	stw	r2,48(sp)
 4002fe4:	d8800517 	ldw	r2,20(sp)
 4002fe8:	10032226 	beq	r2,zero,4003c74 <_dtoa_r+0x1108>
 4002fec:	d8800417 	ldw	r2,16(sp)
 4002ff0:	d8801115 	stw	r2,68(sp)
 4002ff4:	d8800517 	ldw	r2,20(sp)
 4002ff8:	d8800d15 	stw	r2,52(sp)
 4002ffc:	d8800d17 	ldw	r2,52(sp)
 4003000:	900b883a 	mov	r5,r18
 4003004:	8009883a 	mov	r4,r16
 4003008:	10bfffc4 	addi	r2,r2,-1
 400300c:	100690fa 	slli	r3,r2,3
 4003010:	00810074 	movhi	r2,1025
 4003014:	10837404 	addi	r2,r2,3536
 4003018:	10c5883a 	add	r2,r2,r3
 400301c:	12800017 	ldw	r10,0(r2)
 4003020:	12c00117 	ldw	r11,4(r2)
 4003024:	da800f15 	stw	r10,60(sp)
 4003028:	dac00e15 	stw	r11,56(sp)
 400302c:	400d40c0 	call	400d40c <__fixdfsi>
 4003030:	1009883a 	mov	r4,r2
 4003034:	10800c04 	addi	r2,r2,48
 4003038:	d8801015 	stw	r2,64(sp)
 400303c:	400d48c0 	call	400d48c <__floatsidf>
 4003040:	8009883a 	mov	r4,r16
 4003044:	100d883a 	mov	r6,r2
 4003048:	180f883a 	mov	r7,r3
 400304c:	900b883a 	mov	r5,r18
 4003050:	400cb040 	call	400cb04 <__subdf3>
 4003054:	d9000117 	ldw	r4,4(sp)
 4003058:	dac00e17 	ldw	r11,56(sp)
 400305c:	da800f17 	ldw	r10,60(sp)
 4003060:	1825883a 	mov	r18,r3
 4003064:	d8c00717 	ldw	r3,28(sp)
 4003068:	25400044 	addi	r21,r4,1
 400306c:	1021883a 	mov	r16,r2
 4003070:	500d883a 	mov	r6,r10
 4003074:	580f883a 	mov	r7,r11
 4003078:	1803b626 	beq	r3,zero,4003f54 <_dtoa_r+0x13e8>
 400307c:	0009883a 	mov	r4,zero
 4003080:	014ff834 	movhi	r5,16352
 4003084:	400b7d80 	call	400b7d8 <__divdf3>
 4003088:	d9c00c17 	ldw	r7,48(sp)
 400308c:	a00d883a 	mov	r6,r20
 4003090:	1009883a 	mov	r4,r2
 4003094:	180b883a 	mov	r5,r3
 4003098:	400cb040 	call	400cb04 <__subdf3>
 400309c:	d9000117 	ldw	r4,4(sp)
 40030a0:	1029883a 	mov	r20,r2
 40030a4:	d8801017 	ldw	r2,64(sp)
 40030a8:	800d883a 	mov	r6,r16
 40030ac:	900f883a 	mov	r7,r18
 40030b0:	20800005 	stb	r2,0(r4)
 40030b4:	180b883a 	mov	r5,r3
 40030b8:	a009883a 	mov	r4,r20
 40030bc:	d8c00c15 	stw	r3,48(sp)
 40030c0:	400c1880 	call	400c188 <__gedf2>
 40030c4:	0083e716 	blt	zero,r2,4004064 <_dtoa_r+0x14f8>
 40030c8:	0005883a 	mov	r2,zero
 40030cc:	dd800e15 	stw	r22,56(sp)
 40030d0:	dc400f15 	stw	r17,60(sp)
 40030d4:	dd800d17 	ldw	r22,52(sp)
 40030d8:	dc400c17 	ldw	r17,48(sp)
 40030dc:	ddc00d15 	stw	r23,52(sp)
 40030e0:	dcc00c15 	stw	r19,48(sp)
 40030e4:	1027883a 	mov	r19,r2
 40030e8:	00002606 	br	4003184 <_dtoa_r+0x618>
 40030ec:	9cc00044 	addi	r19,r19,1
 40030f0:	9d806d0e 	bge	r19,r22,40032a8 <_dtoa_r+0x73c>
 40030f4:	a009883a 	mov	r4,r20
 40030f8:	880b883a 	mov	r5,r17
 40030fc:	000d883a 	mov	r6,zero
 4003100:	01d00934 	movhi	r7,16420
 4003104:	400c3580 	call	400c358 <__muldf3>
 4003108:	000d883a 	mov	r6,zero
 400310c:	01d00934 	movhi	r7,16420
 4003110:	8009883a 	mov	r4,r16
 4003114:	900b883a 	mov	r5,r18
 4003118:	1029883a 	mov	r20,r2
 400311c:	1823883a 	mov	r17,r3
 4003120:	400c3580 	call	400c358 <__muldf3>
 4003124:	180b883a 	mov	r5,r3
 4003128:	1009883a 	mov	r4,r2
 400312c:	1821883a 	mov	r16,r3
 4003130:	1025883a 	mov	r18,r2
 4003134:	400d40c0 	call	400d40c <__fixdfsi>
 4003138:	1009883a 	mov	r4,r2
 400313c:	102f883a 	mov	r23,r2
 4003140:	400d48c0 	call	400d48c <__floatsidf>
 4003144:	9009883a 	mov	r4,r18
 4003148:	800b883a 	mov	r5,r16
 400314c:	100d883a 	mov	r6,r2
 4003150:	180f883a 	mov	r7,r3
 4003154:	400cb040 	call	400cb04 <__subdf3>
 4003158:	ad400044 	addi	r21,r21,1
 400315c:	ba000c04 	addi	r8,r23,48
 4003160:	aa3fffc5 	stb	r8,-1(r21)
 4003164:	a00d883a 	mov	r6,r20
 4003168:	880f883a 	mov	r7,r17
 400316c:	1009883a 	mov	r4,r2
 4003170:	180b883a 	mov	r5,r3
 4003174:	1021883a 	mov	r16,r2
 4003178:	1825883a 	mov	r18,r3
 400317c:	400c2700 	call	400c270 <__ledf2>
 4003180:	10040516 	blt	r2,zero,4004198 <_dtoa_r+0x162c>
 4003184:	800d883a 	mov	r6,r16
 4003188:	900f883a 	mov	r7,r18
 400318c:	0009883a 	mov	r4,zero
 4003190:	014ffc34 	movhi	r5,16368
 4003194:	400cb040 	call	400cb04 <__subdf3>
 4003198:	a00d883a 	mov	r6,r20
 400319c:	880f883a 	mov	r7,r17
 40031a0:	1009883a 	mov	r4,r2
 40031a4:	180b883a 	mov	r5,r3
 40031a8:	400c2700 	call	400c270 <__ledf2>
 40031ac:	103fcf0e 	bge	r2,zero,40030ec <_dtoa_r+0x580>
 40031b0:	d8801117 	ldw	r2,68(sp)
 40031b4:	ddc00d17 	ldw	r23,52(sp)
 40031b8:	d9000117 	ldw	r4,4(sp)
 40031bc:	10800044 	addi	r2,r2,1
 40031c0:	d8800415 	stw	r2,16(sp)
 40031c4:	a829883a 	mov	r20,r21
 40031c8:	00000106 	br	40031d0 <_dtoa_r+0x664>
 40031cc:	a103da26 	beq	r20,r4,4004138 <_dtoa_r+0x15cc>
 40031d0:	a0ffffc3 	ldbu	r3,-1(r20)
 40031d4:	a02b883a 	mov	r21,r20
 40031d8:	a53fffc4 	addi	r20,r20,-1
 40031dc:	18803fcc 	andi	r2,r3,255
 40031e0:	1080201c 	xori	r2,r2,128
 40031e4:	10bfe004 	addi	r2,r2,-128
 40031e8:	10800e60 	cmpeqi	r2,r2,57
 40031ec:	103ff71e 	bne	r2,zero,40031cc <_dtoa_r+0x660>
 40031f0:	18c00044 	addi	r3,r3,1
 40031f4:	a0c00005 	stb	r3,0(r20)
 40031f8:	00013f06 	br	40036f8 <_dtoa_r+0xb8c>
 40031fc:	04600034 	movhi	r17,32768
 4003200:	8c7fffc4 	addi	r17,r17,-1
 4003204:	9462703a 	and	r17,r18,r17
 4003208:	00800044 	movi	r2,1
 400320c:	8825883a 	mov	r18,r17
 4003210:	80800015 	stw	r2,0(r16)
 4003214:	00dffc34 	movhi	r3,32752
 4003218:	909ffc2c 	andhi	r2,r18,32752
 400321c:	10fe731e 	bne	r2,r3,4002bec <_dtoa_r+0x80>
 4003220:	d9001f17 	ldw	r4,124(sp)
 4003224:	00800434 	movhi	r2,16
 4003228:	10bfffc4 	addi	r2,r2,-1
 400322c:	9084703a 	and	r2,r18,r2
 4003230:	00c9c3c4 	movi	r3,9999
 4003234:	20c00015 	stw	r3,0(r4)
 4003238:	14e6b03a 	or	r19,r2,r19
 400323c:	9800141e 	bne	r19,zero,4003290 <_dtoa_r+0x724>
 4003240:	d8802117 	ldw	r2,132(sp)
 4003244:	10041226 	beq	r2,zero,4004290 <_dtoa_r+0x1724>
 4003248:	00810074 	movhi	r2,1025
 400324c:	1007883a 	mov	r3,r2
 4003250:	18c33504 	addi	r3,r3,3284
 4003254:	00810074 	movhi	r2,1025
 4003258:	d8c00115 	stw	r3,4(sp)
 400325c:	10833704 	addi	r2,r2,3292
 4003260:	d8c02117 	ldw	r3,132(sp)
 4003264:	18800015 	stw	r2,0(r3)
 4003268:	003e7206 	br	4002c34 <_dtoa_r+0xc8>
 400326c:	01400434 	movhi	r5,16
 4003270:	297fffc4 	addi	r5,r5,-1
 4003274:	894a703a 	and	r5,r17,r5
 4003278:	dd001217 	ldw	r20,72(sp)
 400327c:	9809883a 	mov	r4,r19
 4003280:	294ffc34 	orhi	r5,r5,16368
 4003284:	843f0044 	addi	r16,r16,-1023
 4003288:	d8000a15 	stw	zero,40(sp)
 400328c:	003e9306 	br	4002cdc <_dtoa_r+0x170>
 4003290:	d8802117 	ldw	r2,132(sp)
 4003294:	1001fe1e 	bne	r2,zero,4003a90 <_dtoa_r+0xf24>
 4003298:	00810074 	movhi	r2,1025
 400329c:	10833404 	addi	r2,r2,3280
 40032a0:	d8800115 	stw	r2,4(sp)
 40032a4:	003e6306 	br	4002c34 <_dtoa_r+0xc8>
 40032a8:	dd800e17 	ldw	r22,56(sp)
 40032ac:	ddc00d17 	ldw	r23,52(sp)
 40032b0:	dc400f17 	ldw	r17,60(sp)
 40032b4:	dcc00c17 	ldw	r19,48(sp)
 40032b8:	d8801317 	ldw	r2,76(sp)
 40032bc:	10006e16 	blt	r2,zero,4003478 <_dtoa_r+0x90c>
 40032c0:	d9000417 	ldw	r4,16(sp)
 40032c4:	20c003c8 	cmpgei	r3,r4,15
 40032c8:	18006b1e 	bne	r3,zero,4003478 <_dtoa_r+0x90c>
 40032cc:	200690fa 	slli	r3,r4,3
 40032d0:	00810074 	movhi	r2,1025
 40032d4:	10837404 	addi	r2,r2,3536
 40032d8:	10c5883a 	add	r2,r2,r3
 40032dc:	14000017 	ldw	r16,0(r2)
 40032e0:	14800117 	ldw	r18,4(r2)
 40032e4:	d8801e17 	ldw	r2,120(sp)
 40032e8:	1000150e 	bge	r2,zero,4003340 <_dtoa_r+0x7d4>
 40032ec:	d8800517 	ldw	r2,20(sp)
 40032f0:	00801316 	blt	zero,r2,4003340 <_dtoa_r+0x7d4>
 40032f4:	d8800517 	ldw	r2,20(sp)
 40032f8:	1002721e 	bne	r2,zero,4003cc4 <_dtoa_r+0x1158>
 40032fc:	8009883a 	mov	r4,r16
 4003300:	000d883a 	mov	r6,zero
 4003304:	01d00534 	movhi	r7,16404
 4003308:	900b883a 	mov	r5,r18
 400330c:	400c3580 	call	400c358 <__muldf3>
 4003310:	100d883a 	mov	r6,r2
 4003314:	180f883a 	mov	r7,r3
 4003318:	9809883a 	mov	r4,r19
 400331c:	880b883a 	mov	r5,r17
 4003320:	400c2700 	call	400c270 <__ledf2>
 4003324:	0029883a 	mov	r20,zero
 4003328:	0021883a 	mov	r16,zero
 400332c:	00820216 	blt	zero,r2,4003b38 <_dtoa_r+0xfcc>
 4003330:	d8801e17 	ldw	r2,120(sp)
 4003334:	dd400117 	ldw	r21,4(sp)
 4003338:	00a2303a 	nor	r17,zero,r2
 400333c:	00020406 	br	4003b50 <_dtoa_r+0xfe4>
 4003340:	800d883a 	mov	r6,r16
 4003344:	900f883a 	mov	r7,r18
 4003348:	9809883a 	mov	r4,r19
 400334c:	880b883a 	mov	r5,r17
 4003350:	400b7d80 	call	400b7d8 <__divdf3>
 4003354:	180b883a 	mov	r5,r3
 4003358:	1009883a 	mov	r4,r2
 400335c:	400d40c0 	call	400d40c <__fixdfsi>
 4003360:	1009883a 	mov	r4,r2
 4003364:	102b883a 	mov	r21,r2
 4003368:	400d48c0 	call	400d48c <__floatsidf>
 400336c:	800d883a 	mov	r6,r16
 4003370:	900f883a 	mov	r7,r18
 4003374:	1009883a 	mov	r4,r2
 4003378:	180b883a 	mov	r5,r3
 400337c:	400c3580 	call	400c358 <__muldf3>
 4003380:	100d883a 	mov	r6,r2
 4003384:	9809883a 	mov	r4,r19
 4003388:	880b883a 	mov	r5,r17
 400338c:	180f883a 	mov	r7,r3
 4003390:	400cb040 	call	400cb04 <__subdf3>
 4003394:	d9800117 	ldw	r6,4(sp)
 4003398:	dd800517 	ldw	r22,20(sp)
 400339c:	1009883a 	mov	r4,r2
 40033a0:	a8800c04 	addi	r2,r21,48
 40033a4:	30800005 	stb	r2,0(r6)
 40033a8:	b0800060 	cmpeqi	r2,r22,1
 40033ac:	180b883a 	mov	r5,r3
 40033b0:	35000044 	addi	r20,r6,1
 40033b4:	10029f1e 	bne	r2,zero,4003e34 <_dtoa_r+0x12c8>
 40033b8:	04400044 	movi	r17,1
 40033bc:	ddc00215 	stw	r23,8(sp)
 40033c0:	00001c06 	br	4003434 <_dtoa_r+0x8c8>
 40033c4:	800d883a 	mov	r6,r16
 40033c8:	900f883a 	mov	r7,r18
 40033cc:	a809883a 	mov	r4,r21
 40033d0:	980b883a 	mov	r5,r19
 40033d4:	400b7d80 	call	400b7d8 <__divdf3>
 40033d8:	180b883a 	mov	r5,r3
 40033dc:	1009883a 	mov	r4,r2
 40033e0:	400d40c0 	call	400d40c <__fixdfsi>
 40033e4:	1009883a 	mov	r4,r2
 40033e8:	102f883a 	mov	r23,r2
 40033ec:	400d48c0 	call	400d48c <__floatsidf>
 40033f0:	800d883a 	mov	r6,r16
 40033f4:	900f883a 	mov	r7,r18
 40033f8:	1009883a 	mov	r4,r2
 40033fc:	180b883a 	mov	r5,r3
 4003400:	400c3580 	call	400c358 <__muldf3>
 4003404:	a809883a 	mov	r4,r21
 4003408:	980b883a 	mov	r5,r19
 400340c:	100d883a 	mov	r6,r2
 4003410:	180f883a 	mov	r7,r3
 4003414:	400cb040 	call	400cb04 <__subdf3>
 4003418:	b9000c04 	addi	r4,r23,48
 400341c:	a1000005 	stb	r4,0(r20)
 4003420:	8c400044 	addi	r17,r17,1
 4003424:	a5000044 	addi	r20,r20,1
 4003428:	1009883a 	mov	r4,r2
 400342c:	180b883a 	mov	r5,r3
 4003430:	8d827e26 	beq	r17,r22,4003e2c <_dtoa_r+0x12c0>
 4003434:	000d883a 	mov	r6,zero
 4003438:	01d00934 	movhi	r7,16420
 400343c:	400c3580 	call	400c358 <__muldf3>
 4003440:	000d883a 	mov	r6,zero
 4003444:	000f883a 	mov	r7,zero
 4003448:	1009883a 	mov	r4,r2
 400344c:	180b883a 	mov	r5,r3
 4003450:	102b883a 	mov	r21,r2
 4003454:	1827883a 	mov	r19,r3
 4003458:	400c1080 	call	400c108 <__eqdf2>
 400345c:	103fd91e 	bne	r2,zero,40033c4 <_dtoa_r+0x858>
 4003460:	d8800417 	ldw	r2,16(sp)
 4003464:	ddc00217 	ldw	r23,8(sp)
 4003468:	a02b883a 	mov	r21,r20
 400346c:	10800044 	addi	r2,r2,1
 4003470:	d8800415 	stw	r2,16(sp)
 4003474:	0000a006 	br	40036f8 <_dtoa_r+0xb8c>
 4003478:	d8c00717 	ldw	r3,28(sp)
 400347c:	1800e326 	beq	r3,zero,400380c <_dtoa_r+0xca0>
 4003480:	d8c00217 	ldw	r3,8(sp)
 4003484:	18c00088 	cmpgei	r3,r3,2
 4003488:	1801e026 	beq	r3,zero,4003c0c <_dtoa_r+0x10a0>
 400348c:	d8800517 	ldw	r2,20(sp)
 4003490:	153fffc4 	addi	r20,r2,-1
 4003494:	d8800817 	ldw	r2,32(sp)
 4003498:	1501bc0e 	bge	r2,r20,4003b8c <_dtoa_r+0x1020>
 400349c:	d8800817 	ldw	r2,32(sp)
 40034a0:	d8c00317 	ldw	r3,12(sp)
 40034a4:	dd000815 	stw	r20,32(sp)
 40034a8:	a085c83a 	sub	r2,r20,r2
 40034ac:	1885883a 	add	r2,r3,r2
 40034b0:	d8800315 	stw	r2,12(sp)
 40034b4:	0029883a 	mov	r20,zero
 40034b8:	d8800517 	ldw	r2,20(sp)
 40034bc:	10028b16 	blt	r2,zero,4003eec <_dtoa_r+0x1380>
 40034c0:	d8c00617 	ldw	r3,24(sp)
 40034c4:	b0ad883a 	add	r22,r22,r2
 40034c8:	1885883a 	add	r2,r3,r2
 40034cc:	1825883a 	mov	r18,r3
 40034d0:	d8800615 	stw	r2,24(sp)
 40034d4:	01400044 	movi	r5,1
 40034d8:	b809883a 	mov	r4,r23
 40034dc:	400603c0 	call	400603c <__i2b>
 40034e0:	1021883a 	mov	r16,r2
 40034e4:	0480080e 	bge	zero,r18,4003508 <_dtoa_r+0x99c>
 40034e8:	0580070e 	bge	zero,r22,4003508 <_dtoa_r+0x99c>
 40034ec:	9005883a 	mov	r2,r18
 40034f0:	b4819e16 	blt	r22,r18,4003b6c <_dtoa_r+0x1000>
 40034f4:	d8c00617 	ldw	r3,24(sp)
 40034f8:	90a5c83a 	sub	r18,r18,r2
 40034fc:	b0adc83a 	sub	r22,r22,r2
 4003500:	1887c83a 	sub	r3,r3,r2
 4003504:	d8c00615 	stw	r3,24(sp)
 4003508:	d8800817 	ldw	r2,32(sp)
 400350c:	10001426 	beq	r2,zero,4003560 <_dtoa_r+0x9f4>
 4003510:	d8800717 	ldw	r2,28(sp)
 4003514:	1001ee26 	beq	r2,zero,4003cd0 <_dtoa_r+0x1164>
 4003518:	05000e0e 	bge	zero,r20,4003554 <_dtoa_r+0x9e8>
 400351c:	800b883a 	mov	r5,r16
 4003520:	a00d883a 	mov	r6,r20
 4003524:	b809883a 	mov	r4,r23
 4003528:	40063b00 	call	40063b0 <__pow5mult>
 400352c:	e00d883a 	mov	r6,fp
 4003530:	100b883a 	mov	r5,r2
 4003534:	b809883a 	mov	r4,r23
 4003538:	1021883a 	mov	r16,r2
 400353c:	40060ec0 	call	40060ec <__multiply>
 4003540:	102b883a 	mov	r21,r2
 4003544:	e00b883a 	mov	r5,fp
 4003548:	b809883a 	mov	r4,r23
 400354c:	4005c700 	call	4005c70 <_Bfree>
 4003550:	a839883a 	mov	fp,r21
 4003554:	d8800817 	ldw	r2,32(sp)
 4003558:	150dc83a 	sub	r6,r2,r20
 400355c:	15025e1e 	bne	r2,r20,4003ed8 <_dtoa_r+0x136c>
 4003560:	01400044 	movi	r5,1
 4003564:	b809883a 	mov	r4,r23
 4003568:	400603c0 	call	400603c <__i2b>
 400356c:	d9800317 	ldw	r6,12(sp)
 4003570:	1029883a 	mov	r20,r2
 4003574:	0180b716 	blt	zero,r6,4003854 <_dtoa_r+0xce8>
 4003578:	d8800217 	ldw	r2,8(sp)
 400357c:	10800088 	cmpgei	r2,r2,2
 4003580:	10014d26 	beq	r2,zero,4003ab8 <_dtoa_r+0xf4c>
 4003584:	0023883a 	mov	r17,zero
 4003588:	d8c00317 	ldw	r3,12(sp)
 400358c:	00800044 	movi	r2,1
 4003590:	1800b81e 	bne	r3,zero,4003874 <_dtoa_r+0xd08>
 4003594:	1585883a 	add	r2,r2,r22
 4003598:	108007cc 	andi	r2,r2,31
 400359c:	1000a526 	beq	r2,zero,4003834 <_dtoa_r+0xcc8>
 40035a0:	00c00804 	movi	r3,32
 40035a4:	1887c83a 	sub	r3,r3,r2
 40035a8:	19000150 	cmplti	r4,r3,5
 40035ac:	20033c1e 	bne	r4,zero,40042a0 <_dtoa_r+0x1734>
 40035b0:	00c00704 	movi	r3,28
 40035b4:	1885c83a 	sub	r2,r3,r2
 40035b8:	d8c00617 	ldw	r3,24(sp)
 40035bc:	90a5883a 	add	r18,r18,r2
 40035c0:	b0ad883a 	add	r22,r22,r2
 40035c4:	1887883a 	add	r3,r3,r2
 40035c8:	d8c00615 	stw	r3,24(sp)
 40035cc:	d8800617 	ldw	r2,24(sp)
 40035d0:	00809216 	blt	zero,r2,400381c <_dtoa_r+0xcb0>
 40035d4:	0580050e 	bge	zero,r22,40035ec <_dtoa_r+0xa80>
 40035d8:	a00b883a 	mov	r5,r20
 40035dc:	b00d883a 	mov	r6,r22
 40035e0:	b809883a 	mov	r4,r23
 40035e4:	40064f80 	call	40064f8 <__lshift>
 40035e8:	1029883a 	mov	r20,r2
 40035ec:	d8800917 	ldw	r2,36(sp)
 40035f0:	1001151e 	bne	r2,zero,4003a48 <_dtoa_r+0xedc>
 40035f4:	d8800517 	ldw	r2,20(sp)
 40035f8:	0081020e 	bge	zero,r2,4003a04 <_dtoa_r+0xe98>
 40035fc:	d8800717 	ldw	r2,28(sp)
 4003600:	1000af1e 	bne	r2,zero,40038c0 <_dtoa_r+0xd54>
 4003604:	d8800417 	ldw	r2,16(sp)
 4003608:	10800044 	addi	r2,r2,1
 400360c:	d8800415 	stw	r2,16(sp)
 4003610:	dc800517 	ldw	r18,20(sp)
 4003614:	dd400117 	ldw	r21,4(sp)
 4003618:	04400044 	movi	r17,1
 400361c:	00000706 	br	400363c <_dtoa_r+0xad0>
 4003620:	e00b883a 	mov	r5,fp
 4003624:	000f883a 	mov	r7,zero
 4003628:	01800284 	movi	r6,10
 400362c:	b809883a 	mov	r4,r23
 4003630:	4005c940 	call	4005c94 <__multadd>
 4003634:	1039883a 	mov	fp,r2
 4003638:	8c400044 	addi	r17,r17,1
 400363c:	a00b883a 	mov	r5,r20
 4003640:	e009883a 	mov	r4,fp
 4003644:	400294c0 	call	400294c <quorem>
 4003648:	14c00c04 	addi	r19,r2,48
 400364c:	ac45883a 	add	r2,r21,r17
 4003650:	14ffffc5 	stb	r19,-1(r2)
 4003654:	8cbff216 	blt	r17,r18,4003620 <_dtoa_r+0xab4>
 4003658:	d8800517 	ldw	r2,20(sp)
 400365c:	0081510e 	bge	zero,r2,4003ba4 <_dtoa_r+0x1038>
 4003660:	d8c00117 	ldw	r3,4(sp)
 4003664:	0023883a 	mov	r17,zero
 4003668:	18ab883a 	add	r21,r3,r2
 400366c:	e00b883a 	mov	r5,fp
 4003670:	01800044 	movi	r6,1
 4003674:	b809883a 	mov	r4,r23
 4003678:	40064f80 	call	40064f8 <__lshift>
 400367c:	1009883a 	mov	r4,r2
 4003680:	a00b883a 	mov	r5,r20
 4003684:	1039883a 	mov	fp,r2
 4003688:	40066800 	call	4006680 <__mcmp>
 400368c:	a93fffc3 	ldbu	r4,-1(r21)
 4003690:	0081490e 	bge	zero,r2,4003bb8 <_dtoa_r+0x104c>
 4003694:	d9400117 	ldw	r5,4(sp)
 4003698:	00000306 	br	40036a8 <_dtoa_r+0xb3c>
 400369c:	19415426 	beq	r3,r5,4003bf0 <_dtoa_r+0x1084>
 40036a0:	193fffc3 	ldbu	r4,-1(r3)
 40036a4:	182b883a 	mov	r21,r3
 40036a8:	20803fcc 	andi	r2,r4,255
 40036ac:	1080201c 	xori	r2,r2,128
 40036b0:	10bfe004 	addi	r2,r2,-128
 40036b4:	10800e60 	cmpeqi	r2,r2,57
 40036b8:	a8ffffc4 	addi	r3,r21,-1
 40036bc:	103ff71e 	bne	r2,zero,400369c <_dtoa_r+0xb30>
 40036c0:	21000044 	addi	r4,r4,1
 40036c4:	19000005 	stb	r4,0(r3)
 40036c8:	a00b883a 	mov	r5,r20
 40036cc:	b809883a 	mov	r4,r23
 40036d0:	4005c700 	call	4005c70 <_Bfree>
 40036d4:	80000826 	beq	r16,zero,40036f8 <_dtoa_r+0xb8c>
 40036d8:	88000426 	beq	r17,zero,40036ec <_dtoa_r+0xb80>
 40036dc:	8c000326 	beq	r17,r16,40036ec <_dtoa_r+0xb80>
 40036e0:	880b883a 	mov	r5,r17
 40036e4:	b809883a 	mov	r4,r23
 40036e8:	4005c700 	call	4005c70 <_Bfree>
 40036ec:	800b883a 	mov	r5,r16
 40036f0:	b809883a 	mov	r4,r23
 40036f4:	4005c700 	call	4005c70 <_Bfree>
 40036f8:	e00b883a 	mov	r5,fp
 40036fc:	b809883a 	mov	r4,r23
 4003700:	4005c700 	call	4005c70 <_Bfree>
 4003704:	d8801f17 	ldw	r2,124(sp)
 4003708:	d8c00417 	ldw	r3,16(sp)
 400370c:	a8000005 	stb	zero,0(r21)
 4003710:	10c00015 	stw	r3,0(r2)
 4003714:	d8802117 	ldw	r2,132(sp)
 4003718:	103d4626 	beq	r2,zero,4002c34 <_dtoa_r+0xc8>
 400371c:	15400015 	stw	r21,0(r2)
 4003720:	003d4406 	br	4002c34 <_dtoa_r+0xc8>
 4003724:	d8000915 	stw	zero,36(sp)
 4003728:	b0002416 	blt	r22,zero,40037bc <_dtoa_r+0xc50>
 400372c:	d8000615 	stw	zero,24(sp)
 4003730:	d8800317 	ldw	r2,12(sp)
 4003734:	d8c00217 	ldw	r3,8(sp)
 4003738:	d8000815 	stw	zero,32(sp)
 400373c:	b0ad883a 	add	r22,r22,r2
 4003740:	d8800415 	stw	r2,16(sp)
 4003744:	188002a8 	cmpgeui	r2,r3,10
 4003748:	103db326 	beq	r2,zero,4002e18 <_dtoa_r+0x2ac>
 400374c:	00800044 	movi	r2,1
 4003750:	d8800715 	stw	r2,28(sp)
 4003754:	00bfffc4 	movi	r2,-1
 4003758:	04000044 	movi	r16,1
 400375c:	d8000215 	stw	zero,8(sp)
 4003760:	d8800515 	stw	r2,20(sp)
 4003764:	d8001e15 	stw	zero,120(sp)
 4003768:	d8800517 	ldw	r2,20(sp)
 400376c:	b8001115 	stw	zero,68(r23)
 4003770:	000b883a 	mov	r5,zero
 4003774:	d8800b15 	stw	r2,44(sp)
 4003778:	003dc406 	br	4002e8c <_dtoa_r+0x320>
 400377c:	188000e0 	cmpeqi	r2,r3,3
 4003780:	d8000715 	stw	zero,28(sp)
 4003784:	1002ac26 	beq	r2,zero,4004238 <_dtoa_r+0x16cc>
 4003788:	d8801e17 	ldw	r2,120(sp)
 400378c:	d8c00417 	ldw	r3,16(sp)
 4003790:	10c5883a 	add	r2,r2,r3
 4003794:	d8800b15 	stw	r2,44(sp)
 4003798:	10800044 	addi	r2,r2,1
 400379c:	d8800515 	stw	r2,20(sp)
 40037a0:	100d883a 	mov	r6,r2
 40037a4:	00bdae16 	blt	zero,r2,4002e60 <_dtoa_r+0x2f4>
 40037a8:	01800044 	movi	r6,1
 40037ac:	003dac06 	br	4002e60 <_dtoa_r+0x2f4>
 40037b0:	00800044 	movi	r2,1
 40037b4:	d8800915 	stw	r2,36(sp)
 40037b8:	b03d890e 	bge	r22,zero,4002de0 <_dtoa_r+0x274>
 40037bc:	00800044 	movi	r2,1
 40037c0:	1405c83a 	sub	r2,r2,r16
 40037c4:	d8800615 	stw	r2,24(sp)
 40037c8:	002d883a 	mov	r22,zero
 40037cc:	003d8506 	br	4002de4 <_dtoa_r+0x278>
 40037d0:	a809883a 	mov	r4,r21
 40037d4:	400d48c0 	call	400d48c <__floatsidf>
 40037d8:	900d883a 	mov	r6,r18
 40037dc:	b00f883a 	mov	r7,r22
 40037e0:	1009883a 	mov	r4,r2
 40037e4:	180b883a 	mov	r5,r3
 40037e8:	400c1080 	call	400c108 <__eqdf2>
 40037ec:	103d6926 	beq	r2,zero,4002d94 <_dtoa_r+0x228>
 40037f0:	a8bfffc4 	addi	r2,r21,-1
 40037f4:	d8800315 	stw	r2,12(sp)
 40037f8:	003d6606 	br	4002d94 <_dtoa_r+0x228>
 40037fc:	00810074 	movhi	r2,1025
 4003800:	10832b04 	addi	r2,r2,3244
 4003804:	d8800115 	stw	r2,4(sp)
 4003808:	003d0a06 	br	4002c34 <_dtoa_r+0xc8>
 400380c:	dd000817 	ldw	r20,32(sp)
 4003810:	dc800617 	ldw	r18,24(sp)
 4003814:	0021883a 	mov	r16,zero
 4003818:	003f3206 	br	40034e4 <_dtoa_r+0x978>
 400381c:	e00b883a 	mov	r5,fp
 4003820:	100d883a 	mov	r6,r2
 4003824:	b809883a 	mov	r4,r23
 4003828:	40064f80 	call	40064f8 <__lshift>
 400382c:	1039883a 	mov	fp,r2
 4003830:	003f6806 	br	40035d4 <_dtoa_r+0xa68>
 4003834:	00800704 	movi	r2,28
 4003838:	003f5f06 	br	40035b8 <_dtoa_r+0xa4c>
 400383c:	01000804 	movi	r4,32
 4003840:	2089c83a 	sub	r4,r4,r2
 4003844:	9908983a 	sll	r4,r19,r4
 4003848:	003d1d06 	br	4002cc0 <_dtoa_r+0x154>
 400384c:	04000044 	movi	r16,1
 4003850:	003d7606 	br	4002e2c <_dtoa_r+0x2c0>
 4003854:	100b883a 	mov	r5,r2
 4003858:	b809883a 	mov	r4,r23
 400385c:	40063b00 	call	40063b0 <__pow5mult>
 4003860:	d8c00217 	ldw	r3,8(sp)
 4003864:	1029883a 	mov	r20,r2
 4003868:	18c00090 	cmplti	r3,r3,2
 400386c:	1801511e 	bne	r3,zero,4003db4 <_dtoa_r+0x1248>
 4003870:	0023883a 	mov	r17,zero
 4003874:	a0800417 	ldw	r2,16(r20)
 4003878:	10800104 	addi	r2,r2,4
 400387c:	100490ba 	slli	r2,r2,2
 4003880:	a085883a 	add	r2,r20,r2
 4003884:	11000017 	ldw	r4,0(r2)
 4003888:	4005f280 	call	4005f28 <__hi0bits>
 400388c:	00c00804 	movi	r3,32
 4003890:	1885c83a 	sub	r2,r3,r2
 4003894:	003f3f06 	br	4003594 <_dtoa_r+0xa28>
 4003898:	800b883a 	mov	r5,r16
 400389c:	000f883a 	mov	r7,zero
 40038a0:	01800284 	movi	r6,10
 40038a4:	b809883a 	mov	r4,r23
 40038a8:	4005c940 	call	4005c94 <__multadd>
 40038ac:	1021883a 	mov	r16,r2
 40038b0:	d8800b17 	ldw	r2,44(sp)
 40038b4:	00824b0e 	bge	zero,r2,40041e4 <_dtoa_r+0x1678>
 40038b8:	dd400415 	stw	r21,16(sp)
 40038bc:	d8800515 	stw	r2,20(sp)
 40038c0:	0480ac16 	blt	zero,r18,4003b74 <_dtoa_r+0x1008>
 40038c4:	8801731e 	bne	r17,zero,4003e94 <_dtoa_r+0x1328>
 40038c8:	8025883a 	mov	r18,r16
 40038cc:	dd800117 	ldw	r22,4(sp)
 40038d0:	d9000517 	ldw	r4,20(sp)
 40038d4:	98c0004c 	andi	r3,r19,1
 40038d8:	b0bfffc4 	addi	r2,r22,-1
 40038dc:	1105883a 	add	r2,r2,r4
 40038e0:	d8800515 	stw	r2,20(sp)
 40038e4:	d8800217 	ldw	r2,8(sp)
 40038e8:	d8c00815 	stw	r3,32(sp)
 40038ec:	1884b03a 	or	r2,r3,r2
 40038f0:	d8800715 	stw	r2,28(sp)
 40038f4:	00002906 	br	400399c <_dtoa_r+0xe30>
 40038f8:	e009883a 	mov	r4,fp
 40038fc:	40066800 	call	4006680 <__mcmp>
 4003900:	980b883a 	mov	r5,r19
 4003904:	b809883a 	mov	r4,r23
 4003908:	d8800315 	stw	r2,12(sp)
 400390c:	4005c700 	call	4005c70 <_Bfree>
 4003910:	d8800317 	ldw	r2,12(sp)
 4003914:	1000021e 	bne	r2,zero,4003920 <_dtoa_r+0xdb4>
 4003918:	d8c00717 	ldw	r3,28(sp)
 400391c:	18022326 	beq	r3,zero,40041ac <_dtoa_r+0x1640>
 4003920:	b4c00044 	addi	r19,r22,1
 4003924:	88012916 	blt	r17,zero,4003dcc <_dtoa_r+0x1260>
 4003928:	d8c00217 	ldw	r3,8(sp)
 400392c:	88e2b03a 	or	r17,r17,r3
 4003930:	d8c00817 	ldw	r3,32(sp)
 4003934:	1c62b03a 	or	r17,r3,r17
 4003938:	88012426 	beq	r17,zero,4003dcc <_dtoa_r+0x1260>
 400393c:	00816f16 	blt	zero,r2,4003efc <_dtoa_r+0x1390>
 4003940:	d8800517 	ldw	r2,20(sp)
 4003944:	b5400005 	stb	r21,0(r22)
 4003948:	15817926 	beq	r2,r22,4003f30 <_dtoa_r+0x13c4>
 400394c:	e00b883a 	mov	r5,fp
 4003950:	000f883a 	mov	r7,zero
 4003954:	01800284 	movi	r6,10
 4003958:	b809883a 	mov	r4,r23
 400395c:	4005c940 	call	4005c94 <__multadd>
 4003960:	1039883a 	mov	fp,r2
 4003964:	800b883a 	mov	r5,r16
 4003968:	000f883a 	mov	r7,zero
 400396c:	01800284 	movi	r6,10
 4003970:	b809883a 	mov	r4,r23
 4003974:	84801f26 	beq	r16,r18,40039f4 <_dtoa_r+0xe88>
 4003978:	4005c940 	call	4005c94 <__multadd>
 400397c:	900b883a 	mov	r5,r18
 4003980:	000f883a 	mov	r7,zero
 4003984:	01800284 	movi	r6,10
 4003988:	b809883a 	mov	r4,r23
 400398c:	1021883a 	mov	r16,r2
 4003990:	4005c940 	call	4005c94 <__multadd>
 4003994:	1025883a 	mov	r18,r2
 4003998:	982d883a 	mov	r22,r19
 400399c:	a00b883a 	mov	r5,r20
 40039a0:	e009883a 	mov	r4,fp
 40039a4:	400294c0 	call	400294c <quorem>
 40039a8:	800b883a 	mov	r5,r16
 40039ac:	e009883a 	mov	r4,fp
 40039b0:	102b883a 	mov	r21,r2
 40039b4:	d8800615 	stw	r2,24(sp)
 40039b8:	40066800 	call	4006680 <__mcmp>
 40039bc:	a00b883a 	mov	r5,r20
 40039c0:	900d883a 	mov	r6,r18
 40039c4:	b809883a 	mov	r4,r23
 40039c8:	1023883a 	mov	r17,r2
 40039cc:	40066d80 	call	40066d8 <__mdiff>
 40039d0:	1027883a 	mov	r19,r2
 40039d4:	10800317 	ldw	r2,12(r2)
 40039d8:	ad400c04 	addi	r21,r21,48
 40039dc:	980b883a 	mov	r5,r19
 40039e0:	103fc526 	beq	r2,zero,40038f8 <_dtoa_r+0xd8c>
 40039e4:	b809883a 	mov	r4,r23
 40039e8:	4005c700 	call	4005c70 <_Bfree>
 40039ec:	00800044 	movi	r2,1
 40039f0:	003fcb06 	br	4003920 <_dtoa_r+0xdb4>
 40039f4:	4005c940 	call	4005c94 <__multadd>
 40039f8:	1021883a 	mov	r16,r2
 40039fc:	1025883a 	mov	r18,r2
 4003a00:	003fe506 	br	4003998 <_dtoa_r+0xe2c>
 4003a04:	d8800217 	ldw	r2,8(sp)
 4003a08:	108000d0 	cmplti	r2,r2,3
 4003a0c:	10003e26 	beq	r2,zero,4003b08 <_dtoa_r+0xf9c>
 4003a10:	d8800717 	ldw	r2,28(sp)
 4003a14:	103faa1e 	bne	r2,zero,40038c0 <_dtoa_r+0xd54>
 4003a18:	a00b883a 	mov	r5,r20
 4003a1c:	e009883a 	mov	r4,fp
 4003a20:	400294c0 	call	400294c <quorem>
 4003a24:	14c00c04 	addi	r19,r2,48
 4003a28:	d8800117 	ldw	r2,4(sp)
 4003a2c:	0023883a 	mov	r17,zero
 4003a30:	15400044 	addi	r21,r2,1
 4003a34:	14c00005 	stb	r19,0(r2)
 4003a38:	d8800417 	ldw	r2,16(sp)
 4003a3c:	10800044 	addi	r2,r2,1
 4003a40:	d8800415 	stw	r2,16(sp)
 4003a44:	003f0906 	br	400366c <_dtoa_r+0xb00>
 4003a48:	a00b883a 	mov	r5,r20
 4003a4c:	e009883a 	mov	r4,fp
 4003a50:	40066800 	call	4006680 <__mcmp>
 4003a54:	103ee70e 	bge	r2,zero,40035f4 <_dtoa_r+0xa88>
 4003a58:	e00b883a 	mov	r5,fp
 4003a5c:	000f883a 	mov	r7,zero
 4003a60:	01800284 	movi	r6,10
 4003a64:	b809883a 	mov	r4,r23
 4003a68:	4005c940 	call	4005c94 <__multadd>
 4003a6c:	d8c00417 	ldw	r3,16(sp)
 4003a70:	1039883a 	mov	fp,r2
 4003a74:	d8800717 	ldw	r2,28(sp)
 4003a78:	1d7fffc4 	addi	r21,r3,-1
 4003a7c:	103f861e 	bne	r2,zero,4003898 <_dtoa_r+0xd2c>
 4003a80:	d8800b17 	ldw	r2,44(sp)
 4003a84:	0081d20e 	bge	zero,r2,40041d0 <_dtoa_r+0x1664>
 4003a88:	d8800515 	stw	r2,20(sp)
 4003a8c:	003ee006 	br	4003610 <_dtoa_r+0xaa4>
 4003a90:	00810074 	movhi	r2,1025
 4003a94:	1007883a 	mov	r3,r2
 4003a98:	18c33404 	addi	r3,r3,3280
 4003a9c:	00810074 	movhi	r2,1025
 4003aa0:	d8c00115 	stw	r3,4(sp)
 4003aa4:	108334c4 	addi	r2,r2,3283
 4003aa8:	003ded06 	br	4003260 <_dtoa_r+0x6f4>
 4003aac:	00800044 	movi	r2,1
 4003ab0:	d8800715 	stw	r2,28(sp)
 4003ab4:	003f3406 	br	4003788 <_dtoa_r+0xc1c>
 4003ab8:	983eb21e 	bne	r19,zero,4003584 <_dtoa_r+0xa18>
 4003abc:	00800434 	movhi	r2,16
 4003ac0:	10bfffc4 	addi	r2,r2,-1
 4003ac4:	8884703a 	and	r2,r17,r2
 4003ac8:	103eae1e 	bne	r2,zero,4003584 <_dtoa_r+0xa18>
 4003acc:	8c5ffc2c 	andhi	r17,r17,32752
 4003ad0:	883eac26 	beq	r17,zero,4003584 <_dtoa_r+0xa18>
 4003ad4:	d8800617 	ldw	r2,24(sp)
 4003ad8:	b5800044 	addi	r22,r22,1
 4003adc:	04400044 	movi	r17,1
 4003ae0:	10800044 	addi	r2,r2,1
 4003ae4:	d8800615 	stw	r2,24(sp)
 4003ae8:	003ea706 	br	4003588 <_dtoa_r+0xa1c>
 4003aec:	00800044 	movi	r2,1
 4003af0:	d8800515 	stw	r2,20(sp)
 4003af4:	d8801e15 	stw	r2,120(sp)
 4003af8:	003f1b06 	br	4003768 <_dtoa_r+0xbfc>
 4003afc:	d8800b17 	ldw	r2,44(sp)
 4003b00:	dd400415 	stw	r21,16(sp)
 4003b04:	d8800515 	stw	r2,20(sp)
 4003b08:	d8800517 	ldw	r2,20(sp)
 4003b0c:	103e081e 	bne	r2,zero,4003330 <_dtoa_r+0x7c4>
 4003b10:	a00b883a 	mov	r5,r20
 4003b14:	b809883a 	mov	r4,r23
 4003b18:	000f883a 	mov	r7,zero
 4003b1c:	01800144 	movi	r6,5
 4003b20:	4005c940 	call	4005c94 <__multadd>
 4003b24:	100b883a 	mov	r5,r2
 4003b28:	e009883a 	mov	r4,fp
 4003b2c:	1029883a 	mov	r20,r2
 4003b30:	40066800 	call	4006680 <__mcmp>
 4003b34:	00bdfe0e 	bge	zero,r2,4003330 <_dtoa_r+0x7c4>
 4003b38:	d8c00117 	ldw	r3,4(sp)
 4003b3c:	00800c44 	movi	r2,49
 4003b40:	18800005 	stb	r2,0(r3)
 4003b44:	d8800417 	ldw	r2,16(sp)
 4003b48:	1d400044 	addi	r21,r3,1
 4003b4c:	14400044 	addi	r17,r2,1
 4003b50:	a00b883a 	mov	r5,r20
 4003b54:	b809883a 	mov	r4,r23
 4003b58:	4005c700 	call	4005c70 <_Bfree>
 4003b5c:	88800044 	addi	r2,r17,1
 4003b60:	d8800415 	stw	r2,16(sp)
 4003b64:	803ee11e 	bne	r16,zero,40036ec <_dtoa_r+0xb80>
 4003b68:	003ee306 	br	40036f8 <_dtoa_r+0xb8c>
 4003b6c:	b005883a 	mov	r2,r22
 4003b70:	003e6006 	br	40034f4 <_dtoa_r+0x988>
 4003b74:	800b883a 	mov	r5,r16
 4003b78:	900d883a 	mov	r6,r18
 4003b7c:	b809883a 	mov	r4,r23
 4003b80:	40064f80 	call	40064f8 <__lshift>
 4003b84:	1021883a 	mov	r16,r2
 4003b88:	003f4e06 	br	40038c4 <_dtoa_r+0xd58>
 4003b8c:	1529c83a 	sub	r20,r2,r20
 4003b90:	003e4906 	br	40034b8 <_dtoa_r+0x94c>
 4003b94:	dcc00c15 	stw	r19,48(sp)
 4003b98:	8825883a 	mov	r18,r17
 4003b9c:	05400084 	movi	r21,2
 4003ba0:	003cdf06 	br	4002f20 <_dtoa_r+0x3b4>
 4003ba4:	00800044 	movi	r2,1
 4003ba8:	003ead06 	br	4003660 <_dtoa_r+0xaf4>
 4003bac:	00800044 	movi	r2,1
 4003bb0:	d8800715 	stw	r2,28(sp)
 4003bb4:	003ca506 	br	4002e4c <_dtoa_r+0x2e0>
 4003bb8:	1000021e 	bne	r2,zero,4003bc4 <_dtoa_r+0x1058>
 4003bbc:	98c0004c 	andi	r3,r19,1
 4003bc0:	183eb41e 	bne	r3,zero,4003694 <_dtoa_r+0xb28>
 4003bc4:	2005883a 	mov	r2,r4
 4003bc8:	00000206 	br	4003bd4 <_dtoa_r+0x1068>
 4003bcc:	a8bfff83 	ldbu	r2,-2(r21)
 4003bd0:	182b883a 	mov	r21,r3
 4003bd4:	10803fcc 	andi	r2,r2,255
 4003bd8:	1080201c 	xori	r2,r2,128
 4003bdc:	10bfe004 	addi	r2,r2,-128
 4003be0:	10800c18 	cmpnei	r2,r2,48
 4003be4:	a8ffffc4 	addi	r3,r21,-1
 4003be8:	103ff826 	beq	r2,zero,4003bcc <_dtoa_r+0x1060>
 4003bec:	003eb606 	br	40036c8 <_dtoa_r+0xb5c>
 4003bf0:	d8c00117 	ldw	r3,4(sp)
 4003bf4:	00800c44 	movi	r2,49
 4003bf8:	18800005 	stb	r2,0(r3)
 4003bfc:	d8800417 	ldw	r2,16(sp)
 4003c00:	10800044 	addi	r2,r2,1
 4003c04:	d8800415 	stw	r2,16(sp)
 4003c08:	003eaf06 	br	40036c8 <_dtoa_r+0xb5c>
 4003c0c:	d8c00a17 	ldw	r3,40(sp)
 4003c10:	18011826 	beq	r3,zero,4004074 <_dtoa_r+0x1508>
 4003c14:	d8c00617 	ldw	r3,24(sp)
 4003c18:	10810cc4 	addi	r2,r2,1075
 4003c1c:	b0ad883a 	add	r22,r22,r2
 4003c20:	1885883a 	add	r2,r3,r2
 4003c24:	dd000817 	ldw	r20,32(sp)
 4003c28:	1825883a 	mov	r18,r3
 4003c2c:	d8800615 	stw	r2,24(sp)
 4003c30:	003e2806 	br	40034d4 <_dtoa_r+0x968>
 4003c34:	a809883a 	mov	r4,r21
 4003c38:	400d48c0 	call	400d48c <__floatsidf>
 4003c3c:	800d883a 	mov	r6,r16
 4003c40:	900f883a 	mov	r7,r18
 4003c44:	1009883a 	mov	r4,r2
 4003c48:	180b883a 	mov	r5,r3
 4003c4c:	400c3580 	call	400c358 <__muldf3>
 4003c50:	000d883a 	mov	r6,zero
 4003c54:	01d00734 	movhi	r7,16412
 4003c58:	1009883a 	mov	r4,r2
 4003c5c:	180b883a 	mov	r5,r3
 4003c60:	400aee80 	call	400aee8 <__adddf3>
 4003c64:	1029883a 	mov	r20,r2
 4003c68:	00bf3034 	movhi	r2,64704
 4003c6c:	1885883a 	add	r2,r3,r2
 4003c70:	d8800c15 	stw	r2,48(sp)
 4003c74:	8009883a 	mov	r4,r16
 4003c78:	900b883a 	mov	r5,r18
 4003c7c:	000d883a 	mov	r6,zero
 4003c80:	01d00534 	movhi	r7,16404
 4003c84:	400cb040 	call	400cb04 <__subdf3>
 4003c88:	dd400c17 	ldw	r21,48(sp)
 4003c8c:	a00d883a 	mov	r6,r20
 4003c90:	1009883a 	mov	r4,r2
 4003c94:	a80f883a 	mov	r7,r21
 4003c98:	180b883a 	mov	r5,r3
 4003c9c:	1025883a 	mov	r18,r2
 4003ca0:	1821883a 	mov	r16,r3
 4003ca4:	400c1880 	call	400c188 <__gedf2>
 4003ca8:	00812f16 	blt	zero,r2,4004168 <_dtoa_r+0x15fc>
 4003cac:	a9e0003c 	xorhi	r7,r21,32768
 4003cb0:	a00d883a 	mov	r6,r20
 4003cb4:	9009883a 	mov	r4,r18
 4003cb8:	800b883a 	mov	r5,r16
 4003cbc:	400c2700 	call	400c270 <__ledf2>
 4003cc0:	103d7d0e 	bge	r2,zero,40032b8 <_dtoa_r+0x74c>
 4003cc4:	0029883a 	mov	r20,zero
 4003cc8:	0021883a 	mov	r16,zero
 4003ccc:	003d9806 	br	4003330 <_dtoa_r+0x7c4>
 4003cd0:	d9800817 	ldw	r6,32(sp)
 4003cd4:	e00b883a 	mov	r5,fp
 4003cd8:	b809883a 	mov	r4,r23
 4003cdc:	40063b00 	call	40063b0 <__pow5mult>
 4003ce0:	1039883a 	mov	fp,r2
 4003ce4:	003e1e06 	br	4003560 <_dtoa_r+0x9f4>
 4003ce8:	d8800417 	ldw	r2,16(sp)
 4003cec:	1000ed26 	beq	r2,zero,40040a4 <_dtoa_r+0x1538>
 4003cf0:	00a9c83a 	sub	r20,zero,r2
 4003cf4:	a08003cc 	andi	r2,r20,15
 4003cf8:	100690fa 	slli	r3,r2,3
 4003cfc:	00810074 	movhi	r2,1025
 4003d00:	10837404 	addi	r2,r2,3536
 4003d04:	10c5883a 	add	r2,r2,r3
 4003d08:	11800017 	ldw	r6,0(r2)
 4003d0c:	11c00117 	ldw	r7,4(r2)
 4003d10:	a029d13a 	srai	r20,r20,4
 4003d14:	9809883a 	mov	r4,r19
 4003d18:	880b883a 	mov	r5,r17
 4003d1c:	400c3580 	call	400c358 <__muldf3>
 4003d20:	1021883a 	mov	r16,r2
 4003d24:	1825883a 	mov	r18,r3
 4003d28:	a0013826 	beq	r20,zero,400420c <_dtoa_r+0x16a0>
 4003d2c:	02010074 	movhi	r8,1025
 4003d30:	05400084 	movi	r21,2
 4003d34:	42036a04 	addi	r8,r8,3496
 4003d38:	1009883a 	mov	r4,r2
 4003d3c:	9805883a 	mov	r2,r19
 4003d40:	180b883a 	mov	r5,r3
 4003d44:	dc000c15 	stw	r16,48(sp)
 4003d48:	8827883a 	mov	r19,r17
 4003d4c:	0007883a 	mov	r3,zero
 4003d50:	a823883a 	mov	r17,r21
 4003d54:	4021883a 	mov	r16,r8
 4003d58:	102b883a 	mov	r21,r2
 4003d5c:	a180004c 	andi	r6,r20,1
 4003d60:	30000726 	beq	r6,zero,4003d80 <_dtoa_r+0x1214>
 4003d64:	81800017 	ldw	r6,0(r16)
 4003d68:	81c00117 	ldw	r7,4(r16)
 4003d6c:	8c400044 	addi	r17,r17,1
 4003d70:	400c3580 	call	400c358 <__muldf3>
 4003d74:	180b883a 	mov	r5,r3
 4003d78:	1009883a 	mov	r4,r2
 4003d7c:	00c00044 	movi	r3,1
 4003d80:	a029d07a 	srai	r20,r20,1
 4003d84:	84000204 	addi	r16,r16,8
 4003d88:	a03ff41e 	bne	r20,zero,4003d5c <_dtoa_r+0x11f0>
 4003d8c:	a805883a 	mov	r2,r21
 4003d90:	18c03fcc 	andi	r3,r3,255
 4003d94:	882b883a 	mov	r21,r17
 4003d98:	dc000c17 	ldw	r16,48(sp)
 4003d9c:	9823883a 	mov	r17,r19
 4003da0:	1027883a 	mov	r19,r2
 4003da4:	183c7726 	beq	r3,zero,4002f84 <_dtoa_r+0x418>
 4003da8:	2021883a 	mov	r16,r4
 4003dac:	2825883a 	mov	r18,r5
 4003db0:	003c7406 	br	4002f84 <_dtoa_r+0x418>
 4003db4:	983eae1e 	bne	r19,zero,4003870 <_dtoa_r+0xd04>
 4003db8:	00800434 	movhi	r2,16
 4003dbc:	10bfffc4 	addi	r2,r2,-1
 4003dc0:	8884703a 	and	r2,r17,r2
 4003dc4:	103f4126 	beq	r2,zero,4003acc <_dtoa_r+0xf60>
 4003dc8:	003ea906 	br	4003870 <_dtoa_r+0xd04>
 4003dcc:	9807883a 	mov	r3,r19
 4003dd0:	a827883a 	mov	r19,r21
 4003dd4:	182b883a 	mov	r21,r3
 4003dd8:	d8c00417 	ldw	r3,16(sp)
 4003ddc:	18c00044 	addi	r3,r3,1
 4003de0:	d8c00415 	stw	r3,16(sp)
 4003de4:	00800d0e 	bge	zero,r2,4003e1c <_dtoa_r+0x12b0>
 4003de8:	e00b883a 	mov	r5,fp
 4003dec:	b809883a 	mov	r4,r23
 4003df0:	01800044 	movi	r6,1
 4003df4:	40064f80 	call	40064f8 <__lshift>
 4003df8:	a00b883a 	mov	r5,r20
 4003dfc:	1009883a 	mov	r4,r2
 4003e00:	1039883a 	mov	fp,r2
 4003e04:	40066800 	call	4006680 <__mcmp>
 4003e08:	0080df0e 	bge	zero,r2,4004188 <_dtoa_r+0x161c>
 4003e0c:	98c00e60 	cmpeqi	r3,r19,57
 4003e10:	1800ce1e 	bne	r3,zero,400414c <_dtoa_r+0x15e0>
 4003e14:	d8800617 	ldw	r2,24(sp)
 4003e18:	14c00c44 	addi	r19,r2,49
 4003e1c:	8023883a 	mov	r17,r16
 4003e20:	b4c00005 	stb	r19,0(r22)
 4003e24:	9021883a 	mov	r16,r18
 4003e28:	003e2706 	br	40036c8 <_dtoa_r+0xb5c>
 4003e2c:	b82b883a 	mov	r21,r23
 4003e30:	ddc00217 	ldw	r23,8(sp)
 4003e34:	200d883a 	mov	r6,r4
 4003e38:	280f883a 	mov	r7,r5
 4003e3c:	400aee80 	call	400aee8 <__adddf3>
 4003e40:	180b883a 	mov	r5,r3
 4003e44:	800d883a 	mov	r6,r16
 4003e48:	900f883a 	mov	r7,r18
 4003e4c:	1009883a 	mov	r4,r2
 4003e50:	1823883a 	mov	r17,r3
 4003e54:	1027883a 	mov	r19,r2
 4003e58:	400c1880 	call	400c188 <__gedf2>
 4003e5c:	d8c00417 	ldw	r3,16(sp)
 4003e60:	18c00044 	addi	r3,r3,1
 4003e64:	d8c00415 	stw	r3,16(sp)
 4003e68:	00808c16 	blt	zero,r2,400409c <_dtoa_r+0x1530>
 4003e6c:	800d883a 	mov	r6,r16
 4003e70:	900f883a 	mov	r7,r18
 4003e74:	9809883a 	mov	r4,r19
 4003e78:	880b883a 	mov	r5,r17
 4003e7c:	400c1080 	call	400c108 <__eqdf2>
 4003e80:	1000021e 	bne	r2,zero,4003e8c <_dtoa_r+0x1320>
 4003e84:	ad40004c 	andi	r21,r21,1
 4003e88:	a800841e 	bne	r21,zero,400409c <_dtoa_r+0x1530>
 4003e8c:	a02b883a 	mov	r21,r20
 4003e90:	003e1906 	br	40036f8 <_dtoa_r+0xb8c>
 4003e94:	81400117 	ldw	r5,4(r16)
 4003e98:	b809883a 	mov	r4,r23
 4003e9c:	4005bcc0 	call	4005bcc <_Balloc>
 4003ea0:	1023883a 	mov	r17,r2
 4003ea4:	1000f326 	beq	r2,zero,4004274 <_dtoa_r+0x1708>
 4003ea8:	81800417 	ldw	r6,16(r16)
 4003eac:	81400304 	addi	r5,r16,12
 4003eb0:	11000304 	addi	r4,r2,12
 4003eb4:	31800084 	addi	r6,r6,2
 4003eb8:	300c90ba 	slli	r6,r6,2
 4003ebc:	40059dc0 	call	40059dc <memcpy>
 4003ec0:	01800044 	movi	r6,1
 4003ec4:	880b883a 	mov	r5,r17
 4003ec8:	b809883a 	mov	r4,r23
 4003ecc:	40064f80 	call	40064f8 <__lshift>
 4003ed0:	1025883a 	mov	r18,r2
 4003ed4:	003e7d06 	br	40038cc <_dtoa_r+0xd60>
 4003ed8:	e00b883a 	mov	r5,fp
 4003edc:	b809883a 	mov	r4,r23
 4003ee0:	40063b00 	call	40063b0 <__pow5mult>
 4003ee4:	1039883a 	mov	fp,r2
 4003ee8:	003d9d06 	br	4003560 <_dtoa_r+0x9f4>
 4003eec:	d8800617 	ldw	r2,24(sp)
 4003ef0:	d8c00517 	ldw	r3,20(sp)
 4003ef4:	10e5c83a 	sub	r18,r2,r3
 4003ef8:	003d7606 	br	40034d4 <_dtoa_r+0x968>
 4003efc:	d8c00417 	ldw	r3,16(sp)
 4003f00:	9805883a 	mov	r2,r19
 4003f04:	a827883a 	mov	r19,r21
 4003f08:	18c00044 	addi	r3,r3,1
 4003f0c:	102b883a 	mov	r21,r2
 4003f10:	d8c00415 	stw	r3,16(sp)
 4003f14:	98800e58 	cmpnei	r2,r19,57
 4003f18:	10008c26 	beq	r2,zero,400414c <_dtoa_r+0x15e0>
 4003f1c:	98c00044 	addi	r3,r19,1
 4003f20:	8023883a 	mov	r17,r16
 4003f24:	b0c00005 	stb	r3,0(r22)
 4003f28:	9021883a 	mov	r16,r18
 4003f2c:	003de606 	br	40036c8 <_dtoa_r+0xb5c>
 4003f30:	9805883a 	mov	r2,r19
 4003f34:	a827883a 	mov	r19,r21
 4003f38:	102b883a 	mov	r21,r2
 4003f3c:	d8800417 	ldw	r2,16(sp)
 4003f40:	8023883a 	mov	r17,r16
 4003f44:	9021883a 	mov	r16,r18
 4003f48:	10800044 	addi	r2,r2,1
 4003f4c:	d8800415 	stw	r2,16(sp)
 4003f50:	003dc606 	br	400366c <_dtoa_r+0xb00>
 4003f54:	d9400c17 	ldw	r5,48(sp)
 4003f58:	a009883a 	mov	r4,r20
 4003f5c:	400c3580 	call	400c358 <__muldf3>
 4003f60:	d9800d17 	ldw	r6,52(sp)
 4003f64:	d9400117 	ldw	r5,4(sp)
 4003f68:	d9001017 	ldw	r4,64(sp)
 4003f6c:	d8800c15 	stw	r2,48(sp)
 4003f70:	d8c00d15 	stw	r3,52(sp)
 4003f74:	29000005 	stb	r4,0(r5)
 4003f78:	31000058 	cmpnei	r4,r6,1
 4003f7c:	29a9883a 	add	r20,r5,r6
 4003f80:	2000a026 	beq	r4,zero,4004204 <_dtoa_r+0x1698>
 4003f84:	dc400e15 	stw	r17,56(sp)
 4003f88:	8009883a 	mov	r4,r16
 4003f8c:	900b883a 	mov	r5,r18
 4003f90:	a823883a 	mov	r17,r21
 4003f94:	000d883a 	mov	r6,zero
 4003f98:	01d00934 	movhi	r7,16420
 4003f9c:	400c3580 	call	400c358 <__muldf3>
 4003fa0:	180b883a 	mov	r5,r3
 4003fa4:	1009883a 	mov	r4,r2
 4003fa8:	1825883a 	mov	r18,r3
 4003fac:	102b883a 	mov	r21,r2
 4003fb0:	400d40c0 	call	400d40c <__fixdfsi>
 4003fb4:	1009883a 	mov	r4,r2
 4003fb8:	1021883a 	mov	r16,r2
 4003fbc:	400d48c0 	call	400d48c <__floatsidf>
 4003fc0:	a809883a 	mov	r4,r21
 4003fc4:	900b883a 	mov	r5,r18
 4003fc8:	100d883a 	mov	r6,r2
 4003fcc:	180f883a 	mov	r7,r3
 4003fd0:	8c400044 	addi	r17,r17,1
 4003fd4:	84000c04 	addi	r16,r16,48
 4003fd8:	400cb040 	call	400cb04 <__subdf3>
 4003fdc:	8c3fffc5 	stb	r16,-1(r17)
 4003fe0:	1009883a 	mov	r4,r2
 4003fe4:	180b883a 	mov	r5,r3
 4003fe8:	a47fea1e 	bne	r20,r17,4003f94 <_dtoa_r+0x1428>
 4003fec:	dc400e17 	ldw	r17,56(sp)
 4003ff0:	1021883a 	mov	r16,r2
 4003ff4:	1825883a 	mov	r18,r3
 4003ff8:	d9000c17 	ldw	r4,48(sp)
 4003ffc:	d9400d17 	ldw	r5,52(sp)
 4004000:	000d883a 	mov	r6,zero
 4004004:	01cff834 	movhi	r7,16352
 4004008:	400aee80 	call	400aee8 <__adddf3>
 400400c:	800d883a 	mov	r6,r16
 4004010:	900f883a 	mov	r7,r18
 4004014:	1009883a 	mov	r4,r2
 4004018:	180b883a 	mov	r5,r3
 400401c:	400c2700 	call	400c270 <__ledf2>
 4004020:	10005416 	blt	r2,zero,4004174 <_dtoa_r+0x1608>
 4004024:	d9800c17 	ldw	r6,48(sp)
 4004028:	d9c00d17 	ldw	r7,52(sp)
 400402c:	0009883a 	mov	r4,zero
 4004030:	014ff834 	movhi	r5,16352
 4004034:	400cb040 	call	400cb04 <__subdf3>
 4004038:	800d883a 	mov	r6,r16
 400403c:	900f883a 	mov	r7,r18
 4004040:	1009883a 	mov	r4,r2
 4004044:	180b883a 	mov	r5,r3
 4004048:	400c1880 	call	400c188 <__gedf2>
 400404c:	00bc9a0e 	bge	zero,r2,40032b8 <_dtoa_r+0x74c>
 4004050:	a0bfffc7 	ldb	r2,-1(r20)
 4004054:	a02b883a 	mov	r21,r20
 4004058:	a53fffc4 	addi	r20,r20,-1
 400405c:	10800c20 	cmpeqi	r2,r2,48
 4004060:	103ffb1e 	bne	r2,zero,4004050 <_dtoa_r+0x14e4>
 4004064:	d8801117 	ldw	r2,68(sp)
 4004068:	10800044 	addi	r2,r2,1
 400406c:	d8800415 	stw	r2,16(sp)
 4004070:	003da106 	br	40036f8 <_dtoa_r+0xb8c>
 4004074:	d8c01217 	ldw	r3,72(sp)
 4004078:	d9000617 	ldw	r4,24(sp)
 400407c:	00800d84 	movi	r2,54
 4004080:	10c5c83a 	sub	r2,r2,r3
 4004084:	b0ad883a 	add	r22,r22,r2
 4004088:	2085883a 	add	r2,r4,r2
 400408c:	dd000817 	ldw	r20,32(sp)
 4004090:	2025883a 	mov	r18,r4
 4004094:	d8800615 	stw	r2,24(sp)
 4004098:	003d0e06 	br	40034d4 <_dtoa_r+0x968>
 400409c:	d9000117 	ldw	r4,4(sp)
 40040a0:	003c4b06 	br	40031d0 <_dtoa_r+0x664>
 40040a4:	9821883a 	mov	r16,r19
 40040a8:	8825883a 	mov	r18,r17
 40040ac:	05400084 	movi	r21,2
 40040b0:	003bb406 	br	4002f84 <_dtoa_r+0x418>
 40040b4:	d8800517 	ldw	r2,20(sp)
 40040b8:	103ede26 	beq	r2,zero,4003c34 <_dtoa_r+0x10c8>
 40040bc:	d8800b17 	ldw	r2,44(sp)
 40040c0:	00bc7d0e 	bge	zero,r2,40032b8 <_dtoa_r+0x74c>
 40040c4:	900b883a 	mov	r5,r18
 40040c8:	8009883a 	mov	r4,r16
 40040cc:	000d883a 	mov	r6,zero
 40040d0:	01d00934 	movhi	r7,16420
 40040d4:	400c3580 	call	400c358 <__muldf3>
 40040d8:	a9000044 	addi	r4,r21,1
 40040dc:	1021883a 	mov	r16,r2
 40040e0:	1825883a 	mov	r18,r3
 40040e4:	400d48c0 	call	400d48c <__floatsidf>
 40040e8:	800d883a 	mov	r6,r16
 40040ec:	900f883a 	mov	r7,r18
 40040f0:	1009883a 	mov	r4,r2
 40040f4:	180b883a 	mov	r5,r3
 40040f8:	400c3580 	call	400c358 <__muldf3>
 40040fc:	1009883a 	mov	r4,r2
 4004100:	000d883a 	mov	r6,zero
 4004104:	01d00734 	movhi	r7,16412
 4004108:	180b883a 	mov	r5,r3
 400410c:	400aee80 	call	400aee8 <__adddf3>
 4004110:	d9000417 	ldw	r4,16(sp)
 4004114:	1029883a 	mov	r20,r2
 4004118:	00bf3034 	movhi	r2,64704
 400411c:	1887883a 	add	r3,r3,r2
 4004120:	d8800b17 	ldw	r2,44(sp)
 4004124:	213fffc4 	addi	r4,r4,-1
 4004128:	d9001115 	stw	r4,68(sp)
 400412c:	d8c00c15 	stw	r3,48(sp)
 4004130:	d8800d15 	stw	r2,52(sp)
 4004134:	003bb106 	br	4002ffc <_dtoa_r+0x490>
 4004138:	d8800417 	ldw	r2,16(sp)
 400413c:	00c00c44 	movi	r3,49
 4004140:	10800044 	addi	r2,r2,1
 4004144:	d8800415 	stw	r2,16(sp)
 4004148:	003c2a06 	br	40031f4 <_dtoa_r+0x688>
 400414c:	00800e44 	movi	r2,57
 4004150:	8023883a 	mov	r17,r16
 4004154:	d9400117 	ldw	r5,4(sp)
 4004158:	b0800005 	stb	r2,0(r22)
 400415c:	9021883a 	mov	r16,r18
 4004160:	01000e44 	movi	r4,57
 4004164:	003d5006 	br	40036a8 <_dtoa_r+0xb3c>
 4004168:	0029883a 	mov	r20,zero
 400416c:	0021883a 	mov	r16,zero
 4004170:	003e7106 	br	4003b38 <_dtoa_r+0xfcc>
 4004174:	d8801117 	ldw	r2,68(sp)
 4004178:	d9000117 	ldw	r4,4(sp)
 400417c:	10800044 	addi	r2,r2,1
 4004180:	d8800415 	stw	r2,16(sp)
 4004184:	003c1206 	br	40031d0 <_dtoa_r+0x664>
 4004188:	103f241e 	bne	r2,zero,4003e1c <_dtoa_r+0x12b0>
 400418c:	9880004c 	andi	r2,r19,1
 4004190:	103f1e1e 	bne	r2,zero,4003e0c <_dtoa_r+0x12a0>
 4004194:	003f2106 	br	4003e1c <_dtoa_r+0x12b0>
 4004198:	d8801117 	ldw	r2,68(sp)
 400419c:	ddc00d17 	ldw	r23,52(sp)
 40041a0:	10800044 	addi	r2,r2,1
 40041a4:	d8800415 	stw	r2,16(sp)
 40041a8:	003d5306 	br	40036f8 <_dtoa_r+0xb8c>
 40041ac:	d8c00417 	ldw	r3,16(sp)
 40041b0:	a8800e60 	cmpeqi	r2,r21,57
 40041b4:	a827883a 	mov	r19,r21
 40041b8:	18c00044 	addi	r3,r3,1
 40041bc:	d8c00415 	stw	r3,16(sp)
 40041c0:	b5400044 	addi	r21,r22,1
 40041c4:	103fe11e 	bne	r2,zero,400414c <_dtoa_r+0x15e0>
 40041c8:	047f1216 	blt	zero,r17,4003e14 <_dtoa_r+0x12a8>
 40041cc:	003f1306 	br	4003e1c <_dtoa_r+0x12b0>
 40041d0:	d8800217 	ldw	r2,8(sp)
 40041d4:	108000c8 	cmpgei	r2,r2,3
 40041d8:	103e481e 	bne	r2,zero,4003afc <_dtoa_r+0xf90>
 40041dc:	dd400415 	stw	r21,16(sp)
 40041e0:	003e0d06 	br	4003a18 <_dtoa_r+0xeac>
 40041e4:	d8800217 	ldw	r2,8(sp)
 40041e8:	108000c8 	cmpgei	r2,r2,3
 40041ec:	103e431e 	bne	r2,zero,4003afc <_dtoa_r+0xf90>
 40041f0:	d8800b17 	ldw	r2,44(sp)
 40041f4:	dd400415 	stw	r21,16(sp)
 40041f8:	d8800515 	stw	r2,20(sp)
 40041fc:	04bdb10e 	bge	zero,r18,40038c4 <_dtoa_r+0xd58>
 4004200:	003e5c06 	br	4003b74 <_dtoa_r+0x1008>
 4004204:	a829883a 	mov	r20,r21
 4004208:	003f7b06 	br	4003ff8 <_dtoa_r+0x148c>
 400420c:	05400084 	movi	r21,2
 4004210:	003b5c06 	br	4002f84 <_dtoa_r+0x418>
 4004214:	01c10074 	movhi	r7,1025
 4004218:	01010074 	movhi	r4,1025
 400421c:	39c33804 	addi	r7,r7,3296
 4004220:	000d883a 	mov	r6,zero
 4004224:	01406a84 	movi	r5,426
 4004228:	21033d04 	addi	r4,r4,3316
 400422c:	40085d40 	call	40085d4 <__assert_func>
 4004230:	000b883a 	mov	r5,zero
 4004234:	003b1506 	br	4002e8c <_dtoa_r+0x320>
 4004238:	b8001115 	stw	zero,68(r23)
 400423c:	000b883a 	mov	r5,zero
 4004240:	b809883a 	mov	r4,r23
 4004244:	4005bcc0 	call	4005bcc <_Balloc>
 4004248:	d8800115 	stw	r2,4(sp)
 400424c:	103ff126 	beq	r2,zero,4004214 <_dtoa_r+0x16a8>
 4004250:	d8800117 	ldw	r2,4(sp)
 4004254:	d8001e15 	stw	zero,120(sp)
 4004258:	b8801015 	stw	r2,64(r23)
 400425c:	00bfffc4 	movi	r2,-1
 4004260:	d8800515 	stw	r2,20(sp)
 4004264:	d8800b15 	stw	r2,44(sp)
 4004268:	00800044 	movi	r2,1
 400426c:	d8800715 	stw	r2,28(sp)
 4004270:	003c1106 	br	40032b8 <_dtoa_r+0x74c>
 4004274:	01c10074 	movhi	r7,1025
 4004278:	01010074 	movhi	r4,1025
 400427c:	39c33804 	addi	r7,r7,3296
 4004280:	000d883a 	mov	r6,zero
 4004284:	0140ba84 	movi	r5,746
 4004288:	21033d04 	addi	r4,r4,3316
 400428c:	40085d40 	call	40085d4 <__assert_func>
 4004290:	00810074 	movhi	r2,1025
 4004294:	10833504 	addi	r2,r2,3284
 4004298:	d8800115 	stw	r2,4(sp)
 400429c:	003a6506 	br	4002c34 <_dtoa_r+0xc8>
 40042a0:	18c00120 	cmpeqi	r3,r3,4
 40042a4:	183cc91e 	bne	r3,zero,40035cc <_dtoa_r+0xa60>
 40042a8:	00c00f04 	movi	r3,60
 40042ac:	1885c83a 	sub	r2,r3,r2
 40042b0:	003cc106 	br	40035b8 <_dtoa_r+0xa4c>

040042b4 <__sflush_r>:
 40042b4:	2880030b 	ldhu	r2,12(r5)
 40042b8:	defffb04 	addi	sp,sp,-20
 40042bc:	dcc00315 	stw	r19,12(sp)
 40042c0:	dc000015 	stw	r16,0(sp)
 40042c4:	dfc00415 	stw	ra,16(sp)
 40042c8:	dc800215 	stw	r18,8(sp)
 40042cc:	dc400115 	stw	r17,4(sp)
 40042d0:	10c0020c 	andi	r3,r2,8
 40042d4:	2821883a 	mov	r16,r5
 40042d8:	2027883a 	mov	r19,r4
 40042dc:	18003f1e 	bne	r3,zero,40043dc <__sflush_r+0x128>
 40042e0:	28c00117 	ldw	r3,4(r5)
 40042e4:	10820014 	ori	r2,r2,2048
 40042e8:	2880030d 	sth	r2,12(r5)
 40042ec:	00c0550e 	bge	zero,r3,4004444 <__sflush_r+0x190>
 40042f0:	82000a17 	ldw	r8,40(r16)
 40042f4:	40003126 	beq	r8,zero,40043bc <__sflush_r+0x108>
 40042f8:	9c400017 	ldw	r17,0(r19)
 40042fc:	1104000c 	andi	r4,r2,4096
 4004300:	98000015 	stw	zero,0(r19)
 4004304:	81400717 	ldw	r5,28(r16)
 4004308:	1007883a 	mov	r3,r2
 400430c:	2000521e 	bne	r4,zero,4004458 <__sflush_r+0x1a4>
 4004310:	01c00044 	movi	r7,1
 4004314:	000d883a 	mov	r6,zero
 4004318:	9809883a 	mov	r4,r19
 400431c:	403ee83a 	callr	r8
 4004320:	10ffffd8 	cmpnei	r3,r2,-1
 4004324:	18005826 	beq	r3,zero,4004488 <__sflush_r+0x1d4>
 4004328:	80c0030b 	ldhu	r3,12(r16)
 400432c:	82000a17 	ldw	r8,40(r16)
 4004330:	81400717 	ldw	r5,28(r16)
 4004334:	18c0010c 	andi	r3,r3,4
 4004338:	18000626 	beq	r3,zero,4004354 <__sflush_r+0xa0>
 400433c:	81000117 	ldw	r4,4(r16)
 4004340:	80c00c17 	ldw	r3,48(r16)
 4004344:	1105c83a 	sub	r2,r2,r4
 4004348:	18000226 	beq	r3,zero,4004354 <__sflush_r+0xa0>
 400434c:	80c00f17 	ldw	r3,60(r16)
 4004350:	10c5c83a 	sub	r2,r2,r3
 4004354:	100d883a 	mov	r6,r2
 4004358:	000f883a 	mov	r7,zero
 400435c:	9809883a 	mov	r4,r19
 4004360:	403ee83a 	callr	r8
 4004364:	10ffffd8 	cmpnei	r3,r2,-1
 4004368:	18003d1e 	bne	r3,zero,4004460 <__sflush_r+0x1ac>
 400436c:	99000017 	ldw	r4,0(r19)
 4004370:	80c0030b 	ldhu	r3,12(r16)
 4004374:	20004e26 	beq	r4,zero,40044b0 <__sflush_r+0x1fc>
 4004378:	21400760 	cmpeqi	r5,r4,29
 400437c:	2800021e 	bne	r5,zero,4004388 <__sflush_r+0xd4>
 4004380:	210005a0 	cmpeqi	r4,r4,22
 4004384:	20002c26 	beq	r4,zero,4004438 <__sflush_r+0x184>
 4004388:	80800417 	ldw	r2,16(r16)
 400438c:	18fdffcc 	andi	r3,r3,63487
 4004390:	80c0030d 	sth	r3,12(r16)
 4004394:	80000115 	stw	zero,4(r16)
 4004398:	80800015 	stw	r2,0(r16)
 400439c:	81400c17 	ldw	r5,48(r16)
 40043a0:	9c400015 	stw	r17,0(r19)
 40043a4:	28000526 	beq	r5,zero,40043bc <__sflush_r+0x108>
 40043a8:	80801004 	addi	r2,r16,64
 40043ac:	28800226 	beq	r5,r2,40043b8 <__sflush_r+0x104>
 40043b0:	9809883a 	mov	r4,r19
 40043b4:	4004a880 	call	4004a88 <_free_r>
 40043b8:	80000c15 	stw	zero,48(r16)
 40043bc:	0005883a 	mov	r2,zero
 40043c0:	dfc00417 	ldw	ra,16(sp)
 40043c4:	dcc00317 	ldw	r19,12(sp)
 40043c8:	dc800217 	ldw	r18,8(sp)
 40043cc:	dc400117 	ldw	r17,4(sp)
 40043d0:	dc000017 	ldw	r16,0(sp)
 40043d4:	dec00504 	addi	sp,sp,20
 40043d8:	f800283a 	ret
 40043dc:	2c800417 	ldw	r18,16(r5)
 40043e0:	903ff626 	beq	r18,zero,40043bc <__sflush_r+0x108>
 40043e4:	2c400017 	ldw	r17,0(r5)
 40043e8:	108000cc 	andi	r2,r2,3
 40043ec:	2c800015 	stw	r18,0(r5)
 40043f0:	8ca3c83a 	sub	r17,r17,r18
 40043f4:	1000161e 	bne	r2,zero,4004450 <__sflush_r+0x19c>
 40043f8:	28800517 	ldw	r2,20(r5)
 40043fc:	80800215 	stw	r2,8(r16)
 4004400:	04400316 	blt	zero,r17,4004410 <__sflush_r+0x15c>
 4004404:	003fed06 	br	40043bc <__sflush_r+0x108>
 4004408:	90a5883a 	add	r18,r18,r2
 400440c:	047feb0e 	bge	zero,r17,40043bc <__sflush_r+0x108>
 4004410:	80800917 	ldw	r2,36(r16)
 4004414:	81400717 	ldw	r5,28(r16)
 4004418:	880f883a 	mov	r7,r17
 400441c:	900d883a 	mov	r6,r18
 4004420:	9809883a 	mov	r4,r19
 4004424:	103ee83a 	callr	r2
 4004428:	88a3c83a 	sub	r17,r17,r2
 400442c:	00bff616 	blt	zero,r2,4004408 <__sflush_r+0x154>
 4004430:	80c0030b 	ldhu	r3,12(r16)
 4004434:	00bfffc4 	movi	r2,-1
 4004438:	18c01014 	ori	r3,r3,64
 400443c:	80c0030d 	sth	r3,12(r16)
 4004440:	003fdf06 	br	40043c0 <__sflush_r+0x10c>
 4004444:	28c00f17 	ldw	r3,60(r5)
 4004448:	00ffa916 	blt	zero,r3,40042f0 <__sflush_r+0x3c>
 400444c:	003fdb06 	br	40043bc <__sflush_r+0x108>
 4004450:	0005883a 	mov	r2,zero
 4004454:	003fe906 	br	40043fc <__sflush_r+0x148>
 4004458:	80801417 	ldw	r2,80(r16)
 400445c:	003fb506 	br	4004334 <__sflush_r+0x80>
 4004460:	80c0030b 	ldhu	r3,12(r16)
 4004464:	81000417 	ldw	r4,16(r16)
 4004468:	80000115 	stw	zero,4(r16)
 400446c:	197dffcc 	andi	r5,r3,63487
 4004470:	8140030d 	sth	r5,12(r16)
 4004474:	81000015 	stw	r4,0(r16)
 4004478:	18c4000c 	andi	r3,r3,4096
 400447c:	183fc726 	beq	r3,zero,400439c <__sflush_r+0xe8>
 4004480:	80801415 	stw	r2,80(r16)
 4004484:	003fc506 	br	400439c <__sflush_r+0xe8>
 4004488:	98c00017 	ldw	r3,0(r19)
 400448c:	183fa626 	beq	r3,zero,4004328 <__sflush_r+0x74>
 4004490:	19000760 	cmpeqi	r4,r3,29
 4004494:	20000e1e 	bne	r4,zero,40044d0 <__sflush_r+0x21c>
 4004498:	18c00598 	cmpnei	r3,r3,22
 400449c:	18000c26 	beq	r3,zero,40044d0 <__sflush_r+0x21c>
 40044a0:	80c0030b 	ldhu	r3,12(r16)
 40044a4:	18c01014 	ori	r3,r3,64
 40044a8:	80c0030d 	sth	r3,12(r16)
 40044ac:	003fc406 	br	40043c0 <__sflush_r+0x10c>
 40044b0:	81000417 	ldw	r4,16(r16)
 40044b4:	197dffcc 	andi	r5,r3,63487
 40044b8:	8140030d 	sth	r5,12(r16)
 40044bc:	80000115 	stw	zero,4(r16)
 40044c0:	81000015 	stw	r4,0(r16)
 40044c4:	18c4000c 	andi	r3,r3,4096
 40044c8:	183fb426 	beq	r3,zero,400439c <__sflush_r+0xe8>
 40044cc:	003fec06 	br	4004480 <__sflush_r+0x1cc>
 40044d0:	9c400015 	stw	r17,0(r19)
 40044d4:	0005883a 	mov	r2,zero
 40044d8:	003fb906 	br	40043c0 <__sflush_r+0x10c>

040044dc <_fflush_r>:
 40044dc:	defffd04 	addi	sp,sp,-12
 40044e0:	dc000115 	stw	r16,4(sp)
 40044e4:	dfc00215 	stw	ra,8(sp)
 40044e8:	2021883a 	mov	r16,r4
 40044ec:	20000226 	beq	r4,zero,40044f8 <_fflush_r+0x1c>
 40044f0:	20800e17 	ldw	r2,56(r4)
 40044f4:	10000726 	beq	r2,zero,4004514 <_fflush_r+0x38>
 40044f8:	2880030f 	ldh	r2,12(r5)
 40044fc:	10000a1e 	bne	r2,zero,4004528 <_fflush_r+0x4c>
 4004500:	0005883a 	mov	r2,zero
 4004504:	dfc00217 	ldw	ra,8(sp)
 4004508:	dc000117 	ldw	r16,4(sp)
 400450c:	dec00304 	addi	sp,sp,12
 4004510:	f800283a 	ret
 4004514:	d9400015 	stw	r5,0(sp)
 4004518:	40049240 	call	4004924 <__sinit>
 400451c:	d9400017 	ldw	r5,0(sp)
 4004520:	2880030f 	ldh	r2,12(r5)
 4004524:	103ff626 	beq	r2,zero,4004500 <_fflush_r+0x24>
 4004528:	8009883a 	mov	r4,r16
 400452c:	dfc00217 	ldw	ra,8(sp)
 4004530:	dc000117 	ldw	r16,4(sp)
 4004534:	dec00304 	addi	sp,sp,12
 4004538:	40042b41 	jmpi	40042b4 <__sflush_r>

0400453c <fflush>:
 400453c:	20001726 	beq	r4,zero,400459c <fflush+0x60>
 4004540:	00810074 	movhi	r2,1025
 4004544:	200b883a 	mov	r5,r4
 4004548:	110bdd17 	ldw	r4,12148(r2)
 400454c:	20000226 	beq	r4,zero,4004558 <fflush+0x1c>
 4004550:	20800e17 	ldw	r2,56(r4)
 4004554:	10000526 	beq	r2,zero,400456c <fflush+0x30>
 4004558:	2880030f 	ldh	r2,12(r5)
 400455c:	1000021e 	bne	r2,zero,4004568 <fflush+0x2c>
 4004560:	0005883a 	mov	r2,zero
 4004564:	f800283a 	ret
 4004568:	40042b41 	jmpi	40042b4 <__sflush_r>
 400456c:	defffd04 	addi	sp,sp,-12
 4004570:	d9400115 	stw	r5,4(sp)
 4004574:	d9000015 	stw	r4,0(sp)
 4004578:	dfc00215 	stw	ra,8(sp)
 400457c:	40049240 	call	4004924 <__sinit>
 4004580:	d9400117 	ldw	r5,4(sp)
 4004584:	d9000017 	ldw	r4,0(sp)
 4004588:	2880030f 	ldh	r2,12(r5)
 400458c:	10000826 	beq	r2,zero,40045b0 <fflush+0x74>
 4004590:	dfc00217 	ldw	ra,8(sp)
 4004594:	dec00304 	addi	sp,sp,12
 4004598:	40042b41 	jmpi	40042b4 <__sflush_r>
 400459c:	00810074 	movhi	r2,1025
 40045a0:	110bdc17 	ldw	r4,12144(r2)
 40045a4:	01410034 	movhi	r5,1024
 40045a8:	29513704 	addi	r5,r5,17628
 40045ac:	4004e1c1 	jmpi	4004e1c <_fwalk_reent>
 40045b0:	0005883a 	mov	r2,zero
 40045b4:	dfc00217 	ldw	ra,8(sp)
 40045b8:	dec00304 	addi	sp,sp,12
 40045bc:	f800283a 	ret

040045c0 <__fp_lock>:
 40045c0:	0005883a 	mov	r2,zero
 40045c4:	f800283a 	ret

040045c8 <_cleanup_r>:
 40045c8:	01410074 	movhi	r5,1025
 40045cc:	2961f404 	addi	r5,r5,-30768
 40045d0:	4004e1c1 	jmpi	4004e1c <_fwalk_reent>

040045d4 <__fp_unlock>:
 40045d4:	0005883a 	mov	r2,zero
 40045d8:	f800283a 	ret

040045dc <__sinit.part.0>:
 40045dc:	00c10034 	movhi	r3,1024
 40045e0:	20800117 	ldw	r2,4(r4)
 40045e4:	18d17204 	addi	r3,r3,17864
 40045e8:	20c00f15 	stw	r3,60(r4)
 40045ec:	2140bb04 	addi	r5,r4,748
 40045f0:	00c000c4 	movi	r3,3
 40045f4:	20c0b915 	stw	r3,740(r4)
 40045f8:	2140ba15 	stw	r5,744(r4)
 40045fc:	2000b815 	stw	zero,736(r4)
 4004600:	10001705 	stb	zero,92(r2)
 4004604:	10001745 	stb	zero,93(r2)
 4004608:	10001785 	stb	zero,94(r2)
 400460c:	100017c5 	stb	zero,95(r2)
 4004610:	10001805 	stb	zero,96(r2)
 4004614:	10001845 	stb	zero,97(r2)
 4004618:	10001885 	stb	zero,98(r2)
 400461c:	100018c5 	stb	zero,99(r2)
 4004620:	00c00104 	movi	r3,4
 4004624:	10c00315 	stw	r3,12(r2)
 4004628:	02010034 	movhi	r8,1024
 400462c:	20c00217 	ldw	r3,8(r4)
 4004630:	01c10034 	movhi	r7,1024
 4004634:	01810034 	movhi	r6,1024
 4004638:	01410034 	movhi	r5,1024
 400463c:	421b8504 	addi	r8,r8,28180
 4004640:	39db9c04 	addi	r7,r7,28272
 4004644:	319bbc04 	addi	r6,r6,28400
 4004648:	295bd304 	addi	r5,r5,28492
 400464c:	02400074 	movhi	r9,1
 4004650:	10001915 	stw	zero,100(r2)
 4004654:	10000015 	stw	zero,0(r2)
 4004658:	10000115 	stw	zero,4(r2)
 400465c:	10000215 	stw	zero,8(r2)
 4004660:	10000415 	stw	zero,16(r2)
 4004664:	10000515 	stw	zero,20(r2)
 4004668:	10000615 	stw	zero,24(r2)
 400466c:	10800715 	stw	r2,28(r2)
 4004670:	12000815 	stw	r8,32(r2)
 4004674:	11c00915 	stw	r7,36(r2)
 4004678:	11800a15 	stw	r6,40(r2)
 400467c:	11400b15 	stw	r5,44(r2)
 4004680:	4a400284 	addi	r9,r9,10
 4004684:	1a400315 	stw	r9,12(r3)
 4004688:	18001915 	stw	zero,100(r3)
 400468c:	18000015 	stw	zero,0(r3)
 4004690:	18000115 	stw	zero,4(r3)
 4004694:	18000215 	stw	zero,8(r3)
 4004698:	18000415 	stw	zero,16(r3)
 400469c:	18001705 	stb	zero,92(r3)
 40046a0:	18001745 	stb	zero,93(r3)
 40046a4:	18001785 	stb	zero,94(r3)
 40046a8:	180017c5 	stb	zero,95(r3)
 40046ac:	18001805 	stb	zero,96(r3)
 40046b0:	18001845 	stb	zero,97(r3)
 40046b4:	18001885 	stb	zero,98(r3)
 40046b8:	180018c5 	stb	zero,99(r3)
 40046bc:	20800317 	ldw	r2,12(r4)
 40046c0:	024000b4 	movhi	r9,2
 40046c4:	18000515 	stw	zero,20(r3)
 40046c8:	18000615 	stw	zero,24(r3)
 40046cc:	18c00715 	stw	r3,28(r3)
 40046d0:	1a000815 	stw	r8,32(r3)
 40046d4:	19c00915 	stw	r7,36(r3)
 40046d8:	19800a15 	stw	r6,40(r3)
 40046dc:	19400b15 	stw	r5,44(r3)
 40046e0:	4a400484 	addi	r9,r9,18
 40046e4:	10001915 	stw	zero,100(r2)
 40046e8:	10000015 	stw	zero,0(r2)
 40046ec:	10000115 	stw	zero,4(r2)
 40046f0:	10000215 	stw	zero,8(r2)
 40046f4:	12400315 	stw	r9,12(r2)
 40046f8:	10000415 	stw	zero,16(r2)
 40046fc:	10000515 	stw	zero,20(r2)
 4004700:	10000615 	stw	zero,24(r2)
 4004704:	10001705 	stb	zero,92(r2)
 4004708:	10001745 	stb	zero,93(r2)
 400470c:	10001785 	stb	zero,94(r2)
 4004710:	100017c5 	stb	zero,95(r2)
 4004714:	10001805 	stb	zero,96(r2)
 4004718:	10001845 	stb	zero,97(r2)
 400471c:	10001885 	stb	zero,98(r2)
 4004720:	100018c5 	stb	zero,99(r2)
 4004724:	10800715 	stw	r2,28(r2)
 4004728:	12000815 	stw	r8,32(r2)
 400472c:	11c00915 	stw	r7,36(r2)
 4004730:	11800a15 	stw	r6,40(r2)
 4004734:	11400b15 	stw	r5,44(r2)
 4004738:	00800044 	movi	r2,1
 400473c:	20800e15 	stw	r2,56(r4)
 4004740:	f800283a 	ret

04004744 <__sfmoreglue>:
 4004744:	defffc04 	addi	sp,sp,-16
 4004748:	dc800215 	stw	r18,8(sp)
 400474c:	2825883a 	mov	r18,r5
 4004750:	dc000015 	stw	r16,0(sp)
 4004754:	01401a04 	movi	r5,104
 4004758:	2021883a 	mov	r16,r4
 400475c:	913fffc4 	addi	r4,r18,-1
 4004760:	dfc00315 	stw	ra,12(sp)
 4004764:	dc400115 	stw	r17,4(sp)
 4004768:	400aec00 	call	400aec0 <__mulsi3>
 400476c:	8009883a 	mov	r4,r16
 4004770:	11401d04 	addi	r5,r2,116
 4004774:	1023883a 	mov	r17,r2
 4004778:	400512c0 	call	400512c <_malloc_r>
 400477c:	1021883a 	mov	r16,r2
 4004780:	10000726 	beq	r2,zero,40047a0 <__sfmoreglue+0x5c>
 4004784:	11000304 	addi	r4,r2,12
 4004788:	10000015 	stw	zero,0(r2)
 400478c:	14800115 	stw	r18,4(r2)
 4004790:	11000215 	stw	r4,8(r2)
 4004794:	89801a04 	addi	r6,r17,104
 4004798:	000b883a 	mov	r5,zero
 400479c:	4005adc0 	call	4005adc <memset>
 40047a0:	8005883a 	mov	r2,r16
 40047a4:	dfc00317 	ldw	ra,12(sp)
 40047a8:	dc800217 	ldw	r18,8(sp)
 40047ac:	dc400117 	ldw	r17,4(sp)
 40047b0:	dc000017 	ldw	r16,0(sp)
 40047b4:	dec00404 	addi	sp,sp,16
 40047b8:	f800283a 	ret

040047bc <__sfp>:
 40047bc:	defffb04 	addi	sp,sp,-20
 40047c0:	00810074 	movhi	r2,1025
 40047c4:	dc000015 	stw	r16,0(sp)
 40047c8:	140bdc17 	ldw	r16,12144(r2)
 40047cc:	dc400115 	stw	r17,4(sp)
 40047d0:	dfc00415 	stw	ra,16(sp)
 40047d4:	80800e17 	ldw	r2,56(r16)
 40047d8:	dcc00315 	stw	r19,12(sp)
 40047dc:	dc800215 	stw	r18,8(sp)
 40047e0:	2023883a 	mov	r17,r4
 40047e4:	10003126 	beq	r2,zero,40048ac <__sfp+0xf0>
 40047e8:	8100ba17 	ldw	r4,744(r16)
 40047ec:	8140b917 	ldw	r5,740(r16)
 40047f0:	04c00104 	movi	r19,4
 40047f4:	8400b804 	addi	r16,r16,736
 40047f8:	297fffc4 	addi	r5,r5,-1
 40047fc:	2800050e 	bge	r5,zero,4004814 <__sfp+0x58>
 4004800:	00002406 	br	4004894 <__sfp+0xd8>
 4004804:	297fffc4 	addi	r5,r5,-1
 4004808:	28bfffd8 	cmpnei	r2,r5,-1
 400480c:	21001a04 	addi	r4,r4,104
 4004810:	10002026 	beq	r2,zero,4004894 <__sfp+0xd8>
 4004814:	2080030f 	ldh	r2,12(r4)
 4004818:	103ffa1e 	bne	r2,zero,4004804 <__sfp+0x48>
 400481c:	00bffff4 	movhi	r2,65535
 4004820:	10800044 	addi	r2,r2,1
 4004824:	20001915 	stw	zero,100(r4)
 4004828:	20000015 	stw	zero,0(r4)
 400482c:	20000115 	stw	zero,4(r4)
 4004830:	20000215 	stw	zero,8(r4)
 4004834:	20800315 	stw	r2,12(r4)
 4004838:	20000415 	stw	zero,16(r4)
 400483c:	20000515 	stw	zero,20(r4)
 4004840:	20000615 	stw	zero,24(r4)
 4004844:	20001705 	stb	zero,92(r4)
 4004848:	20001745 	stb	zero,93(r4)
 400484c:	20001785 	stb	zero,94(r4)
 4004850:	200017c5 	stb	zero,95(r4)
 4004854:	20001805 	stb	zero,96(r4)
 4004858:	20001845 	stb	zero,97(r4)
 400485c:	20001885 	stb	zero,98(r4)
 4004860:	200018c5 	stb	zero,99(r4)
 4004864:	20000c15 	stw	zero,48(r4)
 4004868:	20000d15 	stw	zero,52(r4)
 400486c:	20001115 	stw	zero,68(r4)
 4004870:	20001215 	stw	zero,72(r4)
 4004874:	2005883a 	mov	r2,r4
 4004878:	dfc00417 	ldw	ra,16(sp)
 400487c:	dcc00317 	ldw	r19,12(sp)
 4004880:	dc800217 	ldw	r18,8(sp)
 4004884:	dc400117 	ldw	r17,4(sp)
 4004888:	dc000017 	ldw	r16,0(sp)
 400488c:	dec00504 	addi	sp,sp,20
 4004890:	f800283a 	ret
 4004894:	80800017 	ldw	r2,0(r16)
 4004898:	10000726 	beq	r2,zero,40048b8 <__sfp+0xfc>
 400489c:	11000217 	ldw	r4,8(r2)
 40048a0:	11400117 	ldw	r5,4(r2)
 40048a4:	1021883a 	mov	r16,r2
 40048a8:	003fd306 	br	40047f8 <__sfp+0x3c>
 40048ac:	8009883a 	mov	r4,r16
 40048b0:	40045dc0 	call	40045dc <__sinit.part.0>
 40048b4:	003fcc06 	br	40047e8 <__sfp+0x2c>
 40048b8:	01406b04 	movi	r5,428
 40048bc:	8809883a 	mov	r4,r17
 40048c0:	400512c0 	call	400512c <_malloc_r>
 40048c4:	1025883a 	mov	r18,r2
 40048c8:	10000c26 	beq	r2,zero,40048fc <__sfp+0x140>
 40048cc:	11000304 	addi	r4,r2,12
 40048d0:	11000215 	stw	r4,8(r2)
 40048d4:	000b883a 	mov	r5,zero
 40048d8:	10000015 	stw	zero,0(r2)
 40048dc:	14c00115 	stw	r19,4(r2)
 40048e0:	01806804 	movi	r6,416
 40048e4:	4005adc0 	call	4005adc <memset>
 40048e8:	1009883a 	mov	r4,r2
 40048ec:	84800015 	stw	r18,0(r16)
 40048f0:	014000c4 	movi	r5,3
 40048f4:	9021883a 	mov	r16,r18
 40048f8:	003fc606 	br	4004814 <__sfp+0x58>
 40048fc:	80000015 	stw	zero,0(r16)
 4004900:	00800304 	movi	r2,12
 4004904:	88800015 	stw	r2,0(r17)
 4004908:	0009883a 	mov	r4,zero
 400490c:	003fd906 	br	4004874 <__sfp+0xb8>

04004910 <_cleanup>:
 4004910:	00810074 	movhi	r2,1025
 4004914:	110bdc17 	ldw	r4,12144(r2)
 4004918:	01410074 	movhi	r5,1025
 400491c:	2961f404 	addi	r5,r5,-30768
 4004920:	4004e1c1 	jmpi	4004e1c <_fwalk_reent>

04004924 <__sinit>:
 4004924:	20800e17 	ldw	r2,56(r4)
 4004928:	10000126 	beq	r2,zero,4004930 <__sinit+0xc>
 400492c:	f800283a 	ret
 4004930:	40045dc1 	jmpi	40045dc <__sinit.part.0>

04004934 <__sfp_lock_acquire>:
 4004934:	f800283a 	ret

04004938 <__sfp_lock_release>:
 4004938:	f800283a 	ret

0400493c <__sinit_lock_acquire>:
 400493c:	f800283a 	ret

04004940 <__sinit_lock_release>:
 4004940:	f800283a 	ret

04004944 <__fp_lock_all>:
 4004944:	00810074 	movhi	r2,1025
 4004948:	110bdd17 	ldw	r4,12148(r2)
 400494c:	01410034 	movhi	r5,1024
 4004950:	29517004 	addi	r5,r5,17856
 4004954:	4004d841 	jmpi	4004d84 <_fwalk>

04004958 <__fp_unlock_all>:
 4004958:	00810074 	movhi	r2,1025
 400495c:	110bdd17 	ldw	r4,12148(r2)
 4004960:	01410034 	movhi	r5,1024
 4004964:	29517504 	addi	r5,r5,17876
 4004968:	4004d841 	jmpi	4004d84 <_fwalk>

0400496c <_malloc_trim_r>:
 400496c:	defffb04 	addi	sp,sp,-20
 4004970:	dcc00315 	stw	r19,12(sp)
 4004974:	04c10074 	movhi	r19,1025
 4004978:	dc800215 	stw	r18,8(sp)
 400497c:	dc400115 	stw	r17,4(sp)
 4004980:	dc000015 	stw	r16,0(sp)
 4004984:	dfc00415 	stw	ra,16(sp)
 4004988:	2821883a 	mov	r16,r5
 400498c:	9cc5cd04 	addi	r19,r19,5940
 4004990:	2025883a 	mov	r18,r4
 4004994:	400dd940 	call	400dd94 <__malloc_lock>
 4004998:	98800217 	ldw	r2,8(r19)
 400499c:	14400117 	ldw	r17,4(r2)
 40049a0:	00bfff04 	movi	r2,-4
 40049a4:	88a2703a 	and	r17,r17,r2
 40049a8:	8c21c83a 	sub	r16,r17,r16
 40049ac:	8403fbc4 	addi	r16,r16,4079
 40049b0:	8020d33a 	srli	r16,r16,12
 40049b4:	843fffc4 	addi	r16,r16,-1
 40049b8:	8020933a 	slli	r16,r16,12
 40049bc:	80840008 	cmpgei	r2,r16,4096
 40049c0:	10000626 	beq	r2,zero,40049dc <_malloc_trim_r+0x70>
 40049c4:	000b883a 	mov	r5,zero
 40049c8:	9009883a 	mov	r4,r18
 40049cc:	4006dbc0 	call	4006dbc <_sbrk_r>
 40049d0:	98c00217 	ldw	r3,8(r19)
 40049d4:	1c47883a 	add	r3,r3,r17
 40049d8:	10c00a26 	beq	r2,r3,4004a04 <_malloc_trim_r+0x98>
 40049dc:	9009883a 	mov	r4,r18
 40049e0:	400ddb80 	call	400ddb8 <__malloc_unlock>
 40049e4:	0005883a 	mov	r2,zero
 40049e8:	dfc00417 	ldw	ra,16(sp)
 40049ec:	dcc00317 	ldw	r19,12(sp)
 40049f0:	dc800217 	ldw	r18,8(sp)
 40049f4:	dc400117 	ldw	r17,4(sp)
 40049f8:	dc000017 	ldw	r16,0(sp)
 40049fc:	dec00504 	addi	sp,sp,20
 4004a00:	f800283a 	ret
 4004a04:	040bc83a 	sub	r5,zero,r16
 4004a08:	9009883a 	mov	r4,r18
 4004a0c:	4006dbc0 	call	4006dbc <_sbrk_r>
 4004a10:	10bfffd8 	cmpnei	r2,r2,-1
 4004a14:	10000d26 	beq	r2,zero,4004a4c <_malloc_trim_r+0xe0>
 4004a18:	00810074 	movhi	r2,1025
 4004a1c:	10932817 	ldw	r2,19616(r2)
 4004a20:	98c00217 	ldw	r3,8(r19)
 4004a24:	8c23c83a 	sub	r17,r17,r16
 4004a28:	8c400054 	ori	r17,r17,1
 4004a2c:	1421c83a 	sub	r16,r2,r16
 4004a30:	1c400115 	stw	r17,4(r3)
 4004a34:	00810074 	movhi	r2,1025
 4004a38:	9009883a 	mov	r4,r18
 4004a3c:	14132815 	stw	r16,19616(r2)
 4004a40:	400ddb80 	call	400ddb8 <__malloc_unlock>
 4004a44:	00800044 	movi	r2,1
 4004a48:	003fe706 	br	40049e8 <_malloc_trim_r+0x7c>
 4004a4c:	000b883a 	mov	r5,zero
 4004a50:	9009883a 	mov	r4,r18
 4004a54:	4006dbc0 	call	4006dbc <_sbrk_r>
 4004a58:	99000217 	ldw	r4,8(r19)
 4004a5c:	1107c83a 	sub	r3,r2,r4
 4004a60:	19400410 	cmplti	r5,r3,16
 4004a64:	283fdd1e 	bne	r5,zero,40049dc <_malloc_trim_r+0x70>
 4004a68:	01410074 	movhi	r5,1025
 4004a6c:	294bde17 	ldw	r5,12152(r5)
 4004a70:	18c00054 	ori	r3,r3,1
 4004a74:	20c00115 	stw	r3,4(r4)
 4004a78:	1145c83a 	sub	r2,r2,r5
 4004a7c:	01410074 	movhi	r5,1025
 4004a80:	28932815 	stw	r2,19616(r5)
 4004a84:	003fd506 	br	40049dc <_malloc_trim_r+0x70>

04004a88 <_free_r>:
 4004a88:	28004f26 	beq	r5,zero,4004bc8 <_free_r+0x140>
 4004a8c:	defffd04 	addi	sp,sp,-12
 4004a90:	dc400115 	stw	r17,4(sp)
 4004a94:	dc000015 	stw	r16,0(sp)
 4004a98:	2023883a 	mov	r17,r4
 4004a9c:	2821883a 	mov	r16,r5
 4004aa0:	dfc00215 	stw	ra,8(sp)
 4004aa4:	400dd940 	call	400dd94 <__malloc_lock>
 4004aa8:	81ffff17 	ldw	r7,-4(r16)
 4004aac:	00bfff84 	movi	r2,-2
 4004ab0:	80fffe04 	addi	r3,r16,-8
 4004ab4:	3884703a 	and	r2,r7,r2
 4004ab8:	01010074 	movhi	r4,1025
 4004abc:	188d883a 	add	r6,r3,r2
 4004ac0:	2105cd04 	addi	r4,r4,5940
 4004ac4:	31400117 	ldw	r5,4(r6)
 4004ac8:	22000217 	ldw	r8,8(r4)
 4004acc:	027fff04 	movi	r9,-4
 4004ad0:	2a4a703a 	and	r5,r5,r9
 4004ad4:	41806426 	beq	r8,r6,4004c68 <_free_r+0x1e0>
 4004ad8:	31400115 	stw	r5,4(r6)
 4004adc:	39c0004c 	andi	r7,r7,1
 4004ae0:	3151883a 	add	r8,r6,r5
 4004ae4:	3800281e 	bne	r7,zero,4004b88 <_free_r+0x100>
 4004ae8:	82bffe17 	ldw	r10,-8(r16)
 4004aec:	42000117 	ldw	r8,4(r8)
 4004af0:	01c10074 	movhi	r7,1025
 4004af4:	1a87c83a 	sub	r3,r3,r10
 4004af8:	1a400217 	ldw	r9,8(r3)
 4004afc:	39c5cf04 	addi	r7,r7,5948
 4004b00:	1285883a 	add	r2,r2,r10
 4004b04:	4200004c 	andi	r8,r8,1
 4004b08:	49c04c26 	beq	r9,r7,4004c3c <_free_r+0x1b4>
 4004b0c:	1a800317 	ldw	r10,12(r3)
 4004b10:	4a800315 	stw	r10,12(r9)
 4004b14:	52400215 	stw	r9,8(r10)
 4004b18:	40007126 	beq	r8,zero,4004ce0 <_free_r+0x258>
 4004b1c:	11400054 	ori	r5,r2,1
 4004b20:	19400115 	stw	r5,4(r3)
 4004b24:	30800015 	stw	r2,0(r6)
 4004b28:	11408028 	cmpgeui	r5,r2,512
 4004b2c:	28002c1e 	bne	r5,zero,4004be0 <_free_r+0x158>
 4004b30:	100ad0fa 	srli	r5,r2,3
 4004b34:	100cd17a 	srli	r6,r2,5
 4004b38:	00800044 	movi	r2,1
 4004b3c:	29400044 	addi	r5,r5,1
 4004b40:	280a90fa 	slli	r5,r5,3
 4004b44:	21c00117 	ldw	r7,4(r4)
 4004b48:	1184983a 	sll	r2,r2,r6
 4004b4c:	214b883a 	add	r5,r4,r5
 4004b50:	29800017 	ldw	r6,0(r5)
 4004b54:	11c4b03a 	or	r2,r2,r7
 4004b58:	29fffe04 	addi	r7,r5,-8
 4004b5c:	19c00315 	stw	r7,12(r3)
 4004b60:	19800215 	stw	r6,8(r3)
 4004b64:	20800115 	stw	r2,4(r4)
 4004b68:	28c00015 	stw	r3,0(r5)
 4004b6c:	30c00315 	stw	r3,12(r6)
 4004b70:	8809883a 	mov	r4,r17
 4004b74:	dfc00217 	ldw	ra,8(sp)
 4004b78:	dc400117 	ldw	r17,4(sp)
 4004b7c:	dc000017 	ldw	r16,0(sp)
 4004b80:	dec00304 	addi	sp,sp,12
 4004b84:	400ddb81 	jmpi	400ddb8 <__malloc_unlock>
 4004b88:	41c00117 	ldw	r7,4(r8)
 4004b8c:	39c0004c 	andi	r7,r7,1
 4004b90:	38000e1e 	bne	r7,zero,4004bcc <_free_r+0x144>
 4004b94:	01c10074 	movhi	r7,1025
 4004b98:	1145883a 	add	r2,r2,r5
 4004b9c:	39c5cf04 	addi	r7,r7,5948
 4004ba0:	31400217 	ldw	r5,8(r6)
 4004ba4:	12400054 	ori	r9,r2,1
 4004ba8:	1891883a 	add	r8,r3,r2
 4004bac:	29c05226 	beq	r5,r7,4004cf8 <_free_r+0x270>
 4004bb0:	31800317 	ldw	r6,12(r6)
 4004bb4:	29800315 	stw	r6,12(r5)
 4004bb8:	31400215 	stw	r5,8(r6)
 4004bbc:	1a400115 	stw	r9,4(r3)
 4004bc0:	40800015 	stw	r2,0(r8)
 4004bc4:	003fd806 	br	4004b28 <_free_r+0xa0>
 4004bc8:	f800283a 	ret
 4004bcc:	11400054 	ori	r5,r2,1
 4004bd0:	817fff15 	stw	r5,-4(r16)
 4004bd4:	30800015 	stw	r2,0(r6)
 4004bd8:	11408028 	cmpgeui	r5,r2,512
 4004bdc:	283fd426 	beq	r5,zero,4004b30 <_free_r+0xa8>
 4004be0:	100ad27a 	srli	r5,r2,9
 4004be4:	29800168 	cmpgeui	r6,r5,5
 4004be8:	3000341e 	bne	r6,zero,4004cbc <_free_r+0x234>
 4004bec:	100ad1ba 	srli	r5,r2,6
 4004bf0:	29800e44 	addi	r6,r5,57
 4004bf4:	300c90fa 	slli	r6,r6,3
 4004bf8:	29c00e04 	addi	r7,r5,56
 4004bfc:	218d883a 	add	r6,r4,r6
 4004c00:	31400017 	ldw	r5,0(r6)
 4004c04:	31bffe04 	addi	r6,r6,-8
 4004c08:	31404226 	beq	r6,r5,4004d14 <_free_r+0x28c>
 4004c0c:	01ffff04 	movi	r7,-4
 4004c10:	29000117 	ldw	r4,4(r5)
 4004c14:	21c8703a 	and	r4,r4,r7
 4004c18:	1100022e 	bgeu	r2,r4,4004c24 <_free_r+0x19c>
 4004c1c:	29400217 	ldw	r5,8(r5)
 4004c20:	317ffb1e 	bne	r6,r5,4004c10 <_free_r+0x188>
 4004c24:	29800317 	ldw	r6,12(r5)
 4004c28:	19800315 	stw	r6,12(r3)
 4004c2c:	19400215 	stw	r5,8(r3)
 4004c30:	30c00215 	stw	r3,8(r6)
 4004c34:	28c00315 	stw	r3,12(r5)
 4004c38:	003fcd06 	br	4004b70 <_free_r+0xe8>
 4004c3c:	40004d1e 	bne	r8,zero,4004d74 <_free_r+0x2ec>
 4004c40:	31000317 	ldw	r4,12(r6)
 4004c44:	31800217 	ldw	r6,8(r6)
 4004c48:	2885883a 	add	r2,r5,r2
 4004c4c:	11400054 	ori	r5,r2,1
 4004c50:	31000315 	stw	r4,12(r6)
 4004c54:	21800215 	stw	r6,8(r4)
 4004c58:	19400115 	stw	r5,4(r3)
 4004c5c:	1887883a 	add	r3,r3,r2
 4004c60:	18800015 	stw	r2,0(r3)
 4004c64:	003fc206 	br	4004b70 <_free_r+0xe8>
 4004c68:	39c0004c 	andi	r7,r7,1
 4004c6c:	1145883a 	add	r2,r2,r5
 4004c70:	3800071e 	bne	r7,zero,4004c90 <_free_r+0x208>
 4004c74:	81fffe17 	ldw	r7,-8(r16)
 4004c78:	19c7c83a 	sub	r3,r3,r7
 4004c7c:	19400317 	ldw	r5,12(r3)
 4004c80:	19800217 	ldw	r6,8(r3)
 4004c84:	11c5883a 	add	r2,r2,r7
 4004c88:	31400315 	stw	r5,12(r6)
 4004c8c:	29800215 	stw	r6,8(r5)
 4004c90:	01410074 	movhi	r5,1025
 4004c94:	11800054 	ori	r6,r2,1
 4004c98:	294bdf17 	ldw	r5,12156(r5)
 4004c9c:	19800115 	stw	r6,4(r3)
 4004ca0:	20c00215 	stw	r3,8(r4)
 4004ca4:	117fb236 	bltu	r2,r5,4004b70 <_free_r+0xe8>
 4004ca8:	00810074 	movhi	r2,1025
 4004cac:	11531e17 	ldw	r5,19576(r2)
 4004cb0:	8809883a 	mov	r4,r17
 4004cb4:	400496c0 	call	400496c <_malloc_trim_r>
 4004cb8:	003fad06 	br	4004b70 <_free_r+0xe8>
 4004cbc:	29800568 	cmpgeui	r6,r5,21
 4004cc0:	30000926 	beq	r6,zero,4004ce8 <_free_r+0x260>
 4004cc4:	29801568 	cmpgeui	r6,r5,85
 4004cc8:	3000191e 	bne	r6,zero,4004d30 <_free_r+0x2a8>
 4004ccc:	100ad33a 	srli	r5,r2,12
 4004cd0:	29801bc4 	addi	r6,r5,111
 4004cd4:	300c90fa 	slli	r6,r6,3
 4004cd8:	29c01b84 	addi	r7,r5,110
 4004cdc:	003fc706 	br	4004bfc <_free_r+0x174>
 4004ce0:	1145883a 	add	r2,r2,r5
 4004ce4:	003fae06 	br	4004ba0 <_free_r+0x118>
 4004ce8:	29801704 	addi	r6,r5,92
 4004cec:	300c90fa 	slli	r6,r6,3
 4004cf0:	29c016c4 	addi	r7,r5,91
 4004cf4:	003fc106 	br	4004bfc <_free_r+0x174>
 4004cf8:	20c00515 	stw	r3,20(r4)
 4004cfc:	20c00415 	stw	r3,16(r4)
 4004d00:	19c00315 	stw	r7,12(r3)
 4004d04:	19c00215 	stw	r7,8(r3)
 4004d08:	1a400115 	stw	r9,4(r3)
 4004d0c:	40800015 	stw	r2,0(r8)
 4004d10:	003f9706 	br	4004b70 <_free_r+0xe8>
 4004d14:	380fd0ba 	srai	r7,r7,2
 4004d18:	00800044 	movi	r2,1
 4004d1c:	22000117 	ldw	r8,4(r4)
 4004d20:	11ce983a 	sll	r7,r2,r7
 4004d24:	3a0eb03a 	or	r7,r7,r8
 4004d28:	21c00115 	stw	r7,4(r4)
 4004d2c:	003fbe06 	br	4004c28 <_free_r+0x1a0>
 4004d30:	29805568 	cmpgeui	r6,r5,341
 4004d34:	3000051e 	bne	r6,zero,4004d4c <_free_r+0x2c4>
 4004d38:	100ad3fa 	srli	r5,r2,15
 4004d3c:	29801e04 	addi	r6,r5,120
 4004d40:	300c90fa 	slli	r6,r6,3
 4004d44:	29c01dc4 	addi	r7,r5,119
 4004d48:	003fac06 	br	4004bfc <_free_r+0x174>
 4004d4c:	29415568 	cmpgeui	r5,r5,1365
 4004d50:	2800051e 	bne	r5,zero,4004d68 <_free_r+0x2e0>
 4004d54:	100ad4ba 	srli	r5,r2,18
 4004d58:	29801f44 	addi	r6,r5,125
 4004d5c:	300c90fa 	slli	r6,r6,3
 4004d60:	29c01f04 	addi	r7,r5,124
 4004d64:	003fa506 	br	4004bfc <_free_r+0x174>
 4004d68:	0180fe04 	movi	r6,1016
 4004d6c:	01c01f84 	movi	r7,126
 4004d70:	003fa206 	br	4004bfc <_free_r+0x174>
 4004d74:	11000054 	ori	r4,r2,1
 4004d78:	19000115 	stw	r4,4(r3)
 4004d7c:	30800015 	stw	r2,0(r6)
 4004d80:	003f7b06 	br	4004b70 <_free_r+0xe8>

04004d84 <_fwalk>:
 4004d84:	defffa04 	addi	sp,sp,-24
 4004d88:	dd000415 	stw	r20,16(sp)
 4004d8c:	dcc00315 	stw	r19,12(sp)
 4004d90:	dc800215 	stw	r18,8(sp)
 4004d94:	dfc00515 	stw	ra,20(sp)
 4004d98:	dc400115 	stw	r17,4(sp)
 4004d9c:	dc000015 	stw	r16,0(sp)
 4004da0:	2827883a 	mov	r19,r5
 4004da4:	2480b804 	addi	r18,r4,736
 4004da8:	0029883a 	mov	r20,zero
 4004dac:	94400117 	ldw	r17,4(r18)
 4004db0:	94000217 	ldw	r16,8(r18)
 4004db4:	8c7fffc4 	addi	r17,r17,-1
 4004db8:	88000d16 	blt	r17,zero,4004df0 <_fwalk+0x6c>
 4004dbc:	8080030b 	ldhu	r2,12(r16)
 4004dc0:	8c7fffc4 	addi	r17,r17,-1
 4004dc4:	108000b0 	cmpltui	r2,r2,2
 4004dc8:	1000061e 	bne	r2,zero,4004de4 <_fwalk+0x60>
 4004dcc:	8080038f 	ldh	r2,14(r16)
 4004dd0:	8009883a 	mov	r4,r16
 4004dd4:	10bfffe0 	cmpeqi	r2,r2,-1
 4004dd8:	1000021e 	bne	r2,zero,4004de4 <_fwalk+0x60>
 4004ddc:	983ee83a 	callr	r19
 4004de0:	a0a8b03a 	or	r20,r20,r2
 4004de4:	88bfffd8 	cmpnei	r2,r17,-1
 4004de8:	84001a04 	addi	r16,r16,104
 4004dec:	103ff31e 	bne	r2,zero,4004dbc <_fwalk+0x38>
 4004df0:	94800017 	ldw	r18,0(r18)
 4004df4:	903fed1e 	bne	r18,zero,4004dac <_fwalk+0x28>
 4004df8:	a005883a 	mov	r2,r20
 4004dfc:	dfc00517 	ldw	ra,20(sp)
 4004e00:	dd000417 	ldw	r20,16(sp)
 4004e04:	dcc00317 	ldw	r19,12(sp)
 4004e08:	dc800217 	ldw	r18,8(sp)
 4004e0c:	dc400117 	ldw	r17,4(sp)
 4004e10:	dc000017 	ldw	r16,0(sp)
 4004e14:	dec00604 	addi	sp,sp,24
 4004e18:	f800283a 	ret

04004e1c <_fwalk_reent>:
 4004e1c:	defff904 	addi	sp,sp,-28
 4004e20:	dd400515 	stw	r21,20(sp)
 4004e24:	dd000415 	stw	r20,16(sp)
 4004e28:	dcc00315 	stw	r19,12(sp)
 4004e2c:	dc800215 	stw	r18,8(sp)
 4004e30:	dfc00615 	stw	ra,24(sp)
 4004e34:	dc400115 	stw	r17,4(sp)
 4004e38:	dc000015 	stw	r16,0(sp)
 4004e3c:	202b883a 	mov	r21,r4
 4004e40:	2827883a 	mov	r19,r5
 4004e44:	2480b804 	addi	r18,r4,736
 4004e48:	0029883a 	mov	r20,zero
 4004e4c:	94400117 	ldw	r17,4(r18)
 4004e50:	94000217 	ldw	r16,8(r18)
 4004e54:	8c7fffc4 	addi	r17,r17,-1
 4004e58:	88000e16 	blt	r17,zero,4004e94 <_fwalk_reent+0x78>
 4004e5c:	8080030b 	ldhu	r2,12(r16)
 4004e60:	8c7fffc4 	addi	r17,r17,-1
 4004e64:	108000b0 	cmpltui	r2,r2,2
 4004e68:	1000071e 	bne	r2,zero,4004e88 <_fwalk_reent+0x6c>
 4004e6c:	8080038f 	ldh	r2,14(r16)
 4004e70:	800b883a 	mov	r5,r16
 4004e74:	a809883a 	mov	r4,r21
 4004e78:	10bfffe0 	cmpeqi	r2,r2,-1
 4004e7c:	1000021e 	bne	r2,zero,4004e88 <_fwalk_reent+0x6c>
 4004e80:	983ee83a 	callr	r19
 4004e84:	a0a8b03a 	or	r20,r20,r2
 4004e88:	88bfffd8 	cmpnei	r2,r17,-1
 4004e8c:	84001a04 	addi	r16,r16,104
 4004e90:	103ff21e 	bne	r2,zero,4004e5c <_fwalk_reent+0x40>
 4004e94:	94800017 	ldw	r18,0(r18)
 4004e98:	903fec1e 	bne	r18,zero,4004e4c <_fwalk_reent+0x30>
 4004e9c:	a005883a 	mov	r2,r20
 4004ea0:	dfc00617 	ldw	ra,24(sp)
 4004ea4:	dd400517 	ldw	r21,20(sp)
 4004ea8:	dd000417 	ldw	r20,16(sp)
 4004eac:	dcc00317 	ldw	r19,12(sp)
 4004eb0:	dc800217 	ldw	r18,8(sp)
 4004eb4:	dc400117 	ldw	r17,4(sp)
 4004eb8:	dc000017 	ldw	r16,0(sp)
 4004ebc:	dec00704 	addi	sp,sp,28
 4004ec0:	f800283a 	ret

04004ec4 <__localeconv_l>:
 4004ec4:	20803c04 	addi	r2,r4,240
 4004ec8:	f800283a 	ret

04004ecc <_localeconv_r>:
 4004ecc:	00810074 	movhi	r2,1025
 4004ed0:	10870b04 	addi	r2,r2,7212
 4004ed4:	f800283a 	ret

04004ed8 <localeconv>:
 4004ed8:	00810074 	movhi	r2,1025
 4004edc:	10870b04 	addi	r2,r2,7212
 4004ee0:	f800283a 	ret

04004ee4 <__smakebuf_r>:
 4004ee4:	2880030b 	ldhu	r2,12(r5)
 4004ee8:	deffe804 	addi	sp,sp,-96
 4004eec:	dc001215 	stw	r16,72(sp)
 4004ef0:	dfc01715 	stw	ra,92(sp)
 4004ef4:	dd001615 	stw	r20,88(sp)
 4004ef8:	dcc01515 	stw	r19,84(sp)
 4004efc:	dc801415 	stw	r18,80(sp)
 4004f00:	dc401315 	stw	r17,76(sp)
 4004f04:	10c0008c 	andi	r3,r2,2
 4004f08:	2821883a 	mov	r16,r5
 4004f0c:	18000d26 	beq	r3,zero,4004f44 <__smakebuf_r+0x60>
 4004f10:	288010c4 	addi	r2,r5,67
 4004f14:	28800015 	stw	r2,0(r5)
 4004f18:	28800415 	stw	r2,16(r5)
 4004f1c:	00800044 	movi	r2,1
 4004f20:	28800515 	stw	r2,20(r5)
 4004f24:	dfc01717 	ldw	ra,92(sp)
 4004f28:	dd001617 	ldw	r20,88(sp)
 4004f2c:	dcc01517 	ldw	r19,84(sp)
 4004f30:	dc801417 	ldw	r18,80(sp)
 4004f34:	dc401317 	ldw	r17,76(sp)
 4004f38:	dc001217 	ldw	r16,72(sp)
 4004f3c:	dec01804 	addi	sp,sp,96
 4004f40:	f800283a 	ret
 4004f44:	2940038f 	ldh	r5,14(r5)
 4004f48:	2023883a 	mov	r17,r4
 4004f4c:	28002816 	blt	r5,zero,4004ff0 <__smakebuf_r+0x10c>
 4004f50:	d80d883a 	mov	r6,sp
 4004f54:	4008b080 	call	4008b08 <_fstat_r>
 4004f58:	10002416 	blt	r2,zero,4004fec <__smakebuf_r+0x108>
 4004f5c:	d8800117 	ldw	r2,4(sp)
 4004f60:	10bc000c 	andi	r2,r2,61440
 4004f64:	10880018 	cmpnei	r2,r2,8192
 4004f68:	1000461e 	bne	r2,zero,4005084 <__smakebuf_r+0x1a0>
 4004f6c:	8140038f 	ldh	r5,14(r16)
 4004f70:	8809883a 	mov	r4,r17
 4004f74:	40090300 	call	4009030 <_isatty_r>
 4004f78:	10003e26 	beq	r2,zero,4005074 <__smakebuf_r+0x190>
 4004f7c:	8080030b 	ldhu	r2,12(r16)
 4004f80:	80c010c4 	addi	r3,r16,67
 4004f84:	80c00015 	stw	r3,0(r16)
 4004f88:	10800054 	ori	r2,r2,1
 4004f8c:	8080030d 	sth	r2,12(r16)
 4004f90:	00800044 	movi	r2,1
 4004f94:	80c00415 	stw	r3,16(r16)
 4004f98:	80800515 	stw	r2,20(r16)
 4004f9c:	04c00044 	movi	r19,1
 4004fa0:	05010004 	movi	r20,1024
 4004fa4:	04820004 	movi	r18,2048
 4004fa8:	a00b883a 	mov	r5,r20
 4004fac:	8809883a 	mov	r4,r17
 4004fb0:	400512c0 	call	400512c <_malloc_r>
 4004fb4:	10001726 	beq	r2,zero,4005014 <__smakebuf_r+0x130>
 4004fb8:	80c0030b 	ldhu	r3,12(r16)
 4004fbc:	01010034 	movhi	r4,1024
 4004fc0:	21117204 	addi	r4,r4,17864
 4004fc4:	89000f15 	stw	r4,60(r17)
 4004fc8:	18c02014 	ori	r3,r3,128
 4004fcc:	80c0030d 	sth	r3,12(r16)
 4004fd0:	80800015 	stw	r2,0(r16)
 4004fd4:	80800415 	stw	r2,16(r16)
 4004fd8:	85000515 	stw	r20,20(r16)
 4004fdc:	98001d1e 	bne	r19,zero,4005054 <__smakebuf_r+0x170>
 4004fe0:	90c6b03a 	or	r3,r18,r3
 4004fe4:	80c0030d 	sth	r3,12(r16)
 4004fe8:	003fce06 	br	4004f24 <__smakebuf_r+0x40>
 4004fec:	8080030b 	ldhu	r2,12(r16)
 4004ff0:	1080200c 	andi	r2,r2,128
 4004ff4:	0027883a 	mov	r19,zero
 4004ff8:	10001326 	beq	r2,zero,4005048 <__smakebuf_r+0x164>
 4004ffc:	05001004 	movi	r20,64
 4005000:	a00b883a 	mov	r5,r20
 4005004:	8809883a 	mov	r4,r17
 4005008:	0025883a 	mov	r18,zero
 400500c:	400512c0 	call	400512c <_malloc_r>
 4005010:	103fe91e 	bne	r2,zero,4004fb8 <__smakebuf_r+0xd4>
 4005014:	8080030b 	ldhu	r2,12(r16)
 4005018:	10c0800c 	andi	r3,r2,512
 400501c:	183fc11e 	bne	r3,zero,4004f24 <__smakebuf_r+0x40>
 4005020:	00ffff04 	movi	r3,-4
 4005024:	10c4703a 	and	r2,r2,r3
 4005028:	10800094 	ori	r2,r2,2
 400502c:	80c010c4 	addi	r3,r16,67
 4005030:	8080030d 	sth	r2,12(r16)
 4005034:	00800044 	movi	r2,1
 4005038:	80c00015 	stw	r3,0(r16)
 400503c:	80c00415 	stw	r3,16(r16)
 4005040:	80800515 	stw	r2,20(r16)
 4005044:	003fb706 	br	4004f24 <__smakebuf_r+0x40>
 4005048:	05010004 	movi	r20,1024
 400504c:	0025883a 	mov	r18,zero
 4005050:	003fd506 	br	4004fa8 <__smakebuf_r+0xc4>
 4005054:	8140038f 	ldh	r5,14(r16)
 4005058:	8809883a 	mov	r4,r17
 400505c:	40090300 	call	4009030 <_isatty_r>
 4005060:	80c0030b 	ldhu	r3,12(r16)
 4005064:	103fde26 	beq	r2,zero,4004fe0 <__smakebuf_r+0xfc>
 4005068:	18ffff0c 	andi	r3,r3,65532
 400506c:	18c00054 	ori	r3,r3,1
 4005070:	003fdb06 	br	4004fe0 <__smakebuf_r+0xfc>
 4005074:	04c00044 	movi	r19,1
 4005078:	05010004 	movi	r20,1024
 400507c:	04820004 	movi	r18,2048
 4005080:	003fc906 	br	4004fa8 <__smakebuf_r+0xc4>
 4005084:	0027883a 	mov	r19,zero
 4005088:	05010004 	movi	r20,1024
 400508c:	04820004 	movi	r18,2048
 4005090:	003fc506 	br	4004fa8 <__smakebuf_r+0xc4>

04005094 <__swhatbuf_r>:
 4005094:	deffea04 	addi	sp,sp,-88
 4005098:	dc001215 	stw	r16,72(sp)
 400509c:	2821883a 	mov	r16,r5
 40050a0:	2940038f 	ldh	r5,14(r5)
 40050a4:	dc801415 	stw	r18,80(sp)
 40050a8:	dc401315 	stw	r17,76(sp)
 40050ac:	dfc01515 	stw	ra,84(sp)
 40050b0:	3023883a 	mov	r17,r6
 40050b4:	3825883a 	mov	r18,r7
 40050b8:	28001016 	blt	r5,zero,40050fc <__swhatbuf_r+0x68>
 40050bc:	d80d883a 	mov	r6,sp
 40050c0:	4008b080 	call	4008b08 <_fstat_r>
 40050c4:	10000d16 	blt	r2,zero,40050fc <__swhatbuf_r+0x68>
 40050c8:	d8c00117 	ldw	r3,4(sp)
 40050cc:	00820004 	movi	r2,2048
 40050d0:	18fc000c 	andi	r3,r3,61440
 40050d4:	18c80020 	cmpeqi	r3,r3,8192
 40050d8:	90c00015 	stw	r3,0(r18)
 40050dc:	00c10004 	movi	r3,1024
 40050e0:	88c00015 	stw	r3,0(r17)
 40050e4:	dfc01517 	ldw	ra,84(sp)
 40050e8:	dc801417 	ldw	r18,80(sp)
 40050ec:	dc401317 	ldw	r17,76(sp)
 40050f0:	dc001217 	ldw	r16,72(sp)
 40050f4:	dec01604 	addi	sp,sp,88
 40050f8:	f800283a 	ret
 40050fc:	8080030b 	ldhu	r2,12(r16)
 4005100:	90000015 	stw	zero,0(r18)
 4005104:	1080200c 	andi	r2,r2,128
 4005108:	10000426 	beq	r2,zero,400511c <__swhatbuf_r+0x88>
 400510c:	00801004 	movi	r2,64
 4005110:	88800015 	stw	r2,0(r17)
 4005114:	0005883a 	mov	r2,zero
 4005118:	003ff206 	br	40050e4 <__swhatbuf_r+0x50>
 400511c:	00810004 	movi	r2,1024
 4005120:	88800015 	stw	r2,0(r17)
 4005124:	0005883a 	mov	r2,zero
 4005128:	003fee06 	br	40050e4 <__swhatbuf_r+0x50>

0400512c <_malloc_r>:
 400512c:	defff604 	addi	sp,sp,-40
 4005130:	dc400115 	stw	r17,4(sp)
 4005134:	2c4002c4 	addi	r17,r5,11
 4005138:	dc800215 	stw	r18,8(sp)
 400513c:	dfc00915 	stw	ra,36(sp)
 4005140:	df000815 	stw	fp,32(sp)
 4005144:	ddc00715 	stw	r23,28(sp)
 4005148:	dd800615 	stw	r22,24(sp)
 400514c:	dd400515 	stw	r21,20(sp)
 4005150:	dd000415 	stw	r20,16(sp)
 4005154:	dcc00315 	stw	r19,12(sp)
 4005158:	dc000015 	stw	r16,0(sp)
 400515c:	888005e8 	cmpgeui	r2,r17,23
 4005160:	2025883a 	mov	r18,r4
 4005164:	10001b1e 	bne	r2,zero,40051d4 <_malloc_r+0xa8>
 4005168:	29400468 	cmpgeui	r5,r5,17
 400516c:	2800821e 	bne	r5,zero,4005378 <_malloc_r+0x24c>
 4005170:	400dd940 	call	400dd94 <__malloc_lock>
 4005174:	04400404 	movi	r17,16
 4005178:	00800604 	movi	r2,24
 400517c:	01c00084 	movi	r7,2
 4005180:	04c10074 	movhi	r19,1025
 4005184:	9cc5cd04 	addi	r19,r19,5940
 4005188:	9885883a 	add	r2,r19,r2
 400518c:	14000117 	ldw	r16,4(r2)
 4005190:	10fffe04 	addi	r3,r2,-8
 4005194:	80c08b26 	beq	r16,r3,40053c4 <_malloc_r+0x298>
 4005198:	80800117 	ldw	r2,4(r16)
 400519c:	81000317 	ldw	r4,12(r16)
 40051a0:	00ffff04 	movi	r3,-4
 40051a4:	10c4703a 	and	r2,r2,r3
 40051a8:	81400217 	ldw	r5,8(r16)
 40051ac:	8085883a 	add	r2,r16,r2
 40051b0:	10c00117 	ldw	r3,4(r2)
 40051b4:	29000315 	stw	r4,12(r5)
 40051b8:	21400215 	stw	r5,8(r4)
 40051bc:	18c00054 	ori	r3,r3,1
 40051c0:	10c00115 	stw	r3,4(r2)
 40051c4:	9009883a 	mov	r4,r18
 40051c8:	400ddb80 	call	400ddb8 <__malloc_unlock>
 40051cc:	80800204 	addi	r2,r16,8
 40051d0:	00006c06 	br	4005384 <_malloc_r+0x258>
 40051d4:	00bffe04 	movi	r2,-8
 40051d8:	88a2703a 	and	r17,r17,r2
 40051dc:	88006616 	blt	r17,zero,4005378 <_malloc_r+0x24c>
 40051e0:	89406536 	bltu	r17,r5,4005378 <_malloc_r+0x24c>
 40051e4:	400dd940 	call	400dd94 <__malloc_lock>
 40051e8:	88807e28 	cmpgeui	r2,r17,504
 40051ec:	10012226 	beq	r2,zero,4005678 <_malloc_r+0x54c>
 40051f0:	8804d27a 	srli	r2,r17,9
 40051f4:	10006f26 	beq	r2,zero,40053b4 <_malloc_r+0x288>
 40051f8:	10c00168 	cmpgeui	r3,r2,5
 40051fc:	1800fe1e 	bne	r3,zero,40055f8 <_malloc_r+0x4cc>
 4005200:	8804d1ba 	srli	r2,r17,6
 4005204:	11c00e44 	addi	r7,r2,57
 4005208:	380890fa 	slli	r4,r7,3
 400520c:	12000e04 	addi	r8,r2,56
 4005210:	04c10074 	movhi	r19,1025
 4005214:	9cc5cd04 	addi	r19,r19,5940
 4005218:	9909883a 	add	r4,r19,r4
 400521c:	24000117 	ldw	r16,4(r4)
 4005220:	213ffe04 	addi	r4,r4,-8
 4005224:	24000b26 	beq	r4,r16,4005254 <_malloc_r+0x128>
 4005228:	01bfff04 	movi	r6,-4
 400522c:	00000306 	br	400523c <_malloc_r+0x110>
 4005230:	1800d60e 	bge	r3,zero,400558c <_malloc_r+0x460>
 4005234:	84000317 	ldw	r16,12(r16)
 4005238:	24000626 	beq	r4,r16,4005254 <_malloc_r+0x128>
 400523c:	80800117 	ldw	r2,4(r16)
 4005240:	1184703a 	and	r2,r2,r6
 4005244:	1447c83a 	sub	r3,r2,r17
 4005248:	19400408 	cmpgei	r5,r3,16
 400524c:	283ff826 	beq	r5,zero,4005230 <_malloc_r+0x104>
 4005250:	400f883a 	mov	r7,r8
 4005254:	9c000417 	ldw	r16,16(r19)
 4005258:	02410074 	movhi	r9,1025
 400525c:	4a45cf04 	addi	r9,r9,5948
 4005260:	82405f26 	beq	r16,r9,40053e0 <_malloc_r+0x2b4>
 4005264:	80c00117 	ldw	r3,4(r16)
 4005268:	00bfff04 	movi	r2,-4
 400526c:	1884703a 	and	r2,r3,r2
 4005270:	1447c83a 	sub	r3,r2,r17
 4005274:	19000410 	cmplti	r4,r3,16
 4005278:	20010a26 	beq	r4,zero,40056a4 <_malloc_r+0x578>
 400527c:	9a400515 	stw	r9,20(r19)
 4005280:	9a400415 	stw	r9,16(r19)
 4005284:	1800ff0e 	bge	r3,zero,4005684 <_malloc_r+0x558>
 4005288:	10c08028 	cmpgeui	r3,r2,512
 400528c:	1800c11e 	bne	r3,zero,4005594 <_malloc_r+0x468>
 4005290:	1006d0fa 	srli	r3,r2,3
 4005294:	1008d17a 	srli	r4,r2,5
 4005298:	00800044 	movi	r2,1
 400529c:	18c00044 	addi	r3,r3,1
 40052a0:	180690fa 	slli	r3,r3,3
 40052a4:	99400117 	ldw	r5,4(r19)
 40052a8:	1104983a 	sll	r2,r2,r4
 40052ac:	98c7883a 	add	r3,r19,r3
 40052b0:	19000017 	ldw	r4,0(r3)
 40052b4:	1144b03a 	or	r2,r2,r5
 40052b8:	197ffe04 	addi	r5,r3,-8
 40052bc:	81400315 	stw	r5,12(r16)
 40052c0:	81000215 	stw	r4,8(r16)
 40052c4:	98800115 	stw	r2,4(r19)
 40052c8:	1c000015 	stw	r16,0(r3)
 40052cc:	24000315 	stw	r16,12(r4)
 40052d0:	3807d0ba 	srai	r3,r7,2
 40052d4:	01000044 	movi	r4,1
 40052d8:	20c8983a 	sll	r4,r4,r3
 40052dc:	11004536 	bltu	r2,r4,40053f4 <_malloc_r+0x2c8>
 40052e0:	2086703a 	and	r3,r4,r2
 40052e4:	18000a1e 	bne	r3,zero,4005310 <_malloc_r+0x1e4>
 40052e8:	00ffff04 	movi	r3,-4
 40052ec:	2109883a 	add	r4,r4,r4
 40052f0:	38ce703a 	and	r7,r7,r3
 40052f4:	2086703a 	and	r3,r4,r2
 40052f8:	39c00104 	addi	r7,r7,4
 40052fc:	1800041e 	bne	r3,zero,4005310 <_malloc_r+0x1e4>
 4005300:	2109883a 	add	r4,r4,r4
 4005304:	2086703a 	and	r3,r4,r2
 4005308:	39c00104 	addi	r7,r7,4
 400530c:	183ffc26 	beq	r3,zero,4005300 <_malloc_r+0x1d4>
 4005310:	02bfff04 	movi	r10,-4
 4005314:	381690fa 	slli	r11,r7,3
 4005318:	3819883a 	mov	r12,r7
 400531c:	9ad7883a 	add	r11,r19,r11
 4005320:	5811883a 	mov	r8,r11
 4005324:	40800317 	ldw	r2,12(r8)
 4005328:	4080bc26 	beq	r8,r2,400561c <_malloc_r+0x4f0>
 400532c:	10c00117 	ldw	r3,4(r2)
 4005330:	1021883a 	mov	r16,r2
 4005334:	10800317 	ldw	r2,12(r2)
 4005338:	1a86703a 	and	r3,r3,r10
 400533c:	1c4bc83a 	sub	r5,r3,r17
 4005340:	29800410 	cmplti	r6,r5,16
 4005344:	3000ba26 	beq	r6,zero,4005630 <_malloc_r+0x504>
 4005348:	283ff716 	blt	r5,zero,4005328 <_malloc_r+0x1fc>
 400534c:	80c7883a 	add	r3,r16,r3
 4005350:	19400117 	ldw	r5,4(r3)
 4005354:	81800217 	ldw	r6,8(r16)
 4005358:	9009883a 	mov	r4,r18
 400535c:	29400054 	ori	r5,r5,1
 4005360:	19400115 	stw	r5,4(r3)
 4005364:	30800315 	stw	r2,12(r6)
 4005368:	11800215 	stw	r6,8(r2)
 400536c:	400ddb80 	call	400ddb8 <__malloc_unlock>
 4005370:	80800204 	addi	r2,r16,8
 4005374:	00000306 	br	4005384 <_malloc_r+0x258>
 4005378:	00800304 	movi	r2,12
 400537c:	90800015 	stw	r2,0(r18)
 4005380:	0005883a 	mov	r2,zero
 4005384:	dfc00917 	ldw	ra,36(sp)
 4005388:	df000817 	ldw	fp,32(sp)
 400538c:	ddc00717 	ldw	r23,28(sp)
 4005390:	dd800617 	ldw	r22,24(sp)
 4005394:	dd400517 	ldw	r21,20(sp)
 4005398:	dd000417 	ldw	r20,16(sp)
 400539c:	dcc00317 	ldw	r19,12(sp)
 40053a0:	dc800217 	ldw	r18,8(sp)
 40053a4:	dc400117 	ldw	r17,4(sp)
 40053a8:	dc000017 	ldw	r16,0(sp)
 40053ac:	dec00a04 	addi	sp,sp,40
 40053b0:	f800283a 	ret
 40053b4:	01008004 	movi	r4,512
 40053b8:	01c01004 	movi	r7,64
 40053bc:	02000fc4 	movi	r8,63
 40053c0:	003f9306 	br	4005210 <_malloc_r+0xe4>
 40053c4:	14000317 	ldw	r16,12(r2)
 40053c8:	39c00084 	addi	r7,r7,2
 40053cc:	143f721e 	bne	r2,r16,4005198 <_malloc_r+0x6c>
 40053d0:	9c000417 	ldw	r16,16(r19)
 40053d4:	02410074 	movhi	r9,1025
 40053d8:	4a45cf04 	addi	r9,r9,5948
 40053dc:	827fa11e 	bne	r16,r9,4005264 <_malloc_r+0x138>
 40053e0:	3807d0ba 	srai	r3,r7,2
 40053e4:	01000044 	movi	r4,1
 40053e8:	98800117 	ldw	r2,4(r19)
 40053ec:	20c8983a 	sll	r4,r4,r3
 40053f0:	113fbb2e 	bgeu	r2,r4,40052e0 <_malloc_r+0x1b4>
 40053f4:	9c000217 	ldw	r16,8(r19)
 40053f8:	00bfff04 	movi	r2,-4
 40053fc:	85400117 	ldw	r21,4(r16)
 4005400:	a8ac703a 	and	r22,r21,r2
 4005404:	b4400336 	bltu	r22,r17,4005414 <_malloc_r+0x2e8>
 4005408:	b445c83a 	sub	r2,r22,r17
 400540c:	10c00408 	cmpgei	r3,r2,16
 4005410:	1800541e 	bne	r3,zero,4005564 <_malloc_r+0x438>
 4005414:	00810074 	movhi	r2,1025
 4005418:	108bde17 	ldw	r2,12152(r2)
 400541c:	00c10074 	movhi	r3,1025
 4005420:	1d531e17 	ldw	r21,19576(r3)
 4005424:	10bfffd8 	cmpnei	r2,r2,-1
 4005428:	85b9883a 	add	fp,r16,r22
 400542c:	8d6b883a 	add	r21,r17,r21
 4005430:	1000d626 	beq	r2,zero,400578c <_malloc_r+0x660>
 4005434:	ad4403c4 	addi	r21,r21,4111
 4005438:	00bc0004 	movi	r2,-4096
 400543c:	a8aa703a 	and	r21,r21,r2
 4005440:	a80b883a 	mov	r5,r21
 4005444:	9009883a 	mov	r4,r18
 4005448:	4006dbc0 	call	4006dbc <_sbrk_r>
 400544c:	102f883a 	mov	r23,r2
 4005450:	10bfffd8 	cmpnei	r2,r2,-1
 4005454:	1000a826 	beq	r2,zero,40056f8 <_malloc_r+0x5cc>
 4005458:	bf00a636 	bltu	r23,fp,40056f4 <_malloc_r+0x5c8>
 400545c:	00810074 	movhi	r2,1025
 4005460:	15132817 	ldw	r20,19616(r2)
 4005464:	ad29883a 	add	r20,r21,r20
 4005468:	15132815 	stw	r20,19616(r2)
 400546c:	a007883a 	mov	r3,r20
 4005470:	e5c0ec26 	beq	fp,r23,4005824 <_malloc_r+0x6f8>
 4005474:	00810074 	movhi	r2,1025
 4005478:	108bde17 	ldw	r2,12152(r2)
 400547c:	10bfffd8 	cmpnei	r2,r2,-1
 4005480:	1000ef26 	beq	r2,zero,4005840 <_malloc_r+0x714>
 4005484:	bf39c83a 	sub	fp,r23,fp
 4005488:	e0c7883a 	add	r3,fp,r3
 400548c:	00810074 	movhi	r2,1025
 4005490:	10d32815 	stw	r3,19616(r2)
 4005494:	bf0001cc 	andi	fp,r23,7
 4005498:	e000c526 	beq	fp,zero,40057b0 <_malloc_r+0x684>
 400549c:	bf2fc83a 	sub	r23,r23,fp
 40054a0:	bdc00204 	addi	r23,r23,8
 40054a4:	05040204 	movi	r20,4104
 40054a8:	a729c83a 	sub	r20,r20,fp
 40054ac:	bd6b883a 	add	r21,r23,r21
 40054b0:	a569c83a 	sub	r20,r20,r21
 40054b4:	a503ffcc 	andi	r20,r20,4095
 40054b8:	a00b883a 	mov	r5,r20
 40054bc:	9009883a 	mov	r4,r18
 40054c0:	4006dbc0 	call	4006dbc <_sbrk_r>
 40054c4:	10ffffe0 	cmpeqi	r3,r2,-1
 40054c8:	1800f31e 	bne	r3,zero,4005898 <_malloc_r+0x76c>
 40054cc:	15c5c83a 	sub	r2,r2,r23
 40054d0:	152b883a 	add	r21,r2,r20
 40054d4:	00810074 	movhi	r2,1025
 40054d8:	11532817 	ldw	r5,19616(r2)
 40054dc:	9dc00215 	stw	r23,8(r19)
 40054e0:	ad400054 	ori	r21,r21,1
 40054e4:	a169883a 	add	r20,r20,r5
 40054e8:	15132815 	stw	r20,19616(r2)
 40054ec:	bd400115 	stw	r21,4(r23)
 40054f0:	84c0d626 	beq	r16,r19,400584c <_malloc_r+0x720>
 40054f4:	b0800428 	cmpgeui	r2,r22,16
 40054f8:	1000d626 	beq	r2,zero,4005854 <_malloc_r+0x728>
 40054fc:	80c00117 	ldw	r3,4(r16)
 4005500:	013ffe04 	movi	r4,-8
 4005504:	b0bffd04 	addi	r2,r22,-12
 4005508:	1104703a 	and	r2,r2,r4
 400550c:	18c0004c 	andi	r3,r3,1
 4005510:	1886b03a 	or	r3,r3,r2
 4005514:	80c00115 	stw	r3,4(r16)
 4005518:	01000144 	movi	r4,5
 400551c:	8087883a 	add	r3,r16,r2
 4005520:	19000115 	stw	r4,4(r3)
 4005524:	19000215 	stw	r4,8(r3)
 4005528:	10800428 	cmpgeui	r2,r2,16
 400552c:	1000df1e 	bne	r2,zero,40058ac <_malloc_r+0x780>
 4005530:	bd400117 	ldw	r21,4(r23)
 4005534:	b821883a 	mov	r16,r23
 4005538:	00810074 	movhi	r2,1025
 400553c:	10931d17 	ldw	r2,19572(r2)
 4005540:	1500022e 	bgeu	r2,r20,400554c <_malloc_r+0x420>
 4005544:	00810074 	movhi	r2,1025
 4005548:	15131d15 	stw	r20,19572(r2)
 400554c:	00810074 	movhi	r2,1025
 4005550:	10931c17 	ldw	r2,19568(r2)
 4005554:	15006a2e 	bgeu	r2,r20,4005700 <_malloc_r+0x5d4>
 4005558:	00810074 	movhi	r2,1025
 400555c:	15131c15 	stw	r20,19568(r2)
 4005560:	00006706 	br	4005700 <_malloc_r+0x5d4>
 4005564:	88c00054 	ori	r3,r17,1
 4005568:	80c00115 	stw	r3,4(r16)
 400556c:	8463883a 	add	r17,r16,r17
 4005570:	10800054 	ori	r2,r2,1
 4005574:	9c400215 	stw	r17,8(r19)
 4005578:	88800115 	stw	r2,4(r17)
 400557c:	9009883a 	mov	r4,r18
 4005580:	400ddb80 	call	400ddb8 <__malloc_unlock>
 4005584:	80800204 	addi	r2,r16,8
 4005588:	003f7e06 	br	4005384 <_malloc_r+0x258>
 400558c:	81000317 	ldw	r4,12(r16)
 4005590:	003f0506 	br	40051a8 <_malloc_r+0x7c>
 4005594:	1006d27a 	srli	r3,r2,9
 4005598:	19000168 	cmpgeui	r4,r3,5
 400559c:	20005026 	beq	r4,zero,40056e0 <_malloc_r+0x5b4>
 40055a0:	19000568 	cmpgeui	r4,r3,21
 40055a4:	20008c1e 	bne	r4,zero,40057d8 <_malloc_r+0x6ac>
 40055a8:	19401704 	addi	r5,r3,92
 40055ac:	280a90fa 	slli	r5,r5,3
 40055b0:	190016c4 	addi	r4,r3,91
 40055b4:	994b883a 	add	r5,r19,r5
 40055b8:	28c00017 	ldw	r3,0(r5)
 40055bc:	297ffe04 	addi	r5,r5,-8
 40055c0:	28c07426 	beq	r5,r3,4005794 <_malloc_r+0x668>
 40055c4:	01bfff04 	movi	r6,-4
 40055c8:	19000117 	ldw	r4,4(r3)
 40055cc:	2188703a 	and	r4,r4,r6
 40055d0:	1100022e 	bgeu	r2,r4,40055dc <_malloc_r+0x4b0>
 40055d4:	18c00217 	ldw	r3,8(r3)
 40055d8:	28fffb1e 	bne	r5,r3,40055c8 <_malloc_r+0x49c>
 40055dc:	19400317 	ldw	r5,12(r3)
 40055e0:	98800117 	ldw	r2,4(r19)
 40055e4:	81400315 	stw	r5,12(r16)
 40055e8:	80c00215 	stw	r3,8(r16)
 40055ec:	2c000215 	stw	r16,8(r5)
 40055f0:	1c000315 	stw	r16,12(r3)
 40055f4:	003f3606 	br	40052d0 <_malloc_r+0x1a4>
 40055f8:	10c00568 	cmpgeui	r3,r2,21
 40055fc:	18004a26 	beq	r3,zero,4005728 <_malloc_r+0x5fc>
 4005600:	10c01568 	cmpgeui	r3,r2,85
 4005604:	18007b1e 	bne	r3,zero,40057f4 <_malloc_r+0x6c8>
 4005608:	8804d33a 	srli	r2,r17,12
 400560c:	11c01bc4 	addi	r7,r2,111
 4005610:	380890fa 	slli	r4,r7,3
 4005614:	12001b84 	addi	r8,r2,110
 4005618:	003efd06 	br	4005210 <_malloc_r+0xe4>
 400561c:	63000044 	addi	r12,r12,1
 4005620:	608000cc 	andi	r2,r12,3
 4005624:	42000204 	addi	r8,r8,8
 4005628:	103f3e1e 	bne	r2,zero,4005324 <_malloc_r+0x1f8>
 400562c:	00004506 	br	4005744 <_malloc_r+0x618>
 4005630:	81000217 	ldw	r4,8(r16)
 4005634:	89800054 	ori	r6,r17,1
 4005638:	81800115 	stw	r6,4(r16)
 400563c:	20800315 	stw	r2,12(r4)
 4005640:	11000215 	stw	r4,8(r2)
 4005644:	8463883a 	add	r17,r16,r17
 4005648:	9c400515 	stw	r17,20(r19)
 400564c:	9c400415 	stw	r17,16(r19)
 4005650:	28800054 	ori	r2,r5,1
 4005654:	88800115 	stw	r2,4(r17)
 4005658:	8a400315 	stw	r9,12(r17)
 400565c:	8a400215 	stw	r9,8(r17)
 4005660:	80c7883a 	add	r3,r16,r3
 4005664:	19400015 	stw	r5,0(r3)
 4005668:	9009883a 	mov	r4,r18
 400566c:	400ddb80 	call	400ddb8 <__malloc_unlock>
 4005670:	80800204 	addi	r2,r16,8
 4005674:	003f4306 	br	4005384 <_malloc_r+0x258>
 4005678:	880ed0fa 	srli	r7,r17,3
 400567c:	88800204 	addi	r2,r17,8
 4005680:	003ebf06 	br	4005180 <_malloc_r+0x54>
 4005684:	8085883a 	add	r2,r16,r2
 4005688:	10c00117 	ldw	r3,4(r2)
 400568c:	9009883a 	mov	r4,r18
 4005690:	18c00054 	ori	r3,r3,1
 4005694:	10c00115 	stw	r3,4(r2)
 4005698:	400ddb80 	call	400ddb8 <__malloc_unlock>
 400569c:	80800204 	addi	r2,r16,8
 40056a0:	003f3806 	br	4005384 <_malloc_r+0x258>
 40056a4:	89000054 	ori	r4,r17,1
 40056a8:	81000115 	stw	r4,4(r16)
 40056ac:	8463883a 	add	r17,r16,r17
 40056b0:	9c400515 	stw	r17,20(r19)
 40056b4:	9c400415 	stw	r17,16(r19)
 40056b8:	19000054 	ori	r4,r3,1
 40056bc:	89000115 	stw	r4,4(r17)
 40056c0:	8085883a 	add	r2,r16,r2
 40056c4:	8a400315 	stw	r9,12(r17)
 40056c8:	8a400215 	stw	r9,8(r17)
 40056cc:	10c00015 	stw	r3,0(r2)
 40056d0:	9009883a 	mov	r4,r18
 40056d4:	400ddb80 	call	400ddb8 <__malloc_unlock>
 40056d8:	80800204 	addi	r2,r16,8
 40056dc:	003f2906 	br	4005384 <_malloc_r+0x258>
 40056e0:	1006d1ba 	srli	r3,r2,6
 40056e4:	19400e44 	addi	r5,r3,57
 40056e8:	280a90fa 	slli	r5,r5,3
 40056ec:	19000e04 	addi	r4,r3,56
 40056f0:	003fb006 	br	40055b4 <_malloc_r+0x488>
 40056f4:	84c04626 	beq	r16,r19,4005810 <_malloc_r+0x6e4>
 40056f8:	9c000217 	ldw	r16,8(r19)
 40056fc:	85400117 	ldw	r21,4(r16)
 4005700:	00bfff04 	movi	r2,-4
