Archive member included to satisfy reference by file (symbol)

/home/nikola/intelFPGA_lite/21.1/nios2eds/bin/gnu/H-x86_64-pc-linux-gnu/bin/../lib/gcc/nios2-elf/10.3.1/../../../../../H-x86_64-pc-linux-gnu/nios2-elf/lib/mno-hw-mul/libc.a(lib_a-puts.o)
                              obj/default/paper.o (puts)
/home/nikola/intelFPGA_lite/21.1/nios2eds/bin/gnu/H-x86_64-pc-linux-gnu/bin/../lib/gcc/nios2-elf/10.3.1/../../../../../H-x86_64-pc-linux-gnu/nios2-elf/lib/mno-hw-mul/libc.a(lib_a-strlen.o)
                              /home/nikola/intelFPGA_lite/21.1/nios2eds/bin/gnu/H-x86_64-pc-linux-gnu/bin/../lib/gcc/nios2-elf/10.3.1/../../../../../H-x86_64-pc-linux-gnu/nios2-elf/lib/mno-hw-mul/libc.a(lib_a-puts.o) (strlen)
/home/nikola/intelFPGA_lite/21.1/nios2eds/bin/gnu/H-x86_64-pc-linux-gnu/bin/../lib/gcc/nios2-elf/10.3.1/../../../../../H-x86_64-pc-linux-gnu/nios2-elf/lib/mno-hw-mul/libc.a(lib_a-findfp.o)
                              /home/nikola/intelFPGA_lite/21.1/nios2eds/bin/gnu/H-x86_64-pc-linux-gnu/bin/../lib/gcc/nios2-elf/10.3.1/../../../../../H-x86_64-pc-linux-gnu/nios2-elf/lib/mno-hw-mul/libc.a(lib_a-puts.o) (__sinit)
/home/nikola/intelFPGA_lite/21.1/nios2eds/bin/gnu/H-x86_64-pc-linux-gnu/bin/../lib/gcc/nios2-elf/10.3.1/../../../../../H-x86_64-pc-linux-gnu/nios2-elf/lib/mno-hw-mul/libc.a(lib_a-fvwrite.o)
                              /home/nikola/intelFPGA_lite/21.1/nios2eds/bin/gnu/H-x86_64-pc-linux-gnu/bin/../lib/gcc/nios2-elf/10.3.1/../../../../../H-x86_64-pc-linux-gnu/nios2-elf/lib/mno-hw-mul/libc.a(lib_a-puts.o) (__sfvwrite_r)
/home/nikola/intelFPGA_lite/21.1/nios2eds/bin/gnu/H-x86_64-pc-linux-gnu/bin/../lib/gcc/nios2-elf/10.3.1/../../../../../H-x86_64-pc-linux-gnu/nios2-elf/lib/mno-hw-mul/libc.a(lib_a-fwalk.o)
                              /home/nikola/intelFPGA_lite/21.1/nios2eds/bin/gnu/H-x86_64-pc-linux-gnu/bin/../lib/gcc/nios2-elf/10.3.1/../../../../../H-x86_64-pc-linux-gnu/nios2-elf/lib/mno-hw-mul/libc.a(lib_a-findfp.o) (_fwalk)
/home/nikola/intelFPGA_lite/21.1/nios2eds/bin/gnu/H-x86_64-pc-linux-gnu/bin/../lib/gcc/nios2-elf/10.3.1/../../../../../H-x86_64-pc-linux-gnu/nios2-elf/lib/mno-hw-mul/libc.a(lib_a-impure.o)
                              /home/nikola/intelFPGA_lite/21.1/nios2eds/bin/gnu/H-x86_64-pc-linux-gnu/bin/../lib/gcc/nios2-elf/10.3.1/../../../../../H-x86_64-pc-linux-gnu/nios2-elf/lib/mno-hw-mul/libc.a(lib_a-findfp.o) (_global_impure_ptr)
/home/nikola/intelFPGA_lite/21.1/nios2eds/bin/gnu/H-x86_64-pc-linux-gnu/bin/../lib/gcc/nios2-elf/10.3.1/../../../../../H-x86_64-pc-linux-gnu/nios2-elf/lib/mno-hw-mul/libc.a(lib_a-mallocr.o)
                              /home/nikola/intelFPGA_lite/21.1/nios2eds/bin/gnu/H-x86_64-pc-linux-gnu/bin/../lib/gcc/nios2-elf/10.3.1/../../../../../H-x86_64-pc-linux-gnu/nios2-elf/lib/mno-hw-mul/libc.a(lib_a-findfp.o) (_malloc_r)
/home/nikola/intelFPGA_lite/21.1/nios2eds/bin/gnu/H-x86_64-pc-linux-gnu/bin/../lib/gcc/nios2-elf/10.3.1/../../../../../H-x86_64-pc-linux-gnu/nios2-elf/lib/mno-hw-mul/libc.a(lib_a-memchr.o)
                              /home/nikola/intelFPGA_lite/21.1/nios2eds/bin/gnu/H-x86_64-pc-linux-gnu/bin/../lib/gcc/nios2-elf/10.3.1/../../../../../H-x86_64-pc-linux-gnu/nios2-elf/lib/mno-hw-mul/libc.a(lib_a-fvwrite.o) (memchr)
/home/nikola/intelFPGA_lite/21.1/nios2eds/bin/gnu/H-x86_64-pc-linux-gnu/bin/../lib/gcc/nios2-elf/10.3.1/../../../../../H-x86_64-pc-linux-gnu/nios2-elf/lib/mno-hw-mul/libc.a(lib_a-memcpy.o)
                              /home/nikola/intelFPGA_lite/21.1/nios2eds/bin/gnu/H-x86_64-pc-linux-gnu/bin/../lib/gcc/nios2-elf/10.3.1/../../../../../H-x86_64-pc-linux-gnu/nios2-elf/lib/mno-hw-mul/libc.a(lib_a-fvwrite.o) (memcpy)
/home/nikola/intelFPGA_lite/21.1/nios2eds/bin/gnu/H-x86_64-pc-linux-gnu/bin/../lib/gcc/nios2-elf/10.3.1/../../../../../H-x86_64-pc-linux-gnu/nios2-elf/lib/mno-hw-mul/libc.a(lib_a-memmove.o)
                              /home/nikola/intelFPGA_lite/21.1/nios2eds/bin/gnu/H-x86_64-pc-linux-gnu/bin/../lib/gcc/nios2-elf/10.3.1/../../../../../H-x86_64-pc-linux-gnu/nios2-elf/lib/mno-hw-mul/libc.a(lib_a-fvwrite.o) (memmove)
/home/nikola/intelFPGA_lite/21.1/nios2eds/bin/gnu/H-x86_64-pc-linux-gnu/bin/../lib/gcc/nios2-elf/10.3.1/../../../../../H-x86_64-pc-linux-gnu/nios2-elf/lib/mno-hw-mul/libc.a(lib_a-memset.o)
                              /home/nikola/intelFPGA_lite/21.1/nios2eds/bin/gnu/H-x86_64-pc-linux-gnu/bin/../lib/gcc/nios2-elf/10.3.1/../../../../../H-x86_64-pc-linux-gnu/nios2-elf/lib/mno-hw-mul/libc.a(lib_a-findfp.o) (memset)
/home/nikola/intelFPGA_lite/21.1/nios2eds/bin/gnu/H-x86_64-pc-linux-gnu/bin/../lib/gcc/nios2-elf/10.3.1/../../../../../H-x86_64-pc-linux-gnu/nios2-elf/lib/mno-hw-mul/libc.a(lib_a-reallocr.o)
                              /home/nikola/intelFPGA_lite/21.1/nios2eds/bin/gnu/H-x86_64-pc-linux-gnu/bin/../lib/gcc/nios2-elf/10.3.1/../../../../../H-x86_64-pc-linux-gnu/nios2-elf/lib/mno-hw-mul/libc.a(lib_a-fvwrite.o) (_realloc_r)
/home/nikola/intelFPGA_lite/21.1/nios2eds/bin/gnu/H-x86_64-pc-linux-gnu/bin/../lib/gcc/nios2-elf/10.3.1/../../../../../H-x86_64-pc-linux-gnu/nios2-elf/lib/mno-hw-mul/libc.a(lib_a-sbrkr.o)
                              /home/nikola/intelFPGA_lite/21.1/nios2eds/bin/gnu/H-x86_64-pc-linux-gnu/bin/../lib/gcc/nios2-elf/10.3.1/../../../../../H-x86_64-pc-linux-gnu/nios2-elf/lib/mno-hw-mul/libc.a(lib_a-mallocr.o) (_sbrk_r)
/home/nikola/intelFPGA_lite/21.1/nios2eds/bin/gnu/H-x86_64-pc-linux-gnu/bin/../lib/gcc/nios2-elf/10.3.1/../../../../../H-x86_64-pc-linux-gnu/nios2-elf/lib/mno-hw-mul/libc.a(lib_a-stdio.o)
                              /home/nikola/intelFPGA_lite/21.1/nios2eds/bin/gnu/H-x86_64-pc-linux-gnu/bin/../lib/gcc/nios2-elf/10.3.1/../../../../../H-x86_64-pc-linux-gnu/nios2-elf/lib/mno-hw-mul/libc.a(lib_a-findfp.o) (__sread)
/home/nikola/intelFPGA_lite/21.1/nios2eds/bin/gnu/H-x86_64-pc-linux-gnu/bin/../lib/gcc/nios2-elf/10.3.1/../../../../../H-x86_64-pc-linux-gnu/nios2-elf/lib/mno-hw-mul/libc.a(lib_a-writer.o)
                              /home/nikola/intelFPGA_lite/21.1/nios2eds/bin/gnu/H-x86_64-pc-linux-gnu/bin/../lib/gcc/nios2-elf/10.3.1/../../../../../H-x86_64-pc-linux-gnu/nios2-elf/lib/mno-hw-mul/libc.a(lib_a-stdio.o) (_write_r)
/home/nikola/intelFPGA_lite/21.1/nios2eds/bin/gnu/H-x86_64-pc-linux-gnu/bin/../lib/gcc/nios2-elf/10.3.1/../../../../../H-x86_64-pc-linux-gnu/nios2-elf/lib/mno-hw-mul/libc.a(lib_a-wsetup.o)
                              /home/nikola/intelFPGA_lite/21.1/nios2eds/bin/gnu/H-x86_64-pc-linux-gnu/bin/../lib/gcc/nios2-elf/10.3.1/../../../../../H-x86_64-pc-linux-gnu/nios2-elf/lib/mno-hw-mul/libc.a(lib_a-fvwrite.o) (__swsetup_r)
/home/nikola/intelFPGA_lite/21.1/nios2eds/bin/gnu/H-x86_64-pc-linux-gnu/bin/../lib/gcc/nios2-elf/10.3.1/../../../../../H-x86_64-pc-linux-gnu/nios2-elf/lib/mno-hw-mul/libc.a(closer.o)
                              /home/nikola/intelFPGA_lite/21.1/nios2eds/bin/gnu/H-x86_64-pc-linux-gnu/bin/../lib/gcc/nios2-elf/10.3.1/../../../../../H-x86_64-pc-linux-gnu/nios2-elf/lib/mno-hw-mul/libc.a(lib_a-stdio.o) (_close_r)
/home/nikola/intelFPGA_lite/21.1/nios2eds/bin/gnu/H-x86_64-pc-linux-gnu/bin/../lib/gcc/nios2-elf/10.3.1/../../../../../H-x86_64-pc-linux-gnu/nios2-elf/lib/mno-hw-mul/libc.a(lib_a-fclose.o)
                              /home/nikola/intelFPGA_lite/21.1/nios2eds/bin/gnu/H-x86_64-pc-linux-gnu/bin/../lib/gcc/nios2-elf/10.3.1/../../../../../H-x86_64-pc-linux-gnu/nios2-elf/lib/mno-hw-mul/libc.a(lib_a-findfp.o) (_fclose_r)
/home/nikola/intelFPGA_lite/21.1/nios2eds/bin/gnu/H-x86_64-pc-linux-gnu/bin/../lib/gcc/nios2-elf/10.3.1/../../../../../H-x86_64-pc-linux-gnu/nios2-elf/lib/mno-hw-mul/libc.a(lib_a-fflush.o)
                              /home/nikola/intelFPGA_lite/21.1/nios2eds/bin/gnu/H-x86_64-pc-linux-gnu/bin/../lib/gcc/nios2-elf/10.3.1/../../../../../H-x86_64-pc-linux-gnu/nios2-elf/lib/mno-hw-mul/libc.a(lib_a-fclose.o) (__sflush_r)
/home/nikola/intelFPGA_lite/21.1/nios2eds/bin/gnu/H-x86_64-pc-linux-gnu/bin/../lib/gcc/nios2-elf/10.3.1/../../../../../H-x86_64-pc-linux-gnu/nios2-elf/lib/mno-hw-mul/libc.a(lib_a-freer.o)
                              /home/nikola/intelFPGA_lite/21.1/nios2eds/bin/gnu/H-x86_64-pc-linux-gnu/bin/../lib/gcc/nios2-elf/10.3.1/../../../../../H-x86_64-pc-linux-gnu/nios2-elf/lib/mno-hw-mul/libc.a(lib_a-fvwrite.o) (_free_r)
/home/nikola/intelFPGA_lite/21.1/nios2eds/bin/gnu/H-x86_64-pc-linux-gnu/bin/../lib/gcc/nios2-elf/10.3.1/../../../../../H-x86_64-pc-linux-gnu/nios2-elf/lib/mno-hw-mul/libc.a(lib_a-int_errno.o)
                              /home/nikola/intelFPGA_lite/21.1/nios2eds/bin/gnu/H-x86_64-pc-linux-gnu/bin/../lib/gcc/nios2-elf/10.3.1/../../../../../H-x86_64-pc-linux-gnu/nios2-elf/lib/mno-hw-mul/libc.a(lib_a-sbrkr.o) (errno)
/home/nikola/intelFPGA_lite/21.1/nios2eds/bin/gnu/H-x86_64-pc-linux-gnu/bin/../lib/gcc/nios2-elf/10.3.1/../../../../../H-x86_64-pc-linux-gnu/nios2-elf/lib/mno-hw-mul/libc.a(lib_a-lseekr.o)
                              /home/nikola/intelFPGA_lite/21.1/nios2eds/bin/gnu/H-x86_64-pc-linux-gnu/bin/../lib/gcc/nios2-elf/10.3.1/../../../../../H-x86_64-pc-linux-gnu/nios2-elf/lib/mno-hw-mul/libc.a(lib_a-stdio.o) (_lseek_r)
/home/nikola/intelFPGA_lite/21.1/nios2eds/bin/gnu/H-x86_64-pc-linux-gnu/bin/../lib/gcc/nios2-elf/10.3.1/../../../../../H-x86_64-pc-linux-gnu/nios2-elf/lib/mno-hw-mul/libc.a(lib_a-makebuf.o)
                              /home/nikola/intelFPGA_lite/21.1/nios2eds/bin/gnu/H-x86_64-pc-linux-gnu/bin/../lib/gcc/nios2-elf/10.3.1/../../../../../H-x86_64-pc-linux-gnu/nios2-elf/lib/mno-hw-mul/libc.a(lib_a-wsetup.o) (__smakebuf_r)
/home/nikola/intelFPGA_lite/21.1/nios2eds/bin/gnu/H-x86_64-pc-linux-gnu/bin/../lib/gcc/nios2-elf/10.3.1/../../../../../H-x86_64-pc-linux-gnu/nios2-elf/lib/mno-hw-mul/libc.a(lib_a-readr.o)
                              /home/nikola/intelFPGA_lite/21.1/nios2eds/bin/gnu/H-x86_64-pc-linux-gnu/bin/../lib/gcc/nios2-elf/10.3.1/../../../../../H-x86_64-pc-linux-gnu/nios2-elf/lib/mno-hw-mul/libc.a(lib_a-stdio.o) (_read_r)
/home/nikola/intelFPGA_lite/21.1/nios2eds/bin/gnu/H-x86_64-pc-linux-gnu/bin/../lib/gcc/nios2-elf/10.3.1/../../../../../H-x86_64-pc-linux-gnu/nios2-elf/lib/mno-hw-mul/libc.a(lib_a-fstatr.o)
                              /home/nikola/intelFPGA_lite/21.1/nios2eds/bin/gnu/H-x86_64-pc-linux-gnu/bin/../lib/gcc/nios2-elf/10.3.1/../../../../../H-x86_64-pc-linux-gnu/nios2-elf/lib/mno-hw-mul/libc.a(lib_a-makebuf.o) (_fstat_r)
/home/nikola/intelFPGA_lite/21.1/nios2eds/bin/gnu/H-x86_64-pc-linux-gnu/bin/../lib/gcc/nios2-elf/10.3.1/../../../../../H-x86_64-pc-linux-gnu/nios2-elf/lib/mno-hw-mul/libc.a(lib_a-isattyr.o)
                              /home/nikola/intelFPGA_lite/21.1/nios2eds/bin/gnu/H-x86_64-pc-linux-gnu/bin/../lib/gcc/nios2-elf/10.3.1/../../../../../H-x86_64-pc-linux-gnu/nios2-elf/lib/mno-hw-mul/libc.a(lib_a-makebuf.o) (_isatty_r)
/home/nikola/intelFPGA_lite/21.1/nios2eds/bin/gnu/H-x86_64-pc-linux-gnu/bin/../lib/gcc/nios2-elf/10.3.1/mno-hw-mul/libgcc.a(lib2-divmod.o)
                              /home/nikola/intelFPGA_lite/21.1/nios2eds/bin/gnu/H-x86_64-pc-linux-gnu/bin/../lib/gcc/nios2-elf/10.3.1/../../../../../H-x86_64-pc-linux-gnu/nios2-elf/lib/mno-hw-mul/libc.a(lib_a-fvwrite.o) (__divsi3)
/home/nikola/intelFPGA_lite/21.1/nios2eds/bin/gnu/H-x86_64-pc-linux-gnu/bin/../lib/gcc/nios2-elf/10.3.1/mno-hw-mul/libgcc.a(lib2-mul.o)
                              /home/nikola/intelFPGA_lite/21.1/nios2eds/bin/gnu/H-x86_64-pc-linux-gnu/bin/../lib/gcc/nios2-elf/10.3.1/../../../../../H-x86_64-pc-linux-gnu/nios2-elf/lib/mno-hw-mul/libc.a(lib_a-findfp.o) (__mulsi3)
/home/nikola/PNRS/pnrs-2023/de1-soc-demo/sw/nios/individual/paper_bsp//libhal_bsp.a(alt_close.o)
                              /home/nikola/intelFPGA_lite/21.1/nios2eds/bin/gnu/H-x86_64-pc-linux-gnu/bin/../lib/gcc/nios2-elf/10.3.1/../../../../../H-x86_64-pc-linux-gnu/nios2-elf/lib/mno-hw-mul/libc.a(closer.o) (close)
/home/nikola/PNRS/pnrs-2023/de1-soc-demo/sw/nios/individual/paper_bsp//libhal_bsp.a(alt_dev.o)
                              /home/nikola/PNRS/pnrs-2023/de1-soc-demo/sw/nios/individual/paper_bsp//libhal_bsp.a(alt_close.o) (alt_fd_list)
/home/nikola/PNRS/pnrs-2023/de1-soc-demo/sw/nios/individual/paper_bsp//libhal_bsp.a(alt_errno.o)
                              /home/nikola/PNRS/pnrs-2023/de1-soc-demo/sw/nios/individual/paper_bsp//libhal_bsp.a(alt_close.o) (alt_errno)
/home/nikola/PNRS/pnrs-2023/de1-soc-demo/sw/nios/individual/paper_bsp//libhal_bsp.a(alt_fstat.o)
                              /home/nikola/intelFPGA_lite/21.1/nios2eds/bin/gnu/H-x86_64-pc-linux-gnu/bin/../lib/gcc/nios2-elf/10.3.1/../../../../../H-x86_64-pc-linux-gnu/nios2-elf/lib/mno-hw-mul/libc.a(lib_a-fstatr.o) (fstat)
/home/nikola/PNRS/pnrs-2023/de1-soc-demo/sw/nios/individual/paper_bsp//libhal_bsp.a(alt_isatty.o)
                              /home/nikola/intelFPGA_lite/21.1/nios2eds/bin/gnu/H-x86_64-pc-linux-gnu/bin/../lib/gcc/nios2-elf/10.3.1/../../../../../H-x86_64-pc-linux-gnu/nios2-elf/lib/mno-hw-mul/libc.a(lib_a-isattyr.o) (isatty)
/home/nikola/PNRS/pnrs-2023/de1-soc-demo/sw/nios/individual/paper_bsp//libhal_bsp.a(alt_load.o)
                              /home/nikola/PNRS/pnrs-2023/de1-soc-demo/sw/nios/individual/paper_bsp//obj/HAL/src/crt0.o (alt_load)
/home/nikola/PNRS/pnrs-2023/de1-soc-demo/sw/nios/individual/paper_bsp//libhal_bsp.a(alt_lseek.o)
                              /home/nikola/intelFPGA_lite/21.1/nios2eds/bin/gnu/H-x86_64-pc-linux-gnu/bin/../lib/gcc/nios2-elf/10.3.1/../../../../../H-x86_64-pc-linux-gnu/nios2-elf/lib/mno-hw-mul/libc.a(lib_a-lseekr.o) (lseek)
/home/nikola/PNRS/pnrs-2023/de1-soc-demo/sw/nios/individual/paper_bsp//libhal_bsp.a(alt_main.o)
                              /home/nikola/PNRS/pnrs-2023/de1-soc-demo/sw/nios/individual/paper_bsp//obj/HAL/src/crt0.o (alt_main)
/home/nikola/PNRS/pnrs-2023/de1-soc-demo/sw/nios/individual/paper_bsp//libhal_bsp.a(alt_malloc_lock.o)
                              /home/nikola/intelFPGA_lite/21.1/nios2eds/bin/gnu/H-x86_64-pc-linux-gnu/bin/../lib/gcc/nios2-elf/10.3.1/../../../../../H-x86_64-pc-linux-gnu/nios2-elf/lib/mno-hw-mul/libc.a(lib_a-mallocr.o) (__malloc_lock)
/home/nikola/PNRS/pnrs-2023/de1-soc-demo/sw/nios/individual/paper_bsp//libhal_bsp.a(alt_read.o)
                              /home/nikola/intelFPGA_lite/21.1/nios2eds/bin/gnu/H-x86_64-pc-linux-gnu/bin/../lib/gcc/nios2-elf/10.3.1/../../../../../H-x86_64-pc-linux-gnu/nios2-elf/lib/mno-hw-mul/libc.a(lib_a-readr.o) (read)
/home/nikola/PNRS/pnrs-2023/de1-soc-demo/sw/nios/individual/paper_bsp//libhal_bsp.a(alt_release_fd.o)
                              /home/nikola/PNRS/pnrs-2023/de1-soc-demo/sw/nios/individual/paper_bsp//libhal_bsp.a(alt_close.o) (alt_release_fd)
/home/nikola/PNRS/pnrs-2023/de1-soc-demo/sw/nios/individual/paper_bsp//libhal_bsp.a(alt_sbrk.o)
                              /home/nikola/intelFPGA_lite/21.1/nios2eds/bin/gnu/H-x86_64-pc-linux-gnu/bin/../lib/gcc/nios2-elf/10.3.1/../../../../../H-x86_64-pc-linux-gnu/nios2-elf/lib/mno-hw-mul/libc.a(lib_a-sbrkr.o) (sbrk)
/home/nikola/PNRS/pnrs-2023/de1-soc-demo/sw/nios/individual/paper_bsp//libhal_bsp.a(alt_usleep.o)
                              obj/default/paper.o (usleep)
/home/nikola/PNRS/pnrs-2023/de1-soc-demo/sw/nios/individual/paper_bsp//libhal_bsp.a(alt_write.o)
                              /home/nikola/intelFPGA_lite/21.1/nios2eds/bin/gnu/H-x86_64-pc-linux-gnu/bin/../lib/gcc/nios2-elf/10.3.1/../../../../../H-x86_64-pc-linux-gnu/nios2-elf/lib/mno-hw-mul/libc.a(lib_a-writer.o) (write)
/home/nikola/PNRS/pnrs-2023/de1-soc-demo/sw/nios/individual/paper_bsp//libhal_bsp.a(alt_sys_init.o)
                              /home/nikola/PNRS/pnrs-2023/de1-soc-demo/sw/nios/individual/paper_bsp//libhal_bsp.a(alt_main.o) (alt_irq_init)
/home/nikola/PNRS/pnrs-2023/de1-soc-demo/sw/nios/individual/paper_bsp//libhal_bsp.a(altera_avalon_jtag_uart_fd.o)
                              /home/nikola/PNRS/pnrs-2023/de1-soc-demo/sw/nios/individual/paper_bsp//libhal_bsp.a(alt_sys_init.o) (altera_avalon_jtag_uart_read_fd)
/home/nikola/PNRS/pnrs-2023/de1-soc-demo/sw/nios/individual/paper_bsp//libhal_bsp.a(altera_avalon_jtag_uart_init.o)
                              /home/nikola/PNRS/pnrs-2023/de1-soc-demo/sw/nios/individual/paper_bsp//libhal_bsp.a(alt_sys_init.o) (altera_avalon_jtag_uart_init)
/home/nikola/PNRS/pnrs-2023/de1-soc-demo/sw/nios/individual/paper_bsp//libhal_bsp.a(altera_avalon_jtag_uart_ioctl.o)
                              /home/nikola/PNRS/pnrs-2023/de1-soc-demo/sw/nios/individual/paper_bsp//libhal_bsp.a(altera_avalon_jtag_uart_fd.o) (altera_avalon_jtag_uart_ioctl)
/home/nikola/PNRS/pnrs-2023/de1-soc-demo/sw/nios/individual/paper_bsp//libhal_bsp.a(altera_avalon_jtag_uart_read.o)
                              /home/nikola/PNRS/pnrs-2023/de1-soc-demo/sw/nios/individual/paper_bsp//libhal_bsp.a(altera_avalon_jtag_uart_fd.o) (altera_avalon_jtag_uart_read)
/home/nikola/PNRS/pnrs-2023/de1-soc-demo/sw/nios/individual/paper_bsp//libhal_bsp.a(altera_avalon_jtag_uart_write.o)
                              /home/nikola/PNRS/pnrs-2023/de1-soc-demo/sw/nios/individual/paper_bsp//libhal_bsp.a(altera_avalon_jtag_uart_fd.o) (altera_avalon_jtag_uart_write)
/home/nikola/PNRS/pnrs-2023/de1-soc-demo/sw/nios/individual/paper_bsp//libhal_bsp.a(altera_avalon_mutex.o)
                              /home/nikola/PNRS/pnrs-2023/de1-soc-demo/sw/nios/individual/paper_bsp//libhal_bsp.a(alt_sys_init.o) (alt_mutex_list)
/home/nikola/PNRS/pnrs-2023/de1-soc-demo/sw/nios/individual/paper_bsp//libhal_bsp.a(altera_avalon_timer_sc.o)
                              /home/nikola/PNRS/pnrs-2023/de1-soc-demo/sw/nios/individual/paper_bsp//libhal_bsp.a(alt_sys_init.o) (alt_avalon_timer_sc_init)
/home/nikola/PNRS/pnrs-2023/de1-soc-demo/sw/nios/individual/paper_bsp//libhal_bsp.a(alt_alarm_start.o)
                              /home/nikola/PNRS/pnrs-2023/de1-soc-demo/sw/nios/individual/paper_bsp//libhal_bsp.a(altera_avalon_jtag_uart_init.o) (alt_alarm_start)
/home/nikola/PNRS/pnrs-2023/de1-soc-demo/sw/nios/individual/paper_bsp//libhal_bsp.a(alt_busy_sleep.o)
                              /home/nikola/PNRS/pnrs-2023/de1-soc-demo/sw/nios/individual/paper_bsp//libhal_bsp.a(alt_usleep.o) (alt_busy_sleep)
/home/nikola/PNRS/pnrs-2023/de1-soc-demo/sw/nios/individual/paper_bsp//libhal_bsp.a(alt_dcache_flush_all.o)
                              /home/nikola/PNRS/pnrs-2023/de1-soc-demo/sw/nios/individual/paper_bsp//libhal_bsp.a(alt_load.o) (alt_dcache_flush_all)
/home/nikola/PNRS/pnrs-2023/de1-soc-demo/sw/nios/individual/paper_bsp//libhal_bsp.a(alt_dev_llist_insert.o)
                              /home/nikola/PNRS/pnrs-2023/de1-soc-demo/sw/nios/individual/paper_bsp//libhal_bsp.a(alt_sys_init.o) (alt_dev_llist_insert)
/home/nikola/PNRS/pnrs-2023/de1-soc-demo/sw/nios/individual/paper_bsp//libhal_bsp.a(alt_do_ctors.o)
                              /home/nikola/PNRS/pnrs-2023/de1-soc-demo/sw/nios/individual/paper_bsp//libhal_bsp.a(alt_main.o) (_do_ctors)
/home/nikola/PNRS/pnrs-2023/de1-soc-demo/sw/nios/individual/paper_bsp//libhal_bsp.a(alt_do_dtors.o)
                              /home/nikola/PNRS/pnrs-2023/de1-soc-demo/sw/nios/individual/paper_bsp//libhal_bsp.a(alt_main.o) (_do_dtors)
/home/nikola/PNRS/pnrs-2023/de1-soc-demo/sw/nios/individual/paper_bsp//libhal_bsp.a(alt_find_dev.o)
                              /home/nikola/PNRS/pnrs-2023/de1-soc-demo/sw/nios/individual/paper_bsp//libhal_bsp.a(altera_avalon_mutex.o) (alt_find_dev)
/home/nikola/PNRS/pnrs-2023/de1-soc-demo/sw/nios/individual/paper_bsp//libhal_bsp.a(alt_icache_flush_all.o)
                              /home/nikola/PNRS/pnrs-2023/de1-soc-demo/sw/nios/individual/paper_bsp//libhal_bsp.a(alt_load.o) (alt_icache_flush_all)
/home/nikola/PNRS/pnrs-2023/de1-soc-demo/sw/nios/individual/paper_bsp//libhal_bsp.a(alt_iic.o)
                              /home/nikola/PNRS/pnrs-2023/de1-soc-demo/sw/nios/individual/paper_bsp//libhal_bsp.a(altera_avalon_jtag_uart_init.o) (alt_ic_isr_register)
/home/nikola/PNRS/pnrs-2023/de1-soc-demo/sw/nios/individual/paper_bsp//libhal_bsp.a(alt_iic_isr_register.o)
                              /home/nikola/PNRS/pnrs-2023/de1-soc-demo/sw/nios/individual/paper_bsp//libhal_bsp.a(alt_iic.o) (alt_iic_isr_register)
/home/nikola/PNRS/pnrs-2023/de1-soc-demo/sw/nios/individual/paper_bsp//libhal_bsp.a(alt_io_redirect.o)
                              /home/nikola/PNRS/pnrs-2023/de1-soc-demo/sw/nios/individual/paper_bsp//libhal_bsp.a(alt_main.o) (alt_io_redirect)
/home/nikola/PNRS/pnrs-2023/de1-soc-demo/sw/nios/individual/paper_bsp//libhal_bsp.a(alt_irq_entry.o)
                              /home/nikola/PNRS/pnrs-2023/de1-soc-demo/sw/nios/individual/paper_bsp//libhal_bsp.a(alt_iic_isr_register.o) (alt_irq_entry)
/home/nikola/PNRS/pnrs-2023/de1-soc-demo/sw/nios/individual/paper_bsp//libhal_bsp.a(alt_irq_handler.o)
                              /home/nikola/PNRS/pnrs-2023/de1-soc-demo/sw/nios/individual/paper_bsp//libhal_bsp.a(alt_iic_isr_register.o) (alt_irq)
/home/nikola/PNRS/pnrs-2023/de1-soc-demo/sw/nios/individual/paper_bsp//libhal_bsp.a(alt_irq_vars.o)
                              /home/nikola/PNRS/pnrs-2023/de1-soc-demo/sw/nios/individual/paper_bsp//libhal_bsp.a(alt_iic.o) (alt_irq_active)
/home/nikola/PNRS/pnrs-2023/de1-soc-demo/sw/nios/individual/paper_bsp//libhal_bsp.a(alt_open.o)
                              /home/nikola/PNRS/pnrs-2023/de1-soc-demo/sw/nios/individual/paper_bsp//libhal_bsp.a(alt_io_redirect.o) (open)
/home/nikola/PNRS/pnrs-2023/de1-soc-demo/sw/nios/individual/paper_bsp//libhal_bsp.a(alt_tick.o)
                              /home/nikola/PNRS/pnrs-2023/de1-soc-demo/sw/nios/individual/paper_bsp//libhal_bsp.a(altera_avalon_jtag_uart_init.o) (_alt_tick_rate)
/home/nikola/PNRS/pnrs-2023/de1-soc-demo/sw/nios/individual/paper_bsp//libhal_bsp.a(altera_nios2_gen2_irq.o)
                              /home/nikola/PNRS/pnrs-2023/de1-soc-demo/sw/nios/individual/paper_bsp//libhal_bsp.a(alt_sys_init.o) (altera_nios2_gen2_irq_init)
/home/nikola/PNRS/pnrs-2023/de1-soc-demo/sw/nios/individual/paper_bsp//libhal_bsp.a(alt_exception_entry.o)
                              /home/nikola/PNRS/pnrs-2023/de1-soc-demo/sw/nios/individual/paper_bsp//libhal_bsp.a(alt_irq_entry.o) (alt_exception)
/home/nikola/PNRS/pnrs-2023/de1-soc-demo/sw/nios/individual/paper_bsp//libhal_bsp.a(alt_find_file.o)
                              /home/nikola/PNRS/pnrs-2023/de1-soc-demo/sw/nios/individual/paper_bsp//libhal_bsp.a(alt_open.o) (alt_find_file)
/home/nikola/PNRS/pnrs-2023/de1-soc-demo/sw/nios/individual/paper_bsp//libhal_bsp.a(alt_get_fd.o)
                              /home/nikola/PNRS/pnrs-2023/de1-soc-demo/sw/nios/individual/paper_bsp//libhal_bsp.a(alt_open.o) (alt_get_fd)
/home/nikola/PNRS/pnrs-2023/de1-soc-demo/sw/nios/individual/paper_bsp//libhal_bsp.a(alt_instruction_exception_entry.o)
                              /home/nikola/PNRS/pnrs-2023/de1-soc-demo/sw/nios/individual/paper_bsp//libhal_bsp.a(alt_exception_entry.o) (alt_instruction_exception_entry)
/home/nikola/intelFPGA_lite/21.1/nios2eds/bin/gnu/H-x86_64-pc-linux-gnu/bin/../lib/gcc/nios2-elf/10.3.1/../../../../../H-x86_64-pc-linux-gnu/nios2-elf/lib/mno-hw-mul/libc.a(lib_a-atexit.o)
                              /home/nikola/PNRS/pnrs-2023/de1-soc-demo/sw/nios/individual/paper_bsp//libhal_bsp.a(alt_main.o) (atexit)
/home/nikola/intelFPGA_lite/21.1/nios2eds/bin/gnu/H-x86_64-pc-linux-gnu/bin/../lib/gcc/nios2-elf/10.3.1/../../../../../H-x86_64-pc-linux-gnu/nios2-elf/lib/mno-hw-mul/libc.a(lib_a-exit.o)
                              /home/nikola/PNRS/pnrs-2023/de1-soc-demo/sw/nios/individual/paper_bsp//libhal_bsp.a(alt_main.o) (exit)
/home/nikola/intelFPGA_lite/21.1/nios2eds/bin/gnu/H-x86_64-pc-linux-gnu/bin/../lib/gcc/nios2-elf/10.3.1/../../../../../H-x86_64-pc-linux-gnu/nios2-elf/lib/mno-hw-mul/libc.a(lib_a-memcmp.o)
                              /home/nikola/PNRS/pnrs-2023/de1-soc-demo/sw/nios/individual/paper_bsp//libhal_bsp.a(alt_find_dev.o) (memcmp)
/home/nikola/intelFPGA_lite/21.1/nios2eds/bin/gnu/H-x86_64-pc-linux-gnu/bin/../lib/gcc/nios2-elf/10.3.1/../../../../../H-x86_64-pc-linux-gnu/nios2-elf/lib/mno-hw-mul/libc.a(lib_a-__atexit.o)
                              /home/nikola/intelFPGA_lite/21.1/nios2eds/bin/gnu/H-x86_64-pc-linux-gnu/bin/../lib/gcc/nios2-elf/10.3.1/../../../../../H-x86_64-pc-linux-gnu/nios2-elf/lib/mno-hw-mul/libc.a(lib_a-atexit.o) (__register_exitproc)
/home/nikola/intelFPGA_lite/21.1/nios2eds/bin/gnu/H-x86_64-pc-linux-gnu/bin/../lib/gcc/nios2-elf/10.3.1/../../../../../H-x86_64-pc-linux-gnu/nios2-elf/lib/mno-hw-mul/libc.a(lib_a-__call_atexit.o)
                              /home/nikola/intelFPGA_lite/21.1/nios2eds/bin/gnu/H-x86_64-pc-linux-gnu/bin/../lib/gcc/nios2-elf/10.3.1/../../../../../H-x86_64-pc-linux-gnu/nios2-elf/lib/mno-hw-mul/libc.a(lib_a-exit.o) (__call_exitprocs)
/home/nikola/PNRS/pnrs-2023/de1-soc-demo/sw/nios/individual/paper_bsp//libhal_bsp.a(alt_exit.o)
                              /home/nikola/intelFPGA_lite/21.1/nios2eds/bin/gnu/H-x86_64-pc-linux-gnu/bin/../lib/gcc/nios2-elf/10.3.1/../../../../../H-x86_64-pc-linux-gnu/nios2-elf/lib/mno-hw-mul/libc.a(lib_a-exit.o) (_exit)

Memory Configuration

Name             Origin             Length             Attributes
reset            0x0000000005000000 0x0000000000000020
sdram_controller_0 0x0000000005000020 0x0000000000ffffe0
*default*        0x0000000000000000 0xffffffffffffffff

Linker script and memory map

LOAD /home/nikola/PNRS/pnrs-2023/de1-soc-demo/sw/nios/individual/paper_bsp//obj/HAL/src/crt0.o
LOAD obj/default/paper.o
LOAD /home/nikola/intelFPGA_lite/21.1/nios2eds/bin/gnu/H-x86_64-pc-linux-gnu/bin/../lib/gcc/nios2-elf/10.3.1/../../../../../H-x86_64-pc-linux-gnu/nios2-elf/lib/mno-hw-mul/libstdc++.a
LOAD /home/nikola/intelFPGA_lite/21.1/nios2eds/bin/gnu/H-x86_64-pc-linux-gnu/bin/../lib/gcc/nios2-elf/10.3.1/../../../../../H-x86_64-pc-linux-gnu/nios2-elf/lib/mno-hw-mul/libm.a
LOAD /home/nikola/intelFPGA_lite/21.1/nios2eds/bin/gnu/H-x86_64-pc-linux-gnu/bin/../lib/gcc/nios2-elf/10.3.1/mno-hw-mul/libgcc.a
START GROUP
LOAD /home/nikola/intelFPGA_lite/21.1/nios2eds/bin/gnu/H-x86_64-pc-linux-gnu/bin/../lib/gcc/nios2-elf/10.3.1/../../../../../H-x86_64-pc-linux-gnu/nios2-elf/lib/mno-hw-mul/libc.a
LOAD /home/nikola/intelFPGA_lite/21.1/nios2eds/bin/gnu/H-x86_64-pc-linux-gnu/bin/../lib/gcc/nios2-elf/10.3.1/mno-hw-mul/libgcc.a
LOAD /home/nikola/PNRS/pnrs-2023/de1-soc-demo/sw/nios/individual/paper_bsp//libhal_bsp.a
LOAD /home/nikola/intelFPGA_lite/21.1/nios2eds/bin/gnu/H-x86_64-pc-linux-gnu/bin/../lib/gcc/nios2-elf/10.3.1/../../../../../H-x86_64-pc-linux-gnu/nios2-elf/lib/mno-hw-mul/libm.a
END GROUP
LOAD /home/nikola/intelFPGA_lite/21.1/nios2eds/bin/gnu/H-x86_64-pc-linux-gnu/bin/../lib/gcc/nios2-elf/10.3.1/mno-hw-mul/libgcc.a
                0x0000000004000000                __alt_mem_sdram_controller_0 = 0x4000000

.entry          0x0000000005000000       0x20
 *(.entry)
 .entry         0x0000000005000000       0x20 /home/nikola/PNRS/pnrs-2023/de1-soc-demo/sw/nios/individual/paper_bsp//obj/HAL/src/crt0.o
                0x0000000005000000                __reset

.exceptions     0x0000000005000020      0x204
                0x0000000005000020                PROVIDE (__ram_exceptions_start = ABSOLUTE (.))
                0x0000000005000020                . = ALIGN (0x20)
 *(.irq)
 *(.exceptions.entry.label)
 .exceptions.entry.label
                0x0000000005000020        0x0 /home/nikola/PNRS/pnrs-2023/de1-soc-demo/sw/nios/individual/paper_bsp//libhal_bsp.a(alt_irq_entry.o)
                0x0000000005000020                alt_irq_entry
 .exceptions.entry.label
                0x0000000005000020        0x0 /home/nikola/PNRS/pnrs-2023/de1-soc-demo/sw/nios/individual/paper_bsp//libhal_bsp.a(alt_exception_entry.o)
                0x0000000005000020                alt_exception
 *(.exceptions.entry.user)
 *(.exceptions.entry.ecc_fatal)
 *(.exceptions.entry)
 .exceptions.entry
                0x0000000005000020       0x54 /home/nikola/PNRS/pnrs-2023/de1-soc-demo/sw/nios/individual/paper_bsp//libhal_bsp.a(alt_exception_entry.o)
 *(.exceptions.irqtest.user)
 *(.exceptions.irqtest)
 .exceptions.irqtest
                0x0000000005000074       0x10 /home/nikola/PNRS/pnrs-2023/de1-soc-demo/sw/nios/individual/paper_bsp//libhal_bsp.a(alt_irq_entry.o)
 *(.exceptions.irqhandler.user)
 *(.exceptions.irqhandler)
 .exceptions.irqhandler
                0x0000000005000084        0x4 /home/nikola/PNRS/pnrs-2023/de1-soc-demo/sw/nios/individual/paper_bsp//libhal_bsp.a(alt_irq_entry.o)
 *(.exceptions.irqreturn.user)
 *(.exceptions.irqreturn)
 .exceptions.irqreturn
                0x0000000005000088        0x4 /home/nikola/PNRS/pnrs-2023/de1-soc-demo/sw/nios/individual/paper_bsp//libhal_bsp.a(alt_irq_entry.o)
 *(.exceptions.notirq.label)
 .exceptions.notirq.label
                0x000000000500008c        0x0 /home/nikola/PNRS/pnrs-2023/de1-soc-demo/sw/nios/individual/paper_bsp//libhal_bsp.a(alt_irq_entry.o)
 *(.exceptions.notirq.user)
 *(.exceptions.notirq)
 .exceptions.notirq
                0x000000000500008c        0x8 /home/nikola/PNRS/pnrs-2023/de1-soc-demo/sw/nios/individual/paper_bsp//libhal_bsp.a(alt_exception_entry.o)
 *(.exceptions.soft.user)
 *(.exceptions.soft)
 *(.exceptions.unknown.user)
 *(.exceptions.unknown)
 .exceptions.unknown
                0x0000000005000094       0x14 /home/nikola/PNRS/pnrs-2023/de1-soc-demo/sw/nios/individual/paper_bsp//libhal_bsp.a(alt_exception_entry.o)
 *(.exceptions.exit.label)
 .exceptions.exit.label
                0x00000000050000a8        0x0 /home/nikola/PNRS/pnrs-2023/de1-soc-demo/sw/nios/individual/paper_bsp//libhal_bsp.a(alt_irq_entry.o)
 .exceptions.exit.label
                0x00000000050000a8        0x0 /home/nikola/PNRS/pnrs-2023/de1-soc-demo/sw/nios/individual/paper_bsp//libhal_bsp.a(alt_exception_entry.o)
 *(.exceptions.exit.user)
 *(.exceptions.exit)
 .exceptions.exit
                0x00000000050000a8       0x54 /home/nikola/PNRS/pnrs-2023/de1-soc-demo/sw/nios/individual/paper_bsp//libhal_bsp.a(alt_exception_entry.o)
 *(.exceptions)
 .exceptions    0x00000000050000fc       0xc8 /home/nikola/PNRS/pnrs-2023/de1-soc-demo/sw/nios/individual/paper_bsp//libhal_bsp.a(alt_irq_handler.o)
                0x00000000050000fc                alt_irq_handler
 .exceptions    0x00000000050001c4       0x60 /home/nikola/PNRS/pnrs-2023/de1-soc-demo/sw/nios/individual/paper_bsp//libhal_bsp.a(alt_instruction_exception_entry.o)
                0x00000000050001c4                alt_instruction_exception_entry
                0x0000000005000224                PROVIDE (__ram_exceptions_end = ABSOLUTE (.))
                0x0000000005000020                PROVIDE (__flash_exceptions_start = LOADADDR (.exceptions))

.text           0x0000000005000224     0x5d0c
                [!provide]                        PROVIDE (stext = ABSOLUTE (.))
 *(.interp)
 *(.hash)
 *(.dynsym)
 *(.dynstr)
 *(.gnu.version)
 *(.gnu.version_d)
 *(.gnu.version_r)
 *(.rel.init)
 *(.rela.init)
 *(.rel.text .rel.text.* .rel.gnu.linkonce.t.*)
 *(.rela.text .rela.text.* .rela.gnu.linkonce.t.*)
 *(.rel.fini)
 *(.rela.fini)
 *(.rel.rodata .rel.rodata.* .rel.gnu.linkonce.r.*)
 *(.rela.rodata .rela.rodata.* .rela.gnu.linkonce.r.*)
 *(.rel.data .rel.data.* .rel.gnu.linkonce.d.*)
 *(.rela.data .rela.data.* .rela.gnu.linkonce.d.*)
 *(.rel.tdata .rel.tdata.* .rel.gnu.linkonce.td.*)
 *(.rela.tdata .rela.tdata.* .rela.gnu.linkonce.td.*)
 *(.rel.tbss .rel.tbss.* .rel.gnu.linkonce.tb.*)
 *(.rela.tbss .rela.tbss.* .rela.gnu.linkonce.tb.*)
 *(.rel.ctors)
 *(.rela.ctors)
 *(.rel.dtors)
 *(.rela.dtors)
 *(.rel.got)
 *(.rela.got)
 *(.rel.sdata .rel.sdata.* .rel.gnu.linkonce.s.*)
 *(.rela.sdata .rela.sdata.* .rela.gnu.linkonce.s.*)
 *(.rel.sbss .rel.sbss.* .rel.gnu.linkonce.sb.*)
 *(.rela.sbss .rela.sbss.* .rela.gnu.linkonce.sb.*)
 *(.rel.sdata2 .rel.sdata2.* .rel.gnu.linkonce.s2.*)
 *(.rela.sdata2 .rela.sdata2.* .rela.gnu.linkonce.s2.*)
 *(.rel.sbss2 .rel.sbss2.* .rel.gnu.linkonce.sb2.*)
 *(.rela.sbss2 .rela.sbss2.* .rela.gnu.linkonce.sb2.*)
 *(.rel.bss .rel.bss.* .rel.gnu.linkonce.b.*)
 *(.rela.bss .rela.bss.* .rela.gnu.linkonce.b.*)
 *(.rel.plt)
 *(.rela.plt)
 *(.rel.dyn)
 *(.init)
 *(.plt)
 *(.text .stub .text.* .gnu.linkonce.t.*)
 .text          0x0000000005000224       0x3c /home/nikola/PNRS/pnrs-2023/de1-soc-demo/sw/nios/individual/paper_bsp//obj/HAL/src/crt0.o
                0x0000000005000224                _start
 .text          0x0000000005000260      0x274 obj/default/paper.o
                0x00000000050002d8                resource_mutex_lock
                0x000000000500032c                release_resources
                0x000000000500038c                notify_mutex_unlock
                0x00000000050003e4                notify_agent
                0x0000000005000420                main
 .text          0x00000000050004d4        0x0 /home/nikola/intelFPGA_lite/21.1/nios2eds/bin/gnu/H-x86_64-pc-linux-gnu/bin/../lib/gcc/nios2-elf/10.3.1/../../../../../H-x86_64-pc-linux-gnu/nios2-elf/lib/mno-hw-mul/libc.a(lib_a-puts.o)
 .text._puts_r  0x00000000050004d4       0xcc /home/nikola/intelFPGA_lite/21.1/nios2eds/bin/gnu/H-x86_64-pc-linux-gnu/bin/../lib/gcc/nios2-elf/10.3.1/../../../../../H-x86_64-pc-linux-gnu/nios2-elf/lib/mno-hw-mul/libc.a(lib_a-puts.o)
                0x00000000050004d4                _puts_r
 .text.puts     0x00000000050005a0       0x10 /home/nikola/intelFPGA_lite/21.1/nios2eds/bin/gnu/H-x86_64-pc-linux-gnu/bin/../lib/gcc/nios2-elf/10.3.1/../../../../../H-x86_64-pc-linux-gnu/nios2-elf/lib/mno-hw-mul/libc.a(lib_a-puts.o)
                0x00000000050005a0                puts
 .text          0x00000000050005b0        0x0 /home/nikola/intelFPGA_lite/21.1/nios2eds/bin/gnu/H-x86_64-pc-linux-gnu/bin/../lib/gcc/nios2-elf/10.3.1/../../../../../H-x86_64-pc-linux-gnu/nios2-elf/lib/mno-hw-mul/libc.a(lib_a-strlen.o)
 .text.strlen   0x00000000050005b0       0x98 /home/nikola/intelFPGA_lite/21.1/nios2eds/bin/gnu/H-x86_64-pc-linux-gnu/bin/../lib/gcc/nios2-elf/10.3.1/../../../../../H-x86_64-pc-linux-gnu/nios2-elf/lib/mno-hw-mul/libc.a(lib_a-strlen.o)
                0x00000000050005b0                strlen
 .text          0x0000000005000648        0x0 /home/nikola/intelFPGA_lite/21.1/nios2eds/bin/gnu/H-x86_64-pc-linux-gnu/bin/../lib/gcc/nios2-elf/10.3.1/../../../../../H-x86_64-pc-linux-gnu/nios2-elf/lib/mno-hw-mul/libc.a(lib_a-findfp.o)
 .text.__fp_lock
                0x0000000005000648        0x8 /home/nikola/intelFPGA_lite/21.1/nios2eds/bin/gnu/H-x86_64-pc-linux-gnu/bin/../lib/gcc/nios2-elf/10.3.1/../../../../../H-x86_64-pc-linux-gnu/nios2-elf/lib/mno-hw-mul/libc.a(lib_a-findfp.o)
 .text._cleanup_r
                0x0000000005000650        0xc /home/nikola/intelFPGA_lite/21.1/nios2eds/bin/gnu/H-x86_64-pc-linux-gnu/bin/../lib/gcc/nios2-elf/10.3.1/../../../../../H-x86_64-pc-linux-gnu/nios2-elf/lib/mno-hw-mul/libc.a(lib_a-findfp.o)
                0x0000000005000650                _cleanup_r
 .text.__fp_unlock
                0x000000000500065c        0x8 /home/nikola/intelFPGA_lite/21.1/nios2eds/bin/gnu/H-x86_64-pc-linux-gnu/bin/../lib/gcc/nios2-elf/10.3.1/../../../../../H-x86_64-pc-linux-gnu/nios2-elf/lib/mno-hw-mul/libc.a(lib_a-findfp.o)
 .text.__sinit.part.0
                0x0000000005000664      0x168 /home/nikola/intelFPGA_lite/21.1/nios2eds/bin/gnu/H-x86_64-pc-linux-gnu/bin/../lib/gcc/nios2-elf/10.3.1/../../../../../H-x86_64-pc-linux-gnu/nios2-elf/lib/mno-hw-mul/libc.a(lib_a-findfp.o)
 .text.__sfmoreglue
                0x00000000050007cc       0x78 /home/nikola/intelFPGA_lite/21.1/nios2eds/bin/gnu/H-x86_64-pc-linux-gnu/bin/../lib/gcc/nios2-elf/10.3.1/../../../../../H-x86_64-pc-linux-gnu/nios2-elf/lib/mno-hw-mul/libc.a(lib_a-findfp.o)
                0x00000000050007cc                __sfmoreglue
 .text.__sfp    0x0000000005000844      0x154 /home/nikola/intelFPGA_lite/21.1/nios2eds/bin/gnu/H-x86_64-pc-linux-gnu/bin/../lib/gcc/nios2-elf/10.3.1/../../../../../H-x86_64-pc-linux-gnu/nios2-elf/lib/mno-hw-mul/libc.a(lib_a-findfp.o)
                0x0000000005000844                __sfp
 .text._cleanup
                0x0000000005000998       0x14 /home/nikola/intelFPGA_lite/21.1/nios2eds/bin/gnu/H-x86_64-pc-linux-gnu/bin/../lib/gcc/nios2-elf/10.3.1/../../../../../H-x86_64-pc-linux-gnu/nios2-elf/lib/mno-hw-mul/libc.a(lib_a-findfp.o)
                0x0000000005000998                _cleanup
 .text.__sinit  0x00000000050009ac       0x10 /home/nikola/intelFPGA_lite/21.1/nios2eds/bin/gnu/H-x86_64-pc-linux-gnu/bin/../lib/gcc/nios2-elf/10.3.1/../../../../../H-x86_64-pc-linux-gnu/nios2-elf/lib/mno-hw-mul/libc.a(lib_a-findfp.o)
                0x00000000050009ac                __sinit
 .text.__sfp_lock_acquire
                0x00000000050009bc        0x4 /home/nikola/intelFPGA_lite/21.1/nios2eds/bin/gnu/H-x86_64-pc-linux-gnu/bin/../lib/gcc/nios2-elf/10.3.1/../../../../../H-x86_64-pc-linux-gnu/nios2-elf/lib/mno-hw-mul/libc.a(lib_a-findfp.o)
                0x00000000050009bc                __sfp_lock_acquire
 .text.__sfp_lock_release
                0x00000000050009c0        0x4 /home/nikola/intelFPGA_lite/21.1/nios2eds/bin/gnu/H-x86_64-pc-linux-gnu/bin/../lib/gcc/nios2-elf/10.3.1/../../../../../H-x86_64-pc-linux-gnu/nios2-elf/lib/mno-hw-mul/libc.a(lib_a-findfp.o)
                0x00000000050009c0                __sfp_lock_release
 .text.__sinit_lock_acquire
                0x00000000050009c4        0x4 /home/nikola/intelFPGA_lite/21.1/nios2eds/bin/gnu/H-x86_64-pc-linux-gnu/bin/../lib/gcc/nios2-elf/10.3.1/../../../../../H-x86_64-pc-linux-gnu/nios2-elf/lib/mno-hw-mul/libc.a(lib_a-findfp.o)
                0x00000000050009c4                __sinit_lock_acquire
 .text.__sinit_lock_release
                0x00000000050009c8        0x4 /home/nikola/intelFPGA_lite/21.1/nios2eds/bin/gnu/H-x86_64-pc-linux-gnu/bin/../lib/gcc/nios2-elf/10.3.1/../../../../../H-x86_64-pc-linux-gnu/nios2-elf/lib/mno-hw-mul/libc.a(lib_a-findfp.o)
                0x00000000050009c8                __sinit_lock_release
 .text.__fp_lock_all
                0x00000000050009cc       0x14 /home/nikola/intelFPGA_lite/21.1/nios2eds/bin/gnu/H-x86_64-pc-linux-gnu/bin/../lib/gcc/nios2-elf/10.3.1/../../../../../H-x86_64-pc-linux-gnu/nios2-elf/lib/mno-hw-mul/libc.a(lib_a-findfp.o)
                0x00000000050009cc                __fp_lock_all
 .text.__fp_unlock_all
                0x00000000050009e0       0x14 /home/nikola/intelFPGA_lite/21.1/nios2eds/bin/gnu/H-x86_64-pc-linux-gnu/bin/../lib/gcc/nios2-elf/10.3.1/../../../../../H-x86_64-pc-linux-gnu/nios2-elf/lib/mno-hw-mul/libc.a(lib_a-findfp.o)
                0x00000000050009e0                __fp_unlock_all
 .text          0x00000000050009f4        0x0 /home/nikola/intelFPGA_lite/21.1/nios2eds/bin/gnu/H-x86_64-pc-linux-gnu/bin/../lib/gcc/nios2-elf/10.3.1/../../../../../H-x86_64-pc-linux-gnu/nios2-elf/lib/mno-hw-mul/libc.a(lib_a-fvwrite.o)
 .text.__sfvwrite_r
                0x00000000050009f4      0x494 /home/nikola/intelFPGA_lite/21.1/nios2eds/bin/gnu/H-x86_64-pc-linux-gnu/bin/../lib/gcc/nios2-elf/10.3.1/../../../../../H-x86_64-pc-linux-gnu/nios2-elf/lib/mno-hw-mul/libc.a(lib_a-fvwrite.o)
                0x00000000050009f4                __sfvwrite_r
 .text          0x0000000005000e88        0x0 /home/nikola/intelFPGA_lite/21.1/nios2eds/bin/gnu/H-x86_64-pc-linux-gnu/bin/../lib/gcc/nios2-elf/10.3.1/../../../../../H-x86_64-pc-linux-gnu/nios2-elf/lib/mno-hw-mul/libc.a(lib_a-fwalk.o)
 .text._fwalk   0x0000000005000e88       0x98 /home/nikola/intelFPGA_lite/21.1/nios2eds/bin/gnu/H-x86_64-pc-linux-gnu/bin/../lib/gcc/nios2-elf/10.3.1/../../../../../H-x86_64-pc-linux-gnu/nios2-elf/lib/mno-hw-mul/libc.a(lib_a-fwalk.o)
                0x0000000005000e88                _fwalk
 .text._fwalk_reent
                0x0000000005000f20       0xa8 /home/nikola/intelFPGA_lite/21.1/nios2eds/bin/gnu/H-x86_64-pc-linux-gnu/bin/../lib/gcc/nios2-elf/10.3.1/../../../../../H-x86_64-pc-linux-gnu/nios2-elf/lib/mno-hw-mul/libc.a(lib_a-fwalk.o)
                0x0000000005000f20                _fwalk_reent
 .text          0x0000000005000fc8        0x0 /home/nikola/intelFPGA_lite/21.1/nios2eds/bin/gnu/H-x86_64-pc-linux-gnu/bin/../lib/gcc/nios2-elf/10.3.1/../../../../../H-x86_64-pc-linux-gnu/nios2-elf/lib/mno-hw-mul/libc.a(lib_a-impure.o)
 .text          0x0000000005000fc8        0x0 /home/nikola/intelFPGA_lite/21.1/nios2eds/bin/gnu/H-x86_64-pc-linux-gnu/bin/../lib/gcc/nios2-elf/10.3.1/../../../../../H-x86_64-pc-linux-gnu/nios2-elf/lib/mno-hw-mul/libc.a(lib_a-mallocr.o)
 .text._malloc_r
                0x0000000005000fc8      0x7e0 /home/nikola/intelFPGA_lite/21.1/nios2eds/bin/gnu/H-x86_64-pc-linux-gnu/bin/../lib/gcc/nios2-elf/10.3.1/../../../../../H-x86_64-pc-linux-gnu/nios2-elf/lib/mno-hw-mul/libc.a(lib_a-mallocr.o)
                0x0000000005000fc8                _malloc_r
 .text          0x00000000050017a8        0x0 /home/nikola/intelFPGA_lite/21.1/nios2eds/bin/gnu/H-x86_64-pc-linux-gnu/bin/../lib/gcc/nios2-elf/10.3.1/../../../../../H-x86_64-pc-linux-gnu/nios2-elf/lib/mno-hw-mul/libc.a(lib_a-memchr.o)
 .text.memchr   0x00000000050017a8       0xd0 /home/nikola/intelFPGA_lite/21.1/nios2eds/bin/gnu/H-x86_64-pc-linux-gnu/bin/../lib/gcc/nios2-elf/10.3.1/../../../../../H-x86_64-pc-linux-gnu/nios2-elf/lib/mno-hw-mul/libc.a(lib_a-memchr.o)
                0x00000000050017a8                memchr
 .text          0x0000000005001878        0x0 /home/nikola/intelFPGA_lite/21.1/nios2eds/bin/gnu/H-x86_64-pc-linux-gnu/bin/../lib/gcc/nios2-elf/10.3.1/../../../../../H-x86_64-pc-linux-gnu/nios2-elf/lib/mno-hw-mul/libc.a(lib_a-memcpy.o)
 .text.memcpy   0x0000000005001878      0x100 /home/nikola/intelFPGA_lite/21.1/nios2eds/bin/gnu/H-x86_64-pc-linux-gnu/bin/../lib/gcc/nios2-elf/10.3.1/../../../../../H-x86_64-pc-linux-gnu/nios2-elf/lib/mno-hw-mul/libc.a(lib_a-memcpy.o)
                0x0000000005001878                memcpy
 .text          0x0000000005001978        0x0 /home/nikola/intelFPGA_lite/21.1/nios2eds/bin/gnu/H-x86_64-pc-linux-gnu/bin/../lib/gcc/nios2-elf/10.3.1/../../../../../H-x86_64-pc-linux-gnu/nios2-elf/lib/mno-hw-mul/libc.a(lib_a-memmove.o)
 .text.memmove  0x0000000005001978      0x12c /home/nikola/intelFPGA_lite/21.1/nios2eds/bin/gnu/H-x86_64-pc-linux-gnu/bin/../lib/gcc/nios2-elf/10.3.1/../../../../../H-x86_64-pc-linux-gnu/nios2-elf/lib/mno-hw-mul/libc.a(lib_a-memmove.o)
                0x0000000005001978                memmove
 .text          0x0000000005001aa4        0x0 /home/nikola/intelFPGA_lite/21.1/nios2eds/bin/gnu/H-x86_64-pc-linux-gnu/bin/../lib/gcc/nios2-elf/10.3.1/../../../../../H-x86_64-pc-linux-gnu/nios2-elf/lib/mno-hw-mul/libc.a(lib_a-memset.o)
 .text.memset   0x0000000005001aa4       0xf0 /home/nikola/intelFPGA_lite/21.1/nios2eds/bin/gnu/H-x86_64-pc-linux-gnu/bin/../lib/gcc/nios2-elf/10.3.1/../../../../../H-x86_64-pc-linux-gnu/nios2-elf/lib/mno-hw-mul/libc.a(lib_a-memset.o)
                0x0000000005001aa4                memset
 .text          0x0000000005001b94        0x0 /home/nikola/intelFPGA_lite/21.1/nios2eds/bin/gnu/H-x86_64-pc-linux-gnu/bin/../lib/gcc/nios2-elf/10.3.1/../../../../../H-x86_64-pc-linux-gnu/nios2-elf/lib/mno-hw-mul/libc.a(lib_a-reallocr.o)
 .text._realloc_r
                0x0000000005001b94      0x53c /home/nikola/intelFPGA_lite/21.1/nios2eds/bin/gnu/H-x86_64-pc-linux-gnu/bin/../lib/gcc/nios2-elf/10.3.1/../../../../../H-x86_64-pc-linux-gnu/nios2-elf/lib/mno-hw-mul/libc.a(lib_a-reallocr.o)
                0x0000000005001b94                _realloc_r
 .text          0x00000000050020d0        0x0 /home/nikola/intelFPGA_lite/21.1/nios2eds/bin/gnu/H-x86_64-pc-linux-gnu/bin/../lib/gcc/nios2-elf/10.3.1/../../../../../H-x86_64-pc-linux-gnu/nios2-elf/lib/mno-hw-mul/libc.a(lib_a-sbrkr.o)
 .text._sbrk_r  0x00000000050020d0       0x58 /home/nikola/intelFPGA_lite/21.1/nios2eds/bin/gnu/H-x86_64-pc-linux-gnu/bin/../lib/gcc/nios2-elf/10.3.1/../../../../../H-x86_64-pc-linux-gnu/nios2-elf/lib/mno-hw-mul/libc.a(lib_a-sbrkr.o)
                0x00000000050020d0                _sbrk_r
 .text          0x0000000005002128        0x0 /home/nikola/intelFPGA_lite/21.1/nios2eds/bin/gnu/H-x86_64-pc-linux-gnu/bin/../lib/gcc/nios2-elf/10.3.1/../../../../../H-x86_64-pc-linux-gnu/nios2-elf/lib/mno-hw-mul/libc.a(lib_a-stdio.o)
 .text.__sread  0x0000000005002128       0x54 /home/nikola/intelFPGA_lite/21.1/nios2eds/bin/gnu/H-x86_64-pc-linux-gnu/bin/../lib/gcc/nios2-elf/10.3.1/../../../../../H-x86_64-pc-linux-gnu/nios2-elf/lib/mno-hw-mul/libc.a(lib_a-stdio.o)
                0x0000000005002128                __sread
 .text.__seofread
                0x000000000500217c        0x8 /home/nikola/intelFPGA_lite/21.1/nios2eds/bin/gnu/H-x86_64-pc-linux-gnu/bin/../lib/gcc/nios2-elf/10.3.1/../../../../../H-x86_64-pc-linux-gnu/nios2-elf/lib/mno-hw-mul/libc.a(lib_a-stdio.o)
                0x000000000500217c                __seofread
 .text.__swrite
                0x0000000005002184       0x80 /home/nikola/intelFPGA_lite/21.1/nios2eds/bin/gnu/H-x86_64-pc-linux-gnu/bin/../lib/gcc/nios2-elf/10.3.1/../../../../../H-x86_64-pc-linux-gnu/nios2-elf/lib/mno-hw-mul/libc.a(lib_a-stdio.o)
                0x0000000005002184                __swrite
 .text.__sseek  0x0000000005002204       0x5c /home/nikola/intelFPGA_lite/21.1/nios2eds/bin/gnu/H-x86_64-pc-linux-gnu/bin/../lib/gcc/nios2-elf/10.3.1/../../../../../H-x86_64-pc-linux-gnu/nios2-elf/lib/mno-hw-mul/libc.a(lib_a-stdio.o)
                0x0000000005002204                __sseek
 .text.__sclose
                0x0000000005002260        0x8 /home/nikola/intelFPGA_lite/21.1/nios2eds/bin/gnu/H-x86_64-pc-linux-gnu/bin/../lib/gcc/nios2-elf/10.3.1/../../../../../H-x86_64-pc-linux-gnu/nios2-elf/lib/mno-hw-mul/libc.a(lib_a-stdio.o)
                0x0000000005002260                __sclose
 .text          0x0000000005002268        0x0 /home/nikola/intelFPGA_lite/21.1/nios2eds/bin/gnu/H-x86_64-pc-linux-gnu/bin/../lib/gcc/nios2-elf/10.3.1/../../../../../H-x86_64-pc-linux-gnu/nios2-elf/lib/mno-hw-mul/libc.a(lib_a-writer.o)
 .text._write_r
                0x0000000005002268       0x64 /home/nikola/intelFPGA_lite/21.1/nios2eds/bin/gnu/H-x86_64-pc-linux-gnu/bin/../lib/gcc/nios2-elf/10.3.1/../../../../../H-x86_64-pc-linux-gnu/nios2-elf/lib/mno-hw-mul/libc.a(lib_a-writer.o)
                0x0000000005002268                _write_r
 .text          0x00000000050022cc        0x0 /home/nikola/intelFPGA_lite/21.1/nios2eds/bin/gnu/H-x86_64-pc-linux-gnu/bin/../lib/gcc/nios2-elf/10.3.1/../../../../../H-x86_64-pc-linux-gnu/nios2-elf/lib/mno-hw-mul/libc.a(lib_a-wsetup.o)
 .text.__swsetup_r
                0x00000000050022cc      0x164 /home/nikola/intelFPGA_lite/21.1/nios2eds/bin/gnu/H-x86_64-pc-linux-gnu/bin/../lib/gcc/nios2-elf/10.3.1/../../../../../H-x86_64-pc-linux-gnu/nios2-elf/lib/mno-hw-mul/libc.a(lib_a-wsetup.o)
                0x00000000050022cc                __swsetup_r
 .text          0x0000000005002430        0x0 /home/nikola/intelFPGA_lite/21.1/nios2eds/bin/gnu/H-x86_64-pc-linux-gnu/bin/../lib/gcc/nios2-elf/10.3.1/../../../../../H-x86_64-pc-linux-gnu/nios2-elf/lib/mno-hw-mul/libc.a(closer.o)
 .text._close_r
                0x0000000005002430       0x58 /home/nikola/intelFPGA_lite/21.1/nios2eds/bin/gnu/H-x86_64-pc-linux-gnu/bin/../lib/gcc/nios2-elf/10.3.1/../../../../../H-x86_64-pc-linux-gnu/nios2-elf/lib/mno-hw-mul/libc.a(closer.o)
                0x0000000005002430                _close_r
 .text          0x0000000005002488        0x0 /home/nikola/intelFPGA_lite/21.1/nios2eds/bin/gnu/H-x86_64-pc-linux-gnu/bin/../lib/gcc/nios2-elf/10.3.1/../../../../../H-x86_64-pc-linux-gnu/nios2-elf/lib/mno-hw-mul/libc.a(lib_a-fclose.o)
 .text._fclose_r.part.0
                0x0000000005002488       0xc0 /home/nikola/intelFPGA_lite/21.1/nios2eds/bin/gnu/H-x86_64-pc-linux-gnu/bin/../lib/gcc/nios2-elf/10.3.1/../../../../../H-x86_64-pc-linux-gnu/nios2-elf/lib/mno-hw-mul/libc.a(lib_a-fclose.o)
 .text._fclose_r
                0x0000000005002548       0x70 /home/nikola/intelFPGA_lite/21.1/nios2eds/bin/gnu/H-x86_64-pc-linux-gnu/bin/../lib/gcc/nios2-elf/10.3.1/../../../../../H-x86_64-pc-linux-gnu/nios2-elf/lib/mno-hw-mul/libc.a(lib_a-fclose.o)
                0x0000000005002548                _fclose_r
 .text.fclose   0x00000000050025b8       0x70 /home/nikola/intelFPGA_lite/21.1/nios2eds/bin/gnu/H-x86_64-pc-linux-gnu/bin/../lib/gcc/nios2-elf/10.3.1/../../../../../H-x86_64-pc-linux-gnu/nios2-elf/lib/mno-hw-mul/libc.a(lib_a-fclose.o)
                0x00000000050025b8                fclose
 .text          0x0000000005002628        0x0 /home/nikola/intelFPGA_lite/21.1/nios2eds/bin/gnu/H-x86_64-pc-linux-gnu/bin/../lib/gcc/nios2-elf/10.3.1/../../../../../H-x86_64-pc-linux-gnu/nios2-elf/lib/mno-hw-mul/libc.a(lib_a-fflush.o)
 .text.__sflush_r
                0x0000000005002628      0x228 /home/nikola/intelFPGA_lite/21.1/nios2eds/bin/gnu/H-x86_64-pc-linux-gnu/bin/../lib/gcc/nios2-elf/10.3.1/../../../../../H-x86_64-pc-linux-gnu/nios2-elf/lib/mno-hw-mul/libc.a(lib_a-fflush.o)
                0x0000000005002628                __sflush_r
 .text._fflush_r
                0x0000000005002850       0x60 /home/nikola/intelFPGA_lite/21.1/nios2eds/bin/gnu/H-x86_64-pc-linux-gnu/bin/../lib/gcc/nios2-elf/10.3.1/../../../../../H-x86_64-pc-linux-gnu/nios2-elf/lib/mno-hw-mul/libc.a(lib_a-fflush.o)
                0x0000000005002850                _fflush_r
 .text.fflush   0x00000000050028b0       0x84 /home/nikola/intelFPGA_lite/21.1/nios2eds/bin/gnu/H-x86_64-pc-linux-gnu/bin/../lib/gcc/nios2-elf/10.3.1/../../../../../H-x86_64-pc-linux-gnu/nios2-elf/lib/mno-hw-mul/libc.a(lib_a-fflush.o)
                0x00000000050028b0                fflush
 .text          0x0000000005002934        0x0 /home/nikola/intelFPGA_lite/21.1/nios2eds/bin/gnu/H-x86_64-pc-linux-gnu/bin/../lib/gcc/nios2-elf/10.3.1/../../../../../H-x86_64-pc-linux-gnu/nios2-elf/lib/mno-hw-mul/libc.a(lib_a-freer.o)
 .text._malloc_trim_r
                0x0000000005002934      0x11c /home/nikola/intelFPGA_lite/21.1/nios2eds/bin/gnu/H-x86_64-pc-linux-gnu/bin/../lib/gcc/nios2-elf/10.3.1/../../../../../H-x86_64-pc-linux-gnu/nios2-elf/lib/mno-hw-mul/libc.a(lib_a-freer.o)
                0x0000000005002934                _malloc_trim_r
 .text._free_r  0x0000000005002a50      0x2fc /home/nikola/intelFPGA_lite/21.1/nios2eds/bin/gnu/H-x86_64-pc-linux-gnu/bin/../lib/gcc/nios2-elf/10.3.1/../../../../../H-x86_64-pc-linux-gnu/nios2-elf/lib/mno-hw-mul/libc.a(lib_a-freer.o)
                0x0000000005002a50                _free_r
 .text          0x0000000005002d4c        0x0 /home/nikola/intelFPGA_lite/21.1/nios2eds/bin/gnu/H-x86_64-pc-linux-gnu/bin/../lib/gcc/nios2-elf/10.3.1/../../../../../H-x86_64-pc-linux-gnu/nios2-elf/lib/mno-hw-mul/libc.a(lib_a-int_errno.o)
 .text          0x0000000005002d4c        0x0 /home/nikola/intelFPGA_lite/21.1/nios2eds/bin/gnu/H-x86_64-pc-linux-gnu/bin/../lib/gcc/nios2-elf/10.3.1/../../../../../H-x86_64-pc-linux-gnu/nios2-elf/lib/mno-hw-mul/libc.a(lib_a-lseekr.o)
 .text._lseek_r
                0x0000000005002d4c       0x64 /home/nikola/intelFPGA_lite/21.1/nios2eds/bin/gnu/H-x86_64-pc-linux-gnu/bin/../lib/gcc/nios2-elf/10.3.1/../../../../../H-x86_64-pc-linux-gnu/nios2-elf/lib/mno-hw-mul/libc.a(lib_a-lseekr.o)
                0x0000000005002d4c                _lseek_r
 .text          0x0000000005002db0        0x0 /home/nikola/intelFPGA_lite/21.1/nios2eds/bin/gnu/H-x86_64-pc-linux-gnu/bin/../lib/gcc/nios2-elf/10.3.1/../../../../../H-x86_64-pc-linux-gnu/nios2-elf/lib/mno-hw-mul/libc.a(lib_a-makebuf.o)
 .text.__smakebuf_r
                0x0000000005002db0      0x1b0 /home/nikola/intelFPGA_lite/21.1/nios2eds/bin/gnu/H-x86_64-pc-linux-gnu/bin/../lib/gcc/nios2-elf/10.3.1/../../../../../H-x86_64-pc-linux-gnu/nios2-elf/lib/mno-hw-mul/libc.a(lib_a-makebuf.o)
                0x0000000005002db0                __smakebuf_r
 .text.__swhatbuf_r
                0x0000000005002f60       0x98 /home/nikola/intelFPGA_lite/21.1/nios2eds/bin/gnu/H-x86_64-pc-linux-gnu/bin/../lib/gcc/nios2-elf/10.3.1/../../../../../H-x86_64-pc-linux-gnu/nios2-elf/lib/mno-hw-mul/libc.a(lib_a-makebuf.o)
                0x0000000005002f60                __swhatbuf_r
 .text          0x0000000005002ff8        0x0 /home/nikola/intelFPGA_lite/21.1/nios2eds/bin/gnu/H-x86_64-pc-linux-gnu/bin/../lib/gcc/nios2-elf/10.3.1/../../../../../H-x86_64-pc-linux-gnu/nios2-elf/lib/mno-hw-mul/libc.a(lib_a-readr.o)
 .text._read_r  0x0000000005002ff8       0x64 /home/nikola/intelFPGA_lite/21.1/nios2eds/bin/gnu/H-x86_64-pc-linux-gnu/bin/../lib/gcc/nios2-elf/10.3.1/../../../../../H-x86_64-pc-linux-gnu/nios2-elf/lib/mno-hw-mul/libc.a(lib_a-readr.o)
                0x0000000005002ff8                _read_r
 .text          0x000000000500305c        0x0 /home/nikola/intelFPGA_lite/21.1/nios2eds/bin/gnu/H-x86_64-pc-linux-gnu/bin/../lib/gcc/nios2-elf/10.3.1/../../../../../H-x86_64-pc-linux-gnu/nios2-elf/lib/mno-hw-mul/libc.a(lib_a-fstatr.o)
 .text._fstat_r
                0x000000000500305c       0x60 /home/nikola/intelFPGA_lite/21.1/nios2eds/bin/gnu/H-x86_64-pc-linux-gnu/bin/../lib/gcc/nios2-elf/10.3.1/../../../../../H-x86_64-pc-linux-gnu/nios2-elf/lib/mno-hw-mul/libc.a(lib_a-fstatr.o)
                0x000000000500305c                _fstat_r
 .text          0x00000000050030bc        0x0 /home/nikola/intelFPGA_lite/21.1/nios2eds/bin/gnu/H-x86_64-pc-linux-gnu/bin/../lib/gcc/nios2-elf/10.3.1/../../../../../H-x86_64-pc-linux-gnu/nios2-elf/lib/mno-hw-mul/libc.a(lib_a-isattyr.o)
 .text._isatty_r
                0x00000000050030bc       0x58 /home/nikola/intelFPGA_lite/21.1/nios2eds/bin/gnu/H-x86_64-pc-linux-gnu/bin/../lib/gcc/nios2-elf/10.3.1/../../../../../H-x86_64-pc-linux-gnu/nios2-elf/lib/mno-hw-mul/libc.a(lib_a-isattyr.o)
                0x00000000050030bc                _isatty_r
 .text          0x0000000005003114      0x1b4 /home/nikola/intelFPGA_lite/21.1/nios2eds/bin/gnu/H-x86_64-pc-linux-gnu/bin/../lib/gcc/nios2-elf/10.3.1/mno-hw-mul/libgcc.a(lib2-divmod.o)
                0x0000000005003114                __divsi3
                0x0000000005003194                __modsi3
                0x0000000005003208                __udivsi3
                0x000000000500326c                __umodsi3
 .text          0x00000000050032c8       0x28 /home/nikola/intelFPGA_lite/21.1/nios2eds/bin/gnu/H-x86_64-pc-linux-gnu/bin/../lib/gcc/nios2-elf/10.3.1/mno-hw-mul/libgcc.a(lib2-mul.o)
                0x00000000050032c8                __mulsi3
 .text          0x00000000050032f0      0x118 /home/nikola/PNRS/pnrs-2023/de1-soc-demo/sw/nios/individual/paper_bsp//libhal_bsp.a(alt_close.o)
                0x000000000500332c                close
 .text          0x0000000005003408       0x2c /home/nikola/PNRS/pnrs-2023/de1-soc-demo/sw/nios/individual/paper_bsp//libhal_bsp.a(alt_dev.o)
 .text          0x0000000005003434        0x0 /home/nikola/PNRS/pnrs-2023/de1-soc-demo/sw/nios/individual/paper_bsp//libhal_bsp.a(alt_errno.o)
 .text          0x0000000005003434       0xf8 /home/nikola/PNRS/pnrs-2023/de1-soc-demo/sw/nios/individual/paper_bsp//libhal_bsp.a(alt_fstat.o)
                0x0000000005003470                fstat
 .text          0x000000000500352c       0xec /home/nikola/PNRS/pnrs-2023/de1-soc-demo/sw/nios/individual/paper_bsp//libhal_bsp.a(alt_isatty.o)
                0x0000000005003568                isatty
 .text          0x0000000005003618       0xec /home/nikola/PNRS/pnrs-2023/de1-soc-demo/sw/nios/individual/paper_bsp//libhal_bsp.a(alt_load.o)
                0x0000000005003680                alt_load
 .text          0x0000000005003704      0x11c /home/nikola/PNRS/pnrs-2023/de1-soc-demo/sw/nios/individual/paper_bsp//libhal_bsp.a(alt_lseek.o)
                0x0000000005003740                lseek
 .text          0x0000000005003820       0x7c /home/nikola/PNRS/pnrs-2023/de1-soc-demo/sw/nios/individual/paper_bsp//libhal_bsp.a(alt_main.o)
                0x0000000005003820                alt_main
 .text          0x000000000500389c       0x48 /home/nikola/PNRS/pnrs-2023/de1-soc-demo/sw/nios/individual/paper_bsp//libhal_bsp.a(alt_malloc_lock.o)
                0x000000000500389c                __malloc_lock
                0x00000000050038c0                __malloc_unlock
 .text          0x00000000050038e4      0x144 /home/nikola/PNRS/pnrs-2023/de1-soc-demo/sw/nios/individual/paper_bsp//libhal_bsp.a(alt_read.o)
                0x0000000005003920                read
 .text          0x0000000005003a28       0x70 /home/nikola/PNRS/pnrs-2023/de1-soc-demo/sw/nios/individual/paper_bsp//libhal_bsp.a(alt_release_fd.o)
                0x0000000005003a28                alt_release_fd
 .text          0x0000000005003a98       0xb8 /home/nikola/PNRS/pnrs-2023/de1-soc-demo/sw/nios/individual/paper_bsp//libhal_bsp.a(alt_sbrk.o)
                0x0000000005003a98                sbrk
 .text          0x0000000005003b50       0x30 /home/nikola/PNRS/pnrs-2023/de1-soc-demo/sw/nios/individual/paper_bsp//libhal_bsp.a(alt_usleep.o)
                0x0000000005003b50                usleep
 .text          0x0000000005003b80      0x140 /home/nikola/PNRS/pnrs-2023/de1-soc-demo/sw/nios/individual/paper_bsp//libhal_bsp.a(alt_write.o)
                0x0000000005003bbc                write
 .text          0x0000000005003cc0      0x1a4 /home/nikola/PNRS/pnrs-2023/de1-soc-demo/sw/nios/individual/paper_bsp//libhal_bsp.a(alt_sys_init.o)
                0x0000000005003d98                alt_irq_init
                0x0000000005003dd4                alt_sys_init
 .text          0x0000000005003e64      0x164 /home/nikola/PNRS/pnrs-2023/de1-soc-demo/sw/nios/individual/paper_bsp//libhal_bsp.a(altera_avalon_jtag_uart_fd.o)
                0x0000000005003e64                altera_avalon_jtag_uart_read_fd
                0x0000000005003ec4                altera_avalon_jtag_uart_write_fd
                0x0000000005003f24                altera_avalon_jtag_uart_close_fd
                0x0000000005003f74                altera_avalon_jtag_uart_ioctl_fd
 .text          0x0000000005003fc8      0x3d4 /home/nikola/PNRS/pnrs-2023/de1-soc-demo/sw/nios/individual/paper_bsp//libhal_bsp.a(altera_avalon_jtag_uart_init.o)
                0x0000000005003fc8                altera_avalon_jtag_uart_init
                0x0000000005004334                altera_avalon_jtag_uart_close
 .text          0x000000000500439c       0xf4 /home/nikola/PNRS/pnrs-2023/de1-soc-demo/sw/nios/individual/paper_bsp//libhal_bsp.a(altera_avalon_jtag_uart_ioctl.o)
                0x000000000500439c                altera_avalon_jtag_uart_ioctl
 .text          0x0000000005004490      0x220 /home/nikola/PNRS/pnrs-2023/de1-soc-demo/sw/nios/individual/paper_bsp//libhal_bsp.a(altera_avalon_jtag_uart_read.o)
                0x0000000005004490                altera_avalon_jtag_uart_read
 .text          0x00000000050046b0      0x228 /home/nikola/PNRS/pnrs-2023/de1-soc-demo/sw/nios/individual/paper_bsp//libhal_bsp.a(altera_avalon_jtag_uart_write.o)
                0x00000000050046b0                altera_avalon_jtag_uart_write
 .text          0x00000000050048d8      0x2d0 /home/nikola/PNRS/pnrs-2023/de1-soc-demo/sw/nios/individual/paper_bsp//libhal_bsp.a(altera_avalon_mutex.o)
                0x0000000005004990                altera_avalon_mutex_open
                0x00000000050049e4                altera_avalon_mutex_close
                0x0000000005004a08                altera_avalon_mutex_lock
                0x0000000005004a50                altera_avalon_mutex_trylock
                0x0000000005004a90                altera_avalon_mutex_unlock
                0x0000000005004ae4                altera_avalon_mutex_is_mine
                0x0000000005004b58                altera_avalon_mutex_first_lock
 .text          0x0000000005004ba8      0x100 /home/nikola/PNRS/pnrs-2023/de1-soc-demo/sw/nios/individual/paper_bsp//libhal_bsp.a(altera_avalon_timer_sc.o)
                0x0000000005004c24                alt_avalon_timer_sc_init
 .text          0x0000000005004ca8      0x160 /home/nikola/PNRS/pnrs-2023/de1-soc-demo/sw/nios/individual/paper_bsp//libhal_bsp.a(alt_alarm_start.o)
                0x0000000005004ca8                alt_alarm_start
 .text          0x0000000005004e08      0x158 /home/nikola/PNRS/pnrs-2023/de1-soc-demo/sw/nios/individual/paper_bsp//libhal_bsp.a(alt_busy_sleep.o)
                0x0000000005004e08                alt_busy_sleep
 .text          0x0000000005004f60       0x20 /home/nikola/PNRS/pnrs-2023/de1-soc-demo/sw/nios/individual/paper_bsp//libhal_bsp.a(alt_dcache_flush_all.o)
                0x0000000005004f60                alt_dcache_flush_all
 .text          0x0000000005004f80       0xe4 /home/nikola/PNRS/pnrs-2023/de1-soc-demo/sw/nios/individual/paper_bsp//libhal_bsp.a(alt_dev_llist_insert.o)
                0x0000000005004fbc                alt_dev_llist_insert
 .text          0x0000000005005064       0x64 /home/nikola/PNRS/pnrs-2023/de1-soc-demo/sw/nios/individual/paper_bsp//libhal_bsp.a(alt_do_ctors.o)
                0x0000000005005064                _do_ctors
 .text          0x00000000050050c8       0x64 /home/nikola/PNRS/pnrs-2023/de1-soc-demo/sw/nios/individual/paper_bsp//libhal_bsp.a(alt_do_dtors.o)
                0x00000000050050c8                _do_dtors
 .text          0x000000000500512c       0x90 /home/nikola/PNRS/pnrs-2023/de1-soc-demo/sw/nios/individual/paper_bsp//libhal_bsp.a(alt_find_dev.o)
                0x000000000500512c                alt_find_dev
 .text          0x00000000050051bc       0x20 /home/nikola/PNRS/pnrs-2023/de1-soc-demo/sw/nios/individual/paper_bsp//libhal_bsp.a(alt_icache_flush_all.o)
                0x00000000050051bc                alt_icache_flush_all
 .text          0x00000000050051dc      0x1b0 /home/nikola/PNRS/pnrs-2023/de1-soc-demo/sw/nios/individual/paper_bsp//libhal_bsp.a(alt_iic.o)
                0x00000000050051dc                alt_ic_isr_register
                0x000000000500522c                alt_ic_irq_enable
                0x00000000050052b4                alt_ic_irq_disable
                0x0000000005005340                alt_ic_irq_enabled
 .text          0x000000000500538c       0xe8 /home/nikola/PNRS/pnrs-2023/de1-soc-demo/sw/nios/individual/paper_bsp//libhal_bsp.a(alt_iic_isr_register.o)
                0x000000000500538c                alt_iic_isr_register
 .text          0x0000000005005474      0x150 /home/nikola/PNRS/pnrs-2023/de1-soc-demo/sw/nios/individual/paper_bsp//libhal_bsp.a(alt_io_redirect.o)
                0x0000000005005548                alt_io_redirect
 .text          0x00000000050055c4        0x0 /home/nikola/PNRS/pnrs-2023/de1-soc-demo/sw/nios/individual/paper_bsp//libhal_bsp.a(alt_irq_entry.o)
 .text          0x00000000050055c4        0x0 /home/nikola/PNRS/pnrs-2023/de1-soc-demo/sw/nios/individual/paper_bsp//libhal_bsp.a(alt_irq_handler.o)
 .text          0x00000000050055c4        0x0 /home/nikola/PNRS/pnrs-2023/de1-soc-demo/sw/nios/individual/paper_bsp//libhal_bsp.a(alt_irq_vars.o)
 .text          0x00000000050055c4      0x278 /home/nikola/PNRS/pnrs-2023/de1-soc-demo/sw/nios/individual/paper_bsp//libhal_bsp.a(alt_open.o)
                0x00000000050056dc                open
 .text          0x000000000500583c      0x1d0 /home/nikola/PNRS/pnrs-2023/de1-soc-demo/sw/nios/individual/paper_bsp//libhal_bsp.a(alt_tick.o)
                0x000000000500583c                alt_alarm_stop
                0x00000000050058e0                alt_tick
 .text          0x0000000005005a0c       0x24 /home/nikola/PNRS/pnrs-2023/de1-soc-demo/sw/nios/individual/paper_bsp//libhal_bsp.a(altera_nios2_gen2_irq.o)
                0x0000000005005a0c                altera_nios2_gen2_irq_init
 .text          0x0000000005005a30        0x0 /home/nikola/PNRS/pnrs-2023/de1-soc-demo/sw/nios/individual/paper_bsp//libhal_bsp.a(alt_exception_entry.o)
 .text          0x0000000005005a30      0x108 /home/nikola/PNRS/pnrs-2023/de1-soc-demo/sw/nios/individual/paper_bsp//libhal_bsp.a(alt_find_file.o)
                0x0000000005005a30                alt_find_file
 .text          0x0000000005005b38       0xb8 /home/nikola/PNRS/pnrs-2023/de1-soc-demo/sw/nios/individual/paper_bsp//libhal_bsp.a(alt_get_fd.o)
                0x0000000005005b38                alt_get_fd
 .text          0x0000000005005bf0       0x98 /home/nikola/PNRS/pnrs-2023/de1-soc-demo/sw/nios/individual/paper_bsp//libhal_bsp.a(alt_instruction_exception_entry.o)
                0x0000000005005bf0                alt_exception_cause_generated_bad_addr
 .text          0x0000000005005c88        0x0 /home/nikola/intelFPGA_lite/21.1/nios2eds/bin/gnu/H-x86_64-pc-linux-gnu/bin/../lib/gcc/nios2-elf/10.3.1/../../../../../H-x86_64-pc-linux-gnu/nios2-elf/lib/mno-hw-mul/libc.a(lib_a-atexit.o)
 .text.atexit   0x0000000005005c88       0x14 /home/nikola/intelFPGA_lite/21.1/nios2eds/bin/gnu/H-x86_64-pc-linux-gnu/bin/../lib/gcc/nios2-elf/10.3.1/../../../../../H-x86_64-pc-linux-gnu/nios2-elf/lib/mno-hw-mul/libc.a(lib_a-atexit.o)
                0x0000000005005c88                atexit
 .text          0x0000000005005c9c        0x0 /home/nikola/intelFPGA_lite/21.1/nios2eds/bin/gnu/H-x86_64-pc-linux-gnu/bin/../lib/gcc/nios2-elf/10.3.1/../../../../../H-x86_64-pc-linux-gnu/nios2-elf/lib/mno-hw-mul/libc.a(lib_a-exit.o)
 .text.exit     0x0000000005005c9c       0x34 /home/nikola/intelFPGA_lite/21.1/nios2eds/bin/gnu/H-x86_64-pc-linux-gnu/bin/../lib/gcc/nios2-elf/10.3.1/../../../../../H-x86_64-pc-linux-gnu/nios2-elf/lib/mno-hw-mul/libc.a(lib_a-exit.o)
                0x0000000005005c9c                exit
 .text          0x0000000005005cd0        0x0 /home/nikola/intelFPGA_lite/21.1/nios2eds/bin/gnu/H-x86_64-pc-linux-gnu/bin/../lib/gcc/nios2-elf/10.3.1/../../../../../H-x86_64-pc-linux-gnu/nios2-elf/lib/mno-hw-mul/libc.a(lib_a-memcmp.o)
 .text.memcmp   0x0000000005005cd0       0x78 /home/nikola/intelFPGA_lite/21.1/nios2eds/bin/gnu/H-x86_64-pc-linux-gnu/bin/../lib/gcc/nios2-elf/10.3.1/../../../../../H-x86_64-pc-linux-gnu/nios2-elf/lib/mno-hw-mul/libc.a(lib_a-memcmp.o)
                0x0000000005005cd0                memcmp
 .text          0x0000000005005d48        0x0 /home/nikola/intelFPGA_lite/21.1/nios2eds/bin/gnu/H-x86_64-pc-linux-gnu/bin/../lib/gcc/nios2-elf/10.3.1/../../../../../H-x86_64-pc-linux-gnu/nios2-elf/lib/mno-hw-mul/libc.a(lib_a-__atexit.o)
 .text.__register_exitproc
                0x0000000005005d48       0x90 /home/nikola/intelFPGA_lite/21.1/nios2eds/bin/gnu/H-x86_64-pc-linux-gnu/bin/../lib/gcc/nios2-elf/10.3.1/../../../../../H-x86_64-pc-linux-gnu/nios2-elf/lib/mno-hw-mul/libc.a(lib_a-__atexit.o)
                0x0000000005005d48                __register_exitproc
 .text          0x0000000005005dd8        0x0 /home/nikola/intelFPGA_lite/21.1/nios2eds/bin/gnu/H-x86_64-pc-linux-gnu/bin/../lib/gcc/nios2-elf/10.3.1/../../../../../H-x86_64-pc-linux-gnu/nios2-elf/lib/mno-hw-mul/libc.a(lib_a-__call_atexit.o)
 .text.__call_exitprocs
                0x0000000005005dd8      0x120 /home/nikola/intelFPGA_lite/21.1/nios2eds/bin/gnu/H-x86_64-pc-linux-gnu/bin/../lib/gcc/nios2-elf/10.3.1/../../../../../H-x86_64-pc-linux-gnu/nios2-elf/lib/mno-hw-mul/libc.a(lib_a-__call_atexit.o)
                0x0000000005005dd8                __call_exitprocs
 .text          0x0000000005005ef8       0x38 /home/nikola/PNRS/pnrs-2023/de1-soc-demo/sw/nios/individual/paper_bsp//libhal_bsp.a(alt_exit.o)
                0x0000000005005ef8                _exit
 *(.gnu.warning.*)
 *(.fini)
                [!provide]                        PROVIDE (__etext = ABSOLUTE (.))
                [!provide]                        PROVIDE (_etext = ABSOLUTE (.))
                [!provide]                        PROVIDE (etext = ABSOLUTE (.))
 *(.eh_frame_hdr)
                0x0000000005005f30                . = ALIGN (0x4)
                [!provide]                        PROVIDE (__preinit_array_start = ABSOLUTE (.))
 *(.preinit_array)
                [!provide]                        PROVIDE (__preinit_array_end = ABSOLUTE (.))
                [!provide]                        PROVIDE (__init_array_start = ABSOLUTE (.))
 *(.init_array)
                [!provide]                        PROVIDE (__init_array_end = ABSOLUTE (.))
                [!provide]                        PROVIDE (__fini_array_start = ABSOLUTE (.))
 *(.fini_array)
                [!provide]                        PROVIDE (__fini_array_end = ABSOLUTE (.))
 *(.eh_frame)
 *(.gcc_except_table .gcc_except_table.*)
 *(.dynamic)
                0x0000000005005f30                PROVIDE (__CTOR_LIST__ = ABSOLUTE (.))
 *(.ctors)
 *(SORT_BY_NAME(.ctors.*))
                0x0000000005005f30                PROVIDE (__CTOR_END__ = ABSOLUTE (.))
                0x0000000005005f30                PROVIDE (__DTOR_LIST__ = ABSOLUTE (.))
 *(.dtors)
 *(SORT_BY_NAME(.dtors.*))
                0x0000000005005f30                PROVIDE (__DTOR_END__ = ABSOLUTE (.))
 *(.jcr)
                0x0000000005005f30                . = ALIGN (0x4)

.rodata         0x0000000005005f30       0xd8
                0x0000000005005f30                PROVIDE (__ram_rodata_start = ABSOLUTE (.))
                0x0000000005005f30                . = ALIGN (0x4)
 *(.rodata .rodata.* .gnu.linkonce.r.*)
 .rodata        0x0000000005005f30       0x4f obj/default/paper.o
 *fill*         0x0000000005005f7f        0x1 
 .rodata._puts_r.str1.4
                0x0000000005005f80        0x2 /home/nikola/intelFPGA_lite/21.1/nios2eds/bin/gnu/H-x86_64-pc-linux-gnu/bin/../lib/gcc/nios2-elf/10.3.1/../../../../../H-x86_64-pc-linux-gnu/nios2-elf/lib/mno-hw-mul/libc.a(lib_a-puts.o)
 *fill*         0x0000000005005f82        0x2 
 .rodata        0x0000000005005f84        0xa /home/nikola/PNRS/pnrs-2023/de1-soc-demo/sw/nios/individual/paper_bsp//libhal_bsp.a(alt_dev.o)
 *fill*         0x0000000005005f8e        0x2 
 .rodata        0x0000000005005f90       0x11 /home/nikola/PNRS/pnrs-2023/de1-soc-demo/sw/nios/individual/paper_bsp//libhal_bsp.a(alt_main.o)
 *fill*         0x0000000005005fa1        0x3 
 .rodata        0x0000000005005fa4       0x63 /home/nikola/PNRS/pnrs-2023/de1-soc-demo/sw/nios/individual/paper_bsp//libhal_bsp.a(alt_sys_init.o)
 *(.rodata1)
                0x0000000005006008                . = ALIGN (0x4)
 *fill*         0x0000000005006007        0x1 
                0x0000000005006008                PROVIDE (__ram_rodata_end = ABSOLUTE (.))
                0x0000000005005f30                PROVIDE (__flash_rodata_start = LOADADDR (.rodata))

.rwdata         0x0000000005006008     0x1ab4 load address 0x0000000005007abc
                0x0000000005006008                PROVIDE (__ram_rwdata_start = ABSOLUTE (.))
                0x0000000005006008                . = ALIGN (0x4)
 *(.got.plt)
 *(.got)
 *(.data1)
 *(.data .data.* .gnu.linkonce.d.*)
 .data          0x0000000005006008        0x0 /home/nikola/PNRS/pnrs-2023/de1-soc-demo/sw/nios/individual/paper_bsp//obj/HAL/src/crt0.o
 .data          0x0000000005006008        0x0 obj/default/paper.o
 .data          0x0000000005006008        0x0 /home/nikola/intelFPGA_lite/21.1/nios2eds/bin/gnu/H-x86_64-pc-linux-gnu/bin/../lib/gcc/nios2-elf/10.3.1/../../../../../H-x86_64-pc-linux-gnu/nios2-elf/lib/mno-hw-mul/libc.a(lib_a-puts.o)
 .data          0x0000000005006008        0x0 /home/nikola/intelFPGA_lite/21.1/nios2eds/bin/gnu/H-x86_64-pc-linux-gnu/bin/../lib/gcc/nios2-elf/10.3.1/../../../../../H-x86_64-pc-linux-gnu/nios2-elf/lib/mno-hw-mul/libc.a(lib_a-strlen.o)
 .data          0x0000000005006008        0x0 /home/nikola/intelFPGA_lite/21.1/nios2eds/bin/gnu/H-x86_64-pc-linux-gnu/bin/../lib/gcc/nios2-elf/10.3.1/../../../../../H-x86_64-pc-linux-gnu/nios2-elf/lib/mno-hw-mul/libc.a(lib_a-findfp.o)
 .data          0x0000000005006008        0x0 /home/nikola/intelFPGA_lite/21.1/nios2eds/bin/gnu/H-x86_64-pc-linux-gnu/bin/../lib/gcc/nios2-elf/10.3.1/../../../../../H-x86_64-pc-linux-gnu/nios2-elf/lib/mno-hw-mul/libc.a(lib_a-fvwrite.o)
 .data          0x0000000005006008        0x0 /home/nikola/intelFPGA_lite/21.1/nios2eds/bin/gnu/H-x86_64-pc-linux-gnu/bin/../lib/gcc/nios2-elf/10.3.1/../../../../../H-x86_64-pc-linux-gnu/nios2-elf/lib/mno-hw-mul/libc.a(lib_a-fwalk.o)
 .data          0x0000000005006008        0x0 /home/nikola/intelFPGA_lite/21.1/nios2eds/bin/gnu/H-x86_64-pc-linux-gnu/bin/../lib/gcc/nios2-elf/10.3.1/../../../../../H-x86_64-pc-linux-gnu/nios2-elf/lib/mno-hw-mul/libc.a(lib_a-impure.o)
 .data.impure_data
                0x0000000005006008      0x424 /home/nikola/intelFPGA_lite/21.1/nios2eds/bin/gnu/H-x86_64-pc-linux-gnu/bin/../lib/gcc/nios2-elf/10.3.1/../../../../../H-x86_64-pc-linux-gnu/nios2-elf/lib/mno-hw-mul/libc.a(lib_a-impure.o)
 .data          0x000000000500642c        0x0 /home/nikola/intelFPGA_lite/21.1/nios2eds/bin/gnu/H-x86_64-pc-linux-gnu/bin/../lib/gcc/nios2-elf/10.3.1/../../../../../H-x86_64-pc-linux-gnu/nios2-elf/lib/mno-hw-mul/libc.a(lib_a-mallocr.o)
 .data.__malloc_av_
                0x000000000500642c      0x408 /home/nikola/intelFPGA_lite/21.1/nios2eds/bin/gnu/H-x86_64-pc-linux-gnu/bin/../lib/gcc/nios2-elf/10.3.1/../../../../../H-x86_64-pc-linux-gnu/nios2-elf/lib/mno-hw-mul/libc.a(lib_a-mallocr.o)
                0x000000000500642c                __malloc_av_
 .data          0x0000000005006834        0x0 /home/nikola/intelFPGA_lite/21.1/nios2eds/bin/gnu/H-x86_64-pc-linux-gnu/bin/../lib/gcc/nios2-elf/10.3.1/../../../../../H-x86_64-pc-linux-gnu/nios2-elf/lib/mno-hw-mul/libc.a(lib_a-memchr.o)
 .data          0x0000000005006834        0x0 /home/nikola/intelFPGA_lite/21.1/nios2eds/bin/gnu/H-x86_64-pc-linux-gnu/bin/../lib/gcc/nios2-elf/10.3.1/../../../../../H-x86_64-pc-linux-gnu/nios2-elf/lib/mno-hw-mul/libc.a(lib_a-memcpy.o)
 .data          0x0000000005006834        0x0 /home/nikola/intelFPGA_lite/21.1/nios2eds/bin/gnu/H-x86_64-pc-linux-gnu/bin/../lib/gcc/nios2-elf/10.3.1/../../../../../H-x86_64-pc-linux-gnu/nios2-elf/lib/mno-hw-mul/libc.a(lib_a-memmove.o)
 .data          0x0000000005006834        0x0 /home/nikola/intelFPGA_lite/21.1/nios2eds/bin/gnu/H-x86_64-pc-linux-gnu/bin/../lib/gcc/nios2-elf/10.3.1/../../../../../H-x86_64-pc-linux-gnu/nios2-elf/lib/mno-hw-mul/libc.a(lib_a-memset.o)
 .data          0x0000000005006834        0x0 /home/nikola/intelFPGA_lite/21.1/nios2eds/bin/gnu/H-x86_64-pc-linux-gnu/bin/../lib/gcc/nios2-elf/10.3.1/../../../../../H-x86_64-pc-linux-gnu/nios2-elf/lib/mno-hw-mul/libc.a(lib_a-reallocr.o)
 .data          0x0000000005006834        0x0 /home/nikola/intelFPGA_lite/21.1/nios2eds/bin/gnu/H-x86_64-pc-linux-gnu/bin/../lib/gcc/nios2-elf/10.3.1/../../../../../H-x86_64-pc-linux-gnu/nios2-elf/lib/mno-hw-mul/libc.a(lib_a-sbrkr.o)
 .data          0x0000000005006834        0x0 /home/nikola/intelFPGA_lite/21.1/nios2eds/bin/gnu/H-x86_64-pc-linux-gnu/bin/../lib/gcc/nios2-elf/10.3.1/../../../../../H-x86_64-pc-linux-gnu/nios2-elf/lib/mno-hw-mul/libc.a(lib_a-stdio.o)
 .data          0x0000000005006834        0x0 /home/nikola/intelFPGA_lite/21.1/nios2eds/bin/gnu/H-x86_64-pc-linux-gnu/bin/../lib/gcc/nios2-elf/10.3.1/../../../../../H-x86_64-pc-linux-gnu/nios2-elf/lib/mno-hw-mul/libc.a(lib_a-writer.o)
 .data          0x0000000005006834        0x0 /home/nikola/intelFPGA_lite/21.1/nios2eds/bin/gnu/H-x86_64-pc-linux-gnu/bin/../lib/gcc/nios2-elf/10.3.1/../../../../../H-x86_64-pc-linux-gnu/nios2-elf/lib/mno-hw-mul/libc.a(lib_a-wsetup.o)
 .data          0x0000000005006834        0x0 /home/nikola/intelFPGA_lite/21.1/nios2eds/bin/gnu/H-x86_64-pc-linux-gnu/bin/../lib/gcc/nios2-elf/10.3.1/../../../../../H-x86_64-pc-linux-gnu/nios2-elf/lib/mno-hw-mul/libc.a(closer.o)
 .data          0x0000000005006834        0x0 /home/nikola/intelFPGA_lite/21.1/nios2eds/bin/gnu/H-x86_64-pc-linux-gnu/bin/../lib/gcc/nios2-elf/10.3.1/../../../../../H-x86_64-pc-linux-gnu/nios2-elf/lib/mno-hw-mul/libc.a(lib_a-fclose.o)
 .data          0x0000000005006834        0x0 /home/nikola/intelFPGA_lite/21.1/nios2eds/bin/gnu/H-x86_64-pc-linux-gnu/bin/../lib/gcc/nios2-elf/10.3.1/../../../../../H-x86_64-pc-linux-gnu/nios2-elf/lib/mno-hw-mul/libc.a(lib_a-fflush.o)
 .data          0x0000000005006834        0x0 /home/nikola/intelFPGA_lite/21.1/nios2eds/bin/gnu/H-x86_64-pc-linux-gnu/bin/../lib/gcc/nios2-elf/10.3.1/../../../../../H-x86_64-pc-linux-gnu/nios2-elf/lib/mno-hw-mul/libc.a(lib_a-freer.o)
 .data          0x0000000005006834        0x0 /home/nikola/intelFPGA_lite/21.1/nios2eds/bin/gnu/H-x86_64-pc-linux-gnu/bin/../lib/gcc/nios2-elf/10.3.1/../../../../../H-x86_64-pc-linux-gnu/nios2-elf/lib/mno-hw-mul/libc.a(lib_a-int_errno.o)
 .data          0x0000000005006834        0x0 /home/nikola/intelFPGA_lite/21.1/nios2eds/bin/gnu/H-x86_64-pc-linux-gnu/bin/../lib/gcc/nios2-elf/10.3.1/../../../../../H-x86_64-pc-linux-gnu/nios2-elf/lib/mno-hw-mul/libc.a(lib_a-lseekr.o)
 .data          0x0000000005006834        0x0 /home/nikola/intelFPGA_lite/21.1/nios2eds/bin/gnu/H-x86_64-pc-linux-gnu/bin/../lib/gcc/nios2-elf/10.3.1/../../../../../H-x86_64-pc-linux-gnu/nios2-elf/lib/mno-hw-mul/libc.a(lib_a-makebuf.o)
 .data          0x0000000005006834        0x0 /home/nikola/intelFPGA_lite/21.1/nios2eds/bin/gnu/H-x86_64-pc-linux-gnu/bin/../lib/gcc/nios2-elf/10.3.1/../../../../../H-x86_64-pc-linux-gnu/nios2-elf/lib/mno-hw-mul/libc.a(lib_a-readr.o)
 .data          0x0000000005006834        0x0 /home/nikola/intelFPGA_lite/21.1/nios2eds/bin/gnu/H-x86_64-pc-linux-gnu/bin/../lib/gcc/nios2-elf/10.3.1/../../../../../H-x86_64-pc-linux-gnu/nios2-elf/lib/mno-hw-mul/libc.a(lib_a-fstatr.o)
 .data          0x0000000005006834        0x0 /home/nikola/intelFPGA_lite/21.1/nios2eds/bin/gnu/H-x86_64-pc-linux-gnu/bin/../lib/gcc/nios2-elf/10.3.1/../../../../../H-x86_64-pc-linux-gnu/nios2-elf/lib/mno-hw-mul/libc.a(lib_a-isattyr.o)
 .data          0x0000000005006834        0x0 /home/nikola/intelFPGA_lite/21.1/nios2eds/bin/gnu/H-x86_64-pc-linux-gnu/bin/../lib/gcc/nios2-elf/10.3.1/mno-hw-mul/libgcc.a(lib2-divmod.o)
 .data          0x0000000005006834        0x0 /home/nikola/intelFPGA_lite/21.1/nios2eds/bin/gnu/H-x86_64-pc-linux-gnu/bin/../lib/gcc/nios2-elf/10.3.1/mno-hw-mul/libgcc.a(lib2-mul.o)
 .data          0x0000000005006834        0x0 /home/nikola/PNRS/pnrs-2023/de1-soc-demo/sw/nios/individual/paper_bsp//libhal_bsp.a(alt_close.o)
 .data          0x0000000005006834      0x1a8 /home/nikola/PNRS/pnrs-2023/de1-soc-demo/sw/nios/individual/paper_bsp//libhal_bsp.a(alt_dev.o)
                0x0000000005006834                alt_dev_null
                0x000000000500685c                alt_fd_list
 .data          0x00000000050069dc        0x0 /home/nikola/PNRS/pnrs-2023/de1-soc-demo/sw/nios/individual/paper_bsp//libhal_bsp.a(alt_errno.o)
 .data          0x00000000050069dc        0x0 /home/nikola/PNRS/pnrs-2023/de1-soc-demo/sw/nios/individual/paper_bsp//libhal_bsp.a(alt_fstat.o)
 .data          0x00000000050069dc        0x0 /home/nikola/PNRS/pnrs-2023/de1-soc-demo/sw/nios/individual/paper_bsp//libhal_bsp.a(alt_isatty.o)
 .data          0x00000000050069dc        0x0 /home/nikola/PNRS/pnrs-2023/de1-soc-demo/sw/nios/individual/paper_bsp//libhal_bsp.a(alt_load.o)
 .data          0x00000000050069dc        0x0 /home/nikola/PNRS/pnrs-2023/de1-soc-demo/sw/nios/individual/paper_bsp//libhal_bsp.a(alt_lseek.o)
 .data          0x00000000050069dc        0x0 /home/nikola/PNRS/pnrs-2023/de1-soc-demo/sw/nios/individual/paper_bsp//libhal_bsp.a(alt_main.o)
 .data          0x00000000050069dc        0x0 /home/nikola/PNRS/pnrs-2023/de1-soc-demo/sw/nios/individual/paper_bsp//libhal_bsp.a(alt_malloc_lock.o)
 .data          0x00000000050069dc        0x0 /home/nikola/PNRS/pnrs-2023/de1-soc-demo/sw/nios/individual/paper_bsp//libhal_bsp.a(alt_read.o)
 .data          0x00000000050069dc        0x0 /home/nikola/PNRS/pnrs-2023/de1-soc-demo/sw/nios/individual/paper_bsp//libhal_bsp.a(alt_release_fd.o)
 .data          0x00000000050069dc        0x0 /home/nikola/PNRS/pnrs-2023/de1-soc-demo/sw/nios/individual/paper_bsp//libhal_bsp.a(alt_sbrk.o)
 .data          0x00000000050069dc        0x0 /home/nikola/PNRS/pnrs-2023/de1-soc-demo/sw/nios/individual/paper_bsp//libhal_bsp.a(alt_usleep.o)
 .data          0x00000000050069dc        0x0 /home/nikola/PNRS/pnrs-2023/de1-soc-demo/sw/nios/individual/paper_bsp//libhal_bsp.a(alt_write.o)
 .data          0x00000000050069dc     0x10a0 /home/nikola/PNRS/pnrs-2023/de1-soc-demo/sw/nios/individual/paper_bsp//libhal_bsp.a(alt_sys_init.o)
 .data          0x0000000005007a7c        0x0 /home/nikola/PNRS/pnrs-2023/de1-soc-demo/sw/nios/individual/paper_bsp//libhal_bsp.a(altera_avalon_jtag_uart_fd.o)
 .data          0x0000000005007a7c        0x0 /home/nikola/PNRS/pnrs-2023/de1-soc-demo/sw/nios/individual/paper_bsp//libhal_bsp.a(altera_avalon_jtag_uart_init.o)
 .data          0x0000000005007a7c        0x0 /home/nikola/PNRS/pnrs-2023/de1-soc-demo/sw/nios/individual/paper_bsp//libhal_bsp.a(altera_avalon_jtag_uart_ioctl.o)
 .data          0x0000000005007a7c        0x0 /home/nikola/PNRS/pnrs-2023/de1-soc-demo/sw/nios/individual/paper_bsp//libhal_bsp.a(altera_avalon_jtag_uart_read.o)
 .data          0x0000000005007a7c        0x0 /home/nikola/PNRS/pnrs-2023/de1-soc-demo/sw/nios/individual/paper_bsp//libhal_bsp.a(altera_avalon_jtag_uart_write.o)
 .data          0x0000000005007a7c        0x0 /home/nikola/PNRS/pnrs-2023/de1-soc-demo/sw/nios/individual/paper_bsp//libhal_bsp.a(altera_avalon_mutex.o)
 .data          0x0000000005007a7c        0x0 /home/nikola/PNRS/pnrs-2023/de1-soc-demo/sw/nios/individual/paper_bsp//libhal_bsp.a(altera_avalon_timer_sc.o)
 .data          0x0000000005007a7c        0x0 /home/nikola/PNRS/pnrs-2023/de1-soc-demo/sw/nios/individual/paper_bsp//libhal_bsp.a(alt_alarm_start.o)
 .data          0x0000000005007a7c        0x0 /home/nikola/PNRS/pnrs-2023/de1-soc-demo/sw/nios/individual/paper_bsp//libhal_bsp.a(alt_busy_sleep.o)
 .data          0x0000000005007a7c        0x0 /home/nikola/PNRS/pnrs-2023/de1-soc-demo/sw/nios/individual/paper_bsp//libhal_bsp.a(alt_dcache_flush_all.o)
 .data          0x0000000005007a7c        0x0 /home/nikola/PNRS/pnrs-2023/de1-soc-demo/sw/nios/individual/paper_bsp//libhal_bsp.a(alt_dev_llist_insert.o)
 .data          0x0000000005007a7c        0x0 /home/nikola/PNRS/pnrs-2023/de1-soc-demo/sw/nios/individual/paper_bsp//libhal_bsp.a(alt_do_ctors.o)
 .data          0x0000000005007a7c        0x0 /home/nikola/PNRS/pnrs-2023/de1-soc-demo/sw/nios/individual/paper_bsp//libhal_bsp.a(alt_do_dtors.o)
 .data          0x0000000005007a7c        0x0 /home/nikola/PNRS/pnrs-2023/de1-soc-demo/sw/nios/individual/paper_bsp//libhal_bsp.a(alt_find_dev.o)
 .data          0x0000000005007a7c        0x0 /home/nikola/PNRS/pnrs-2023/de1-soc-demo/sw/nios/individual/paper_bsp//libhal_bsp.a(alt_icache_flush_all.o)
 .data          0x0000000005007a7c        0x0 /home/nikola/PNRS/pnrs-2023/de1-soc-demo/sw/nios/individual/paper_bsp//libhal_bsp.a(alt_iic.o)
 .data          0x0000000005007a7c        0x0 /home/nikola/PNRS/pnrs-2023/de1-soc-demo/sw/nios/individual/paper_bsp//libhal_bsp.a(alt_iic_isr_register.o)
 .data          0x0000000005007a7c        0x0 /home/nikola/PNRS/pnrs-2023/de1-soc-demo/sw/nios/individual/paper_bsp//libhal_bsp.a(alt_io_redirect.o)
 .data          0x0000000005007a7c        0x0 /home/nikola/PNRS/pnrs-2023/de1-soc-demo/sw/nios/individual/paper_bsp//libhal_bsp.a(alt_irq_entry.o)
 .data          0x0000000005007a7c        0x0 /home/nikola/PNRS/pnrs-2023/de1-soc-demo/sw/nios/individual/paper_bsp//libhal_bsp.a(alt_irq_handler.o)
 .data          0x0000000005007a7c        0x0 /home/nikola/PNRS/pnrs-2023/de1-soc-demo/sw/nios/individual/paper_bsp//libhal_bsp.a(alt_irq_vars.o)
 .data          0x0000000005007a7c        0x0 /home/nikola/PNRS/pnrs-2023/de1-soc-demo/sw/nios/individual/paper_bsp//libhal_bsp.a(alt_open.o)
 .data          0x0000000005007a7c        0x0 /home/nikola/PNRS/pnrs-2023/de1-soc-demo/sw/nios/individual/paper_bsp//libhal_bsp.a(alt_tick.o)
 .data          0x0000000005007a7c        0x0 /home/nikola/PNRS/pnrs-2023/de1-soc-demo/sw/nios/individual/paper_bsp//libhal_bsp.a(altera_nios2_gen2_irq.o)
 .data          0x0000000005007a7c        0x0 /home/nikola/PNRS/pnrs-2023/de1-soc-demo/sw/nios/individual/paper_bsp//libhal_bsp.a(alt_exception_entry.o)
 .data          0x0000000005007a7c        0x0 /home/nikola/PNRS/pnrs-2023/de1-soc-demo/sw/nios/individual/paper_bsp//libhal_bsp.a(alt_find_file.o)
 .data          0x0000000005007a7c        0x0 /home/nikola/PNRS/pnrs-2023/de1-soc-demo/sw/nios/individual/paper_bsp//libhal_bsp.a(alt_get_fd.o)
 .data          0x0000000005007a7c        0x0 /home/nikola/PNRS/pnrs-2023/de1-soc-demo/sw/nios/individual/paper_bsp//libhal_bsp.a(alt_instruction_exception_entry.o)
 .data          0x0000000005007a7c        0x0 /home/nikola/intelFPGA_lite/21.1/nios2eds/bin/gnu/H-x86_64-pc-linux-gnu/bin/../lib/gcc/nios2-elf/10.3.1/../../../../../H-x86_64-pc-linux-gnu/nios2-elf/lib/mno-hw-mul/libc.a(lib_a-atexit.o)
 .data          0x0000000005007a7c        0x0 /home/nikola/intelFPGA_lite/21.1/nios2eds/bin/gnu/H-x86_64-pc-linux-gnu/bin/../lib/gcc/nios2-elf/10.3.1/../../../../../H-x86_64-pc-linux-gnu/nios2-elf/lib/mno-hw-mul/libc.a(lib_a-exit.o)
 .data          0x0000000005007a7c        0x0 /home/nikola/intelFPGA_lite/21.1/nios2eds/bin/gnu/H-x86_64-pc-linux-gnu/bin/../lib/gcc/nios2-elf/10.3.1/../../../../../H-x86_64-pc-linux-gnu/nios2-elf/lib/mno-hw-mul/libc.a(lib_a-memcmp.o)
 .data          0x0000000005007a7c        0x0 /home/nikola/intelFPGA_lite/21.1/nios2eds/bin/gnu/H-x86_64-pc-linux-gnu/bin/../lib/gcc/nios2-elf/10.3.1/../../../../../H-x86_64-pc-linux-gnu/nios2-elf/lib/mno-hw-mul/libc.a(lib_a-__atexit.o)
 .data          0x0000000005007a7c        0x0 /home/nikola/intelFPGA_lite/21.1/nios2eds/bin/gnu/H-x86_64-pc-linux-gnu/bin/../lib/gcc/nios2-elf/10.3.1/../../../../../H-x86_64-pc-linux-gnu/nios2-elf/lib/mno-hw-mul/libc.a(lib_a-__call_atexit.o)
 .data          0x0000000005007a7c        0x0 /home/nikola/PNRS/pnrs-2023/de1-soc-demo/sw/nios/individual/paper_bsp//libhal_bsp.a(alt_exit.o)
                0x000000000500fa7c                _gp = ABSOLUTE ((. + 0x8000))
                [!provide]                        PROVIDE (gp = _gp)
 *(.rwdata .rwdata.*)
 *(.sdata .sdata.* .gnu.linkonce.s.*)
 .sdata._global_impure_ptr
                0x0000000005007a7c        0x4 /home/nikola/intelFPGA_lite/21.1/nios2eds/bin/gnu/H-x86_64-pc-linux-gnu/bin/../lib/gcc/nios2-elf/10.3.1/../../../../../H-x86_64-pc-linux-gnu/nios2-elf/lib/mno-hw-mul/libc.a(lib_a-impure.o)
                0x0000000005007a7c                _global_impure_ptr
 .sdata._impure_ptr
                0x0000000005007a80        0x4 /home/nikola/intelFPGA_lite/21.1/nios2eds/bin/gnu/H-x86_64-pc-linux-gnu/bin/../lib/gcc/nios2-elf/10.3.1/../../../../../H-x86_64-pc-linux-gnu/nios2-elf/lib/mno-hw-mul/libc.a(lib_a-impure.o)
                0x0000000005007a80                _impure_ptr
 .sdata.__malloc_sbrk_base
                0x0000000005007a84        0x4 /home/nikola/intelFPGA_lite/21.1/nios2eds/bin/gnu/H-x86_64-pc-linux-gnu/bin/../lib/gcc/nios2-elf/10.3.1/../../../../../H-x86_64-pc-linux-gnu/nios2-elf/lib/mno-hw-mul/libc.a(lib_a-mallocr.o)
                0x0000000005007a84                __malloc_sbrk_base
 .sdata.__malloc_trim_threshold
                0x0000000005007a88        0x4 /home/nikola/intelFPGA_lite/21.1/nios2eds/bin/gnu/H-x86_64-pc-linux-gnu/bin/../lib/gcc/nios2-elf/10.3.1/../../../../../H-x86_64-pc-linux-gnu/nios2-elf/lib/mno-hw-mul/libc.a(lib_a-mallocr.o)
                0x0000000005007a88                __malloc_trim_threshold
 .sdata         0x0000000005007a8c       0x14 /home/nikola/PNRS/pnrs-2023/de1-soc-demo/sw/nios/individual/paper_bsp//libhal_bsp.a(alt_dev.o)
                0x0000000005007a8c                alt_fs_list
                0x0000000005007a94                alt_dev_list
                0x0000000005007a9c                alt_max_fd
 .sdata         0x0000000005007aa0        0x4 /home/nikola/PNRS/pnrs-2023/de1-soc-demo/sw/nios/individual/paper_bsp//libhal_bsp.a(alt_errno.o)
                0x0000000005007aa0                alt_errno
 .sdata         0x0000000005007aa4        0x4 /home/nikola/PNRS/pnrs-2023/de1-soc-demo/sw/nios/individual/paper_bsp//libhal_bsp.a(alt_sbrk.o)
 .sdata         0x0000000005007aa8        0x8 /home/nikola/PNRS/pnrs-2023/de1-soc-demo/sw/nios/individual/paper_bsp//libhal_bsp.a(altera_avalon_mutex.o)
                0x0000000005007aa8                alt_mutex_list
 .sdata         0x0000000005007ab0        0x4 /home/nikola/PNRS/pnrs-2023/de1-soc-demo/sw/nios/individual/paper_bsp//libhal_bsp.a(alt_irq_vars.o)
                0x0000000005007ab0                alt_priority_mask
 .sdata         0x0000000005007ab4        0x8 /home/nikola/PNRS/pnrs-2023/de1-soc-demo/sw/nios/individual/paper_bsp//libhal_bsp.a(alt_tick.o)
                0x0000000005007ab4                alt_alarm_list
 *(.sdata2 .sdata2.* .gnu.linkonce.s2.*)
                0x0000000005007abc                . = ALIGN (0x4)
                0x0000000005007abc                _edata = ABSOLUTE (.)
                [!provide]                        PROVIDE (edata = ABSOLUTE (.))
                0x0000000005007abc                PROVIDE (__ram_rwdata_end = ABSOLUTE (.))
                0x0000000005007abc                PROVIDE (__flash_rwdata_start = LOADADDR (.rwdata))

.bss            0x0000000005009570      0x164
                0x0000000005009570                __bss_start = ABSOLUTE (.)
                [!provide]                        PROVIDE (__sbss_start = ABSOLUTE (.))
                [!provide]                        PROVIDE (___sbss_start = ABSOLUTE (.))
 *(.dynsbss)
 *(.sbss .sbss.* .gnu.linkonce.sb.*)
 .sbss          0x0000000005009570        0xc obj/default/paper.o
                0x0000000005009570                tobacco_mutex
                0x0000000005009574                matches_mutex
                0x0000000005009578                agent_mutex
 .sbss.__malloc_max_total_mem
                0x000000000500957c        0x4 /home/nikola/intelFPGA_lite/21.1/nios2eds/bin/gnu/H-x86_64-pc-linux-gnu/bin/../lib/gcc/nios2-elf/10.3.1/../../../../../H-x86_64-pc-linux-gnu/nios2-elf/lib/mno-hw-mul/libc.a(lib_a-mallocr.o)
                0x000000000500957c                __malloc_max_total_mem
 .sbss.__malloc_max_sbrked_mem
                0x0000000005009580        0x4 /home/nikola/intelFPGA_lite/21.1/nios2eds/bin/gnu/H-x86_64-pc-linux-gnu/bin/../lib/gcc/nios2-elf/10.3.1/../../../../../H-x86_64-pc-linux-gnu/nios2-elf/lib/mno-hw-mul/libc.a(lib_a-mallocr.o)
                0x0000000005009580                __malloc_max_sbrked_mem
 .sbss.__malloc_top_pad
                0x0000000005009584        0x4 /home/nikola/intelFPGA_lite/21.1/nios2eds/bin/gnu/H-x86_64-pc-linux-gnu/bin/../lib/gcc/nios2-elf/10.3.1/../../../../../H-x86_64-pc-linux-gnu/nios2-elf/lib/mno-hw-mul/libc.a(lib_a-mallocr.o)
                0x0000000005009584                __malloc_top_pad
 .sbss.errno    0x0000000005009588        0x4 /home/nikola/intelFPGA_lite/21.1/nios2eds/bin/gnu/H-x86_64-pc-linux-gnu/bin/../lib/gcc/nios2-elf/10.3.1/../../../../../H-x86_64-pc-linux-gnu/nios2-elf/lib/mno-hw-mul/libc.a(lib_a-int_errno.o)
                0x0000000005009588                errno
 .sbss          0x000000000500958c        0xc /home/nikola/PNRS/pnrs-2023/de1-soc-demo/sw/nios/individual/paper_bsp//libhal_bsp.a(alt_main.o)
                0x000000000500958c                alt_argc
                0x0000000005009590                alt_argv
                0x0000000005009594                alt_envp
 .sbss          0x0000000005009598        0x4 /home/nikola/PNRS/pnrs-2023/de1-soc-demo/sw/nios/individual/paper_bsp//libhal_bsp.a(alt_irq_vars.o)
                0x0000000005009598                alt_irq_active
 .sbss          0x000000000500959c        0xc /home/nikola/PNRS/pnrs-2023/de1-soc-demo/sw/nios/individual/paper_bsp//libhal_bsp.a(alt_tick.o)
                0x000000000500959c                _alt_tick_rate
                0x00000000050095a0                _alt_nticks
 .sbss          0x00000000050095a8        0x4 /home/nikola/PNRS/pnrs-2023/de1-soc-demo/sw/nios/individual/paper_bsp//libhal_bsp.a(alt_instruction_exception_entry.o)
                0x00000000050095a8                alt_instruction_exception_handler
 *(.sbss2 .sbss2.* .gnu.linkonce.sb2.*)
 *(.scommon)
                [!provide]                        PROVIDE (__sbss_end = ABSOLUTE (.))
                [!provide]                        PROVIDE (___sbss_end = ABSOLUTE (.))
 *(.dynbss)
 *(.bss .bss.* .gnu.linkonce.b.*)
 .bss           0x00000000050095ac        0x0 /home/nikola/PNRS/pnrs-2023/de1-soc-demo/sw/nios/individual/paper_bsp//obj/HAL/src/crt0.o
 .bss           0x00000000050095ac        0x0 obj/default/paper.o
 .bss           0x00000000050095ac        0x0 /home/nikola/intelFPGA_lite/21.1/nios2eds/bin/gnu/H-x86_64-pc-linux-gnu/bin/../lib/gcc/nios2-elf/10.3.1/../../../../../H-x86_64-pc-linux-gnu/nios2-elf/lib/mno-hw-mul/libc.a(lib_a-puts.o)
 .bss           0x00000000050095ac        0x0 /home/nikola/intelFPGA_lite/21.1/nios2eds/bin/gnu/H-x86_64-pc-linux-gnu/bin/../lib/gcc/nios2-elf/10.3.1/../../../../../H-x86_64-pc-linux-gnu/nios2-elf/lib/mno-hw-mul/libc.a(lib_a-strlen.o)
 .bss           0x00000000050095ac        0x0 /home/nikola/intelFPGA_lite/21.1/nios2eds/bin/gnu/H-x86_64-pc-linux-gnu/bin/../lib/gcc/nios2-elf/10.3.1/../../../../../H-x86_64-pc-linux-gnu/nios2-elf/lib/mno-hw-mul/libc.a(lib_a-findfp.o)
 .bss           0x00000000050095ac        0x0 /home/nikola/intelFPGA_lite/21.1/nios2eds/bin/gnu/H-x86_64-pc-linux-gnu/bin/../lib/gcc/nios2-elf/10.3.1/../../../../../H-x86_64-pc-linux-gnu/nios2-elf/lib/mno-hw-mul/libc.a(lib_a-fvwrite.o)
 .bss           0x00000000050095ac        0x0 /home/nikola/intelFPGA_lite/21.1/nios2eds/bin/gnu/H-x86_64-pc-linux-gnu/bin/../lib/gcc/nios2-elf/10.3.1/../../../../../H-x86_64-pc-linux-gnu/nios2-elf/lib/mno-hw-mul/libc.a(lib_a-fwalk.o)
 .bss           0x00000000050095ac        0x0 /home/nikola/intelFPGA_lite/21.1/nios2eds/bin/gnu/H-x86_64-pc-linux-gnu/bin/../lib/gcc/nios2-elf/10.3.1/../../../../../H-x86_64-pc-linux-gnu/nios2-elf/lib/mno-hw-mul/libc.a(lib_a-impure.o)
 .bss           0x00000000050095ac        0x0 /home/nikola/intelFPGA_lite/21.1/nios2eds/bin/gnu/H-x86_64-pc-linux-gnu/bin/../lib/gcc/nios2-elf/10.3.1/../../../../../H-x86_64-pc-linux-gnu/nios2-elf/lib/mno-hw-mul/libc.a(lib_a-mallocr.o)
 .bss.__malloc_current_mallinfo
                0x00000000050095ac       0x28 /home/nikola/intelFPGA_lite/21.1/nios2eds/bin/gnu/H-x86_64-pc-linux-gnu/bin/../lib/gcc/nios2-elf/10.3.1/../../../../../H-x86_64-pc-linux-gnu/nios2-elf/lib/mno-hw-mul/libc.a(lib_a-mallocr.o)
                0x00000000050095ac                __malloc_current_mallinfo
 .bss           0x00000000050095d4        0x0 /home/nikola/intelFPGA_lite/21.1/nios2eds/bin/gnu/H-x86_64-pc-linux-gnu/bin/../lib/gcc/nios2-elf/10.3.1/../../../../../H-x86_64-pc-linux-gnu/nios2-elf/lib/mno-hw-mul/libc.a(lib_a-memchr.o)
 .bss           0x00000000050095d4        0x0 /home/nikola/intelFPGA_lite/21.1/nios2eds/bin/gnu/H-x86_64-pc-linux-gnu/bin/../lib/gcc/nios2-elf/10.3.1/../../../../../H-x86_64-pc-linux-gnu/nios2-elf/lib/mno-hw-mul/libc.a(lib_a-memcpy.o)
 .bss           0x00000000050095d4        0x0 /home/nikola/intelFPGA_lite/21.1/nios2eds/bin/gnu/H-x86_64-pc-linux-gnu/bin/../lib/gcc/nios2-elf/10.3.1/../../../../../H-x86_64-pc-linux-gnu/nios2-elf/lib/mno-hw-mul/libc.a(lib_a-memmove.o)
 .bss           0x00000000050095d4        0x0 /home/nikola/intelFPGA_lite/21.1/nios2eds/bin/gnu/H-x86_64-pc-linux-gnu/bin/../lib/gcc/nios2-elf/10.3.1/../../../../../H-x86_64-pc-linux-gnu/nios2-elf/lib/mno-hw-mul/libc.a(lib_a-memset.o)
 .bss           0x00000000050095d4        0x0 /home/nikola/intelFPGA_lite/21.1/nios2eds/bin/gnu/H-x86_64-pc-linux-gnu/bin/../lib/gcc/nios2-elf/10.3.1/../../../../../H-x86_64-pc-linux-gnu/nios2-elf/lib/mno-hw-mul/libc.a(lib_a-reallocr.o)
 .bss           0x00000000050095d4        0x0 /home/nikola/intelFPGA_lite/21.1/nios2eds/bin/gnu/H-x86_64-pc-linux-gnu/bin/../lib/gcc/nios2-elf/10.3.1/../../../../../H-x86_64-pc-linux-gnu/nios2-elf/lib/mno-hw-mul/libc.a(lib_a-sbrkr.o)
 .bss           0x00000000050095d4        0x0 /home/nikola/intelFPGA_lite/21.1/nios2eds/bin/gnu/H-x86_64-pc-linux-gnu/bin/../lib/gcc/nios2-elf/10.3.1/../../../../../H-x86_64-pc-linux-gnu/nios2-elf/lib/mno-hw-mul/libc.a(lib_a-stdio.o)
 .bss           0x00000000050095d4        0x0 /home/nikola/intelFPGA_lite/21.1/nios2eds/bin/gnu/H-x86_64-pc-linux-gnu/bin/../lib/gcc/nios2-elf/10.3.1/../../../../../H-x86_64-pc-linux-gnu/nios2-elf/lib/mno-hw-mul/libc.a(lib_a-writer.o)
 .bss           0x00000000050095d4        0x0 /home/nikola/intelFPGA_lite/21.1/nios2eds/bin/gnu/H-x86_64-pc-linux-gnu/bin/../lib/gcc/nios2-elf/10.3.1/../../../../../H-x86_64-pc-linux-gnu/nios2-elf/lib/mno-hw-mul/libc.a(lib_a-wsetup.o)
 .bss           0x00000000050095d4        0x0 /home/nikola/intelFPGA_lite/21.1/nios2eds/bin/gnu/H-x86_64-pc-linux-gnu/bin/../lib/gcc/nios2-elf/10.3.1/../../../../../H-x86_64-pc-linux-gnu/nios2-elf/lib/mno-hw-mul/libc.a(closer.o)
 .bss           0x00000000050095d4        0x0 /home/nikola/intelFPGA_lite/21.1/nios2eds/bin/gnu/H-x86_64-pc-linux-gnu/bin/../lib/gcc/nios2-elf/10.3.1/../../../../../H-x86_64-pc-linux-gnu/nios2-elf/lib/mno-hw-mul/libc.a(lib_a-fclose.o)
 .bss           0x00000000050095d4        0x0 /home/nikola/intelFPGA_lite/21.1/nios2eds/bin/gnu/H-x86_64-pc-linux-gnu/bin/../lib/gcc/nios2-elf/10.3.1/../../../../../H-x86_64-pc-linux-gnu/nios2-elf/lib/mno-hw-mul/libc.a(lib_a-fflush.o)
 .bss           0x00000000050095d4        0x0 /home/nikola/intelFPGA_lite/21.1/nios2eds/bin/gnu/H-x86_64-pc-linux-gnu/bin/../lib/gcc/nios2-elf/10.3.1/../../../../../H-x86_64-pc-linux-gnu/nios2-elf/lib/mno-hw-mul/libc.a(lib_a-freer.o)
 .bss           0x00000000050095d4        0x0 /home/nikola/intelFPGA_lite/21.1/nios2eds/bin/gnu/H-x86_64-pc-linux-gnu/bin/../lib/gcc/nios2-elf/10.3.1/../../../../../H-x86_64-pc-linux-gnu/nios2-elf/lib/mno-hw-mul/libc.a(lib_a-int_errno.o)
 .bss           0x00000000050095d4        0x0 /home/nikola/intelFPGA_lite/21.1/nios2eds/bin/gnu/H-x86_64-pc-linux-gnu/bin/../lib/gcc/nios2-elf/10.3.1/../../../../../H-x86_64-pc-linux-gnu/nios2-elf/lib/mno-hw-mul/libc.a(lib_a-lseekr.o)
 .bss           0x00000000050095d4        0x0 /home/nikola/intelFPGA_lite/21.1/nios2eds/bin/gnu/H-x86_64-pc-linux-gnu/bin/../lib/gcc/nios2-elf/10.3.1/../../../../../H-x86_64-pc-linux-gnu/nios2-elf/lib/mno-hw-mul/libc.a(lib_a-makebuf.o)
 .bss           0x00000000050095d4        0x0 /home/nikola/intelFPGA_lite/21.1/nios2eds/bin/gnu/H-x86_64-pc-linux-gnu/bin/../lib/gcc/nios2-elf/10.3.1/../../../../../H-x86_64-pc-linux-gnu/nios2-elf/lib/mno-hw-mul/libc.a(lib_a-readr.o)
 .bss           0x00000000050095d4        0x0 /home/nikola/intelFPGA_lite/21.1/nios2eds/bin/gnu/H-x86_64-pc-linux-gnu/bin/../lib/gcc/nios2-elf/10.3.1/../../../../../H-x86_64-pc-linux-gnu/nios2-elf/lib/mno-hw-mul/libc.a(lib_a-fstatr.o)
 .bss           0x00000000050095d4        0x0 /home/nikola/intelFPGA_lite/21.1/nios2eds/bin/gnu/H-x86_64-pc-linux-gnu/bin/../lib/gcc/nios2-elf/10.3.1/../../../../../H-x86_64-pc-linux-gnu/nios2-elf/lib/mno-hw-mul/libc.a(lib_a-isattyr.o)
 .bss           0x00000000050095d4        0x0 /home/nikola/intelFPGA_lite/21.1/nios2eds/bin/gnu/H-x86_64-pc-linux-gnu/bin/../lib/gcc/nios2-elf/10.3.1/mno-hw-mul/libgcc.a(lib2-divmod.o)
 .bss           0x00000000050095d4        0x0 /home/nikola/intelFPGA_lite/21.1/nios2eds/bin/gnu/H-x86_64-pc-linux-gnu/bin/../lib/gcc/nios2-elf/10.3.1/mno-hw-mul/libgcc.a(lib2-mul.o)
 .bss           0x00000000050095d4        0x0 /home/nikola/PNRS/pnrs-2023/de1-soc-demo/sw/nios/individual/paper_bsp//libhal_bsp.a(alt_close.o)
 .bss           0x00000000050095d4        0x0 /home/nikola/PNRS/pnrs-2023/de1-soc-demo/sw/nios/individual/paper_bsp//libhal_bsp.a(alt_dev.o)
 .bss           0x00000000050095d4        0x0 /home/nikola/PNRS/pnrs-2023/de1-soc-demo/sw/nios/individual/paper_bsp//libhal_bsp.a(alt_errno.o)
 .bss           0x00000000050095d4        0x0 /home/nikola/PNRS/pnrs-2023/de1-soc-demo/sw/nios/individual/paper_bsp//libhal_bsp.a(alt_fstat.o)
 .bss           0x00000000050095d4        0x0 /home/nikola/PNRS/pnrs-2023/de1-soc-demo/sw/nios/individual/paper_bsp//libhal_bsp.a(alt_isatty.o)
 .bss           0x00000000050095d4        0x0 /home/nikola/PNRS/pnrs-2023/de1-soc-demo/sw/nios/individual/paper_bsp//libhal_bsp.a(alt_load.o)
 .bss           0x00000000050095d4        0x0 /home/nikola/PNRS/pnrs-2023/de1-soc-demo/sw/nios/individual/paper_bsp//libhal_bsp.a(alt_lseek.o)
 .bss           0x00000000050095d4        0x0 /home/nikola/PNRS/pnrs-2023/de1-soc-demo/sw/nios/individual/paper_bsp//libhal_bsp.a(alt_main.o)
 .bss           0x00000000050095d4        0x0 /home/nikola/PNRS/pnrs-2023/de1-soc-demo/sw/nios/individual/paper_bsp//libhal_bsp.a(alt_malloc_lock.o)
 .bss           0x00000000050095d4        0x0 /home/nikola/PNRS/pnrs-2023/de1-soc-demo/sw/nios/individual/paper_bsp//libhal_bsp.a(alt_read.o)
 .bss           0x00000000050095d4        0x0 /home/nikola/PNRS/pnrs-2023/de1-soc-demo/sw/nios/individual/paper_bsp//libhal_bsp.a(alt_release_fd.o)
 .bss           0x00000000050095d4        0x0 /home/nikola/PNRS/pnrs-2023/de1-soc-demo/sw/nios/individual/paper_bsp//libhal_bsp.a(alt_sbrk.o)
 .bss           0x00000000050095d4        0x0 /home/nikola/PNRS/pnrs-2023/de1-soc-demo/sw/nios/individual/paper_bsp//libhal_bsp.a(alt_usleep.o)
 .bss           0x00000000050095d4        0x0 /home/nikola/PNRS/pnrs-2023/de1-soc-demo/sw/nios/individual/paper_bsp//libhal_bsp.a(alt_write.o)
 .bss           0x00000000050095d4        0x0 /home/nikola/PNRS/pnrs-2023/de1-soc-demo/sw/nios/individual/paper_bsp//libhal_bsp.a(alt_sys_init.o)
 .bss           0x00000000050095d4        0x0 /home/nikola/PNRS/pnrs-2023/de1-soc-demo/sw/nios/individual/paper_bsp//libhal_bsp.a(altera_avalon_jtag_uart_fd.o)
 .bss           0x00000000050095d4        0x0 /home/nikola/PNRS/pnrs-2023/de1-soc-demo/sw/nios/individual/paper_bsp//libhal_bsp.a(altera_avalon_jtag_uart_init.o)
 .bss           0x00000000050095d4        0x0 /home/nikola/PNRS/pnrs-2023/de1-soc-demo/sw/nios/individual/paper_bsp//libhal_bsp.a(altera_avalon_jtag_uart_ioctl.o)
 .bss           0x00000000050095d4        0x0 /home/nikola/PNRS/pnrs-2023/de1-soc-demo/sw/nios/individual/paper_bsp//libhal_bsp.a(altera_avalon_jtag_uart_read.o)
 .bss           0x00000000050095d4        0x0 /home/nikola/PNRS/pnrs-2023/de1-soc-demo/sw/nios/individual/paper_bsp//libhal_bsp.a(altera_avalon_jtag_uart_write.o)
 .bss           0x00000000050095d4        0x0 /home/nikola/PNRS/pnrs-2023/de1-soc-demo/sw/nios/individual/paper_bsp//libhal_bsp.a(altera_avalon_mutex.o)
 .bss           0x00000000050095d4        0x0 /home/nikola/PNRS/pnrs-2023/de1-soc-demo/sw/nios/individual/paper_bsp//libhal_bsp.a(altera_avalon_timer_sc.o)
 .bss           0x00000000050095d4        0x0 /home/nikola/PNRS/pnrs-2023/de1-soc-demo/sw/nios/individual/paper_bsp//libhal_bsp.a(alt_alarm_start.o)
 .bss           0x00000000050095d4        0x0 /home/nikola/PNRS/pnrs-2023/de1-soc-demo/sw/nios/individual/paper_bsp//libhal_bsp.a(alt_busy_sleep.o)
 .bss           0x00000000050095d4        0x0 /home/nikola/PNRS/pnrs-2023/de1-soc-demo/sw/nios/individual/paper_bsp//libhal_bsp.a(alt_dcache_flush_all.o)
 .bss           0x00000000050095d4        0x0 /home/nikola/PNRS/pnrs-2023/de1-soc-demo/sw/nios/individual/paper_bsp//libhal_bsp.a(alt_dev_llist_insert.o)
 .bss           0x00000000050095d4        0x0 /home/nikola/PNRS/pnrs-2023/de1-soc-demo/sw/nios/individual/paper_bsp//libhal_bsp.a(alt_do_ctors.o)
 .bss           0x00000000050095d4        0x0 /home/nikola/PNRS/pnrs-2023/de1-soc-demo/sw/nios/individual/paper_bsp//libhal_bsp.a(alt_do_dtors.o)
 .bss           0x00000000050095d4        0x0 /home/nikola/PNRS/pnrs-2023/de1-soc-demo/sw/nios/individual/paper_bsp//libhal_bsp.a(alt_find_dev.o)
 .bss           0x00000000050095d4        0x0 /home/nikola/PNRS/pnrs-2023/de1-soc-demo/sw/nios/individual/paper_bsp//libhal_bsp.a(alt_icache_flush_all.o)
 .bss           0x00000000050095d4        0x0 /home/nikola/PNRS/pnrs-2023/de1-soc-demo/sw/nios/individual/paper_bsp//libhal_bsp.a(alt_iic.o)
 .bss           0x00000000050095d4        0x0 /home/nikola/PNRS/pnrs-2023/de1-soc-demo/sw/nios/individual/paper_bsp//libhal_bsp.a(alt_iic_isr_register.o)
 .bss           0x00000000050095d4        0x0 /home/nikola/PNRS/pnrs-2023/de1-soc-demo/sw/nios/individual/paper_bsp//libhal_bsp.a(alt_io_redirect.o)
 .bss           0x00000000050095d4        0x0 /home/nikola/PNRS/pnrs-2023/de1-soc-demo/sw/nios/individual/paper_bsp//libhal_bsp.a(alt_irq_entry.o)
 .bss           0x00000000050095d4      0x100 /home/nikola/PNRS/pnrs-2023/de1-soc-demo/sw/nios/individual/paper_bsp//libhal_bsp.a(alt_irq_handler.o)
                0x00000000050095d4                alt_irq
 .bss           0x00000000050096d4        0x0 /home/nikola/PNRS/pnrs-2023/de1-soc-demo/sw/nios/individual/paper_bsp//libhal_bsp.a(alt_irq_vars.o)
 .bss           0x00000000050096d4        0x0 /home/nikola/PNRS/pnrs-2023/de1-soc-demo/sw/nios/individual/paper_bsp//libhal_bsp.a(alt_open.o)
 .bss           0x00000000050096d4        0x0 /home/nikola/PNRS/pnrs-2023/de1-soc-demo/sw/nios/individual/paper_bsp//libhal_bsp.a(alt_tick.o)
 .bss           0x00000000050096d4        0x0 /home/nikola/PNRS/pnrs-2023/de1-soc-demo/sw/nios/individual/paper_bsp//libhal_bsp.a(altera_nios2_gen2_irq.o)
 .bss           0x00000000050096d4        0x0 /home/nikola/PNRS/pnrs-2023/de1-soc-demo/sw/nios/individual/paper_bsp//libhal_bsp.a(alt_exception_entry.o)
 .bss           0x00000000050096d4        0x0 /home/nikola/PNRS/pnrs-2023/de1-soc-demo/sw/nios/individual/paper_bsp//libhal_bsp.a(alt_find_file.o)
 .bss           0x00000000050096d4        0x0 /home/nikola/PNRS/pnrs-2023/de1-soc-demo/sw/nios/individual/paper_bsp//libhal_bsp.a(alt_get_fd.o)
 .bss           0x00000000050096d4        0x0 /home/nikola/PNRS/pnrs-2023/de1-soc-demo/sw/nios/individual/paper_bsp//libhal_bsp.a(alt_instruction_exception_entry.o)
 .bss           0x00000000050096d4        0x0 /home/nikola/intelFPGA_lite/21.1/nios2eds/bin/gnu/H-x86_64-pc-linux-gnu/bin/../lib/gcc/nios2-elf/10.3.1/../../../../../H-x86_64-pc-linux-gnu/nios2-elf/lib/mno-hw-mul/libc.a(lib_a-atexit.o)
 .bss           0x00000000050096d4        0x0 /home/nikola/intelFPGA_lite/21.1/nios2eds/bin/gnu/H-x86_64-pc-linux-gnu/bin/../lib/gcc/nios2-elf/10.3.1/../../../../../H-x86_64-pc-linux-gnu/nios2-elf/lib/mno-hw-mul/libc.a(lib_a-exit.o)
 .bss           0x00000000050096d4        0x0 /home/nikola/intelFPGA_lite/21.1/nios2eds/bin/gnu/H-x86_64-pc-linux-gnu/bin/../lib/gcc/nios2-elf/10.3.1/../../../../../H-x86_64-pc-linux-gnu/nios2-elf/lib/mno-hw-mul/libc.a(lib_a-memcmp.o)
 .bss           0x00000000050096d4        0x0 /home/nikola/intelFPGA_lite/21.1/nios2eds/bin/gnu/H-x86_64-pc-linux-gnu/bin/../lib/gcc/nios2-elf/10.3.1/../../../../../H-x86_64-pc-linux-gnu/nios2-elf/lib/mno-hw-mul/libc.a(lib_a-__atexit.o)
 .bss           0x00000000050096d4        0x0 /home/nikola/intelFPGA_lite/21.1/nios2eds/bin/gnu/H-x86_64-pc-linux-gnu/bin/../lib/gcc/nios2-elf/10.3.1/../../../../../H-x86_64-pc-linux-gnu/nios2-elf/lib/mno-hw-mul/libc.a(lib_a-__call_atexit.o)
 .bss           0x00000000050096d4        0x0 /home/nikola/PNRS/pnrs-2023/de1-soc-demo/sw/nios/individual/paper_bsp//libhal_bsp.a(alt_exit.o)
 *(COMMON)
                0x00000000050096d4                . = ALIGN (0x4)
                0x00000000050096d4                __bss_end = ABSOLUTE (.)

.sdram_controller_0
                0x00000000050096d4        0x0
                [!provide]                        PROVIDE (_alt_partition_sdram_controller_0_start = ABSOLUTE (.))
 *(.sdram_controller_0 .sdram_controller_0. sdram_controller_0.*)
                0x00000000050096d4                . = ALIGN (0x4)
                [!provide]                        PROVIDE (_alt_partition_sdram_controller_0_end = ABSOLUTE (.))
                0x00000000050096d4                _end = ABSOLUTE (.)
                0x00000000050096d4                end = ABSOLUTE (.)
                0x00000000050096d4                __alt_stack_base = ABSOLUTE (.)
                [!provide]                        PROVIDE (_alt_partition_sdram_controller_0_load_addr = LOADADDR (.sdram_controller_0))

.stab
 *(.stab)

.stabstr
 *(.stabstr)

.stab.excl
 *(.stab.excl)

.stab.exclstr
 *(.stab.exclstr)

.stab.index
 *(.stab.index)

.stab.indexstr
 *(.stab.indexstr)

.comment        0x0000000000000000       0x2d
 *(.comment)
 .comment       0x0000000000000000       0x2d obj/default/paper.o
                                         0x2e (size before relaxing)
 .comment       0x000000000000002d       0x2e /home/nikola/intelFPGA_lite/21.1/nios2eds/bin/gnu/H-x86_64-pc-linux-gnu/bin/../lib/gcc/nios2-elf/10.3.1/../../../../../H-x86_64-pc-linux-gnu/nios2-elf/lib/mno-hw-mul/libc.a(lib_a-puts.o)
 .comment       0x000000000000002d       0x2e /home/nikola/intelFPGA_lite/21.1/nios2eds/bin/gnu/H-x86_64-pc-linux-gnu/bin/../lib/gcc/nios2-elf/10.3.1/../../../../../H-x86_64-pc-linux-gnu/nios2-elf/lib/mno-hw-mul/libc.a(lib_a-strlen.o)
 .comment       0x000000000000002d       0x2e /home/nikola/intelFPGA_lite/21.1/nios2eds/bin/gnu/H-x86_64-pc-linux-gnu/bin/../lib/gcc/nios2-elf/10.3.1/../../../../../H-x86_64-pc-linux-gnu/nios2-elf/lib/mno-hw-mul/libc.a(lib_a-findfp.o)
 .comment       0x000000000000002d       0x2e /home/nikola/intelFPGA_lite/21.1/nios2eds/bin/gnu/H-x86_64-pc-linux-gnu/bin/../lib/gcc/nios2-elf/10.3.1/../../../../../H-x86_64-pc-linux-gnu/nios2-elf/lib/mno-hw-mul/libc.a(lib_a-fvwrite.o)
 .comment       0x000000000000002d       0x2e /home/nikola/intelFPGA_lite/21.1/nios2eds/bin/gnu/H-x86_64-pc-linux-gnu/bin/../lib/gcc/nios2-elf/10.3.1/../../../../../H-x86_64-pc-linux-gnu/nios2-elf/lib/mno-hw-mul/libc.a(lib_a-fwalk.o)
 .comment       0x000000000000002d       0x2e /home/nikola/intelFPGA_lite/21.1/nios2eds/bin/gnu/H-x86_64-pc-linux-gnu/bin/../lib/gcc/nios2-elf/10.3.1/../../../../../H-x86_64-pc-linux-gnu/nios2-elf/lib/mno-hw-mul/libc.a(lib_a-impure.o)
 .comment       0x000000000000002d       0x2e /home/nikola/intelFPGA_lite/21.1/nios2eds/bin/gnu/H-x86_64-pc-linux-gnu/bin/../lib/gcc/nios2-elf/10.3.1/../../../../../H-x86_64-pc-linux-gnu/nios2-elf/lib/mno-hw-mul/libc.a(lib_a-mallocr.o)
 .comment       0x000000000000002d       0x2e /home/nikola/intelFPGA_lite/21.1/nios2eds/bin/gnu/H-x86_64-pc-linux-gnu/bin/../lib/gcc/nios2-elf/10.3.1/../../../../../H-x86_64-pc-linux-gnu/nios2-elf/lib/mno-hw-mul/libc.a(lib_a-memchr.o)
 .comment       0x000000000000002d       0x2e /home/nikola/intelFPGA_lite/21.1/nios2eds/bin/gnu/H-x86_64-pc-linux-gnu/bin/../lib/gcc/nios2-elf/10.3.1/../../../../../H-x86_64-pc-linux-gnu/nios2-elf/lib/mno-hw-mul/libc.a(lib_a-memcpy.o)
 .comment       0x000000000000002d       0x2e /home/nikola/intelFPGA_lite/21.1/nios2eds/bin/gnu/H-x86_64-pc-linux-gnu/bin/../lib/gcc/nios2-elf/10.3.1/../../../../../H-x86_64-pc-linux-gnu/nios2-elf/lib/mno-hw-mul/libc.a(lib_a-memmove.o)
 .comment       0x000000000000002d       0x2e /home/nikola/intelFPGA_lite/21.1/nios2eds/bin/gnu/H-x86_64-pc-linux-gnu/bin/../lib/gcc/nios2-elf/10.3.1/../../../../../H-x86_64-pc-linux-gnu/nios2-elf/lib/mno-hw-mul/libc.a(lib_a-memset.o)
 .comment       0x000000000000002d       0x2e /home/nikola/intelFPGA_lite/21.1/nios2eds/bin/gnu/H-x86_64-pc-linux-gnu/bin/../lib/gcc/nios2-elf/10.3.1/../../../../../H-x86_64-pc-linux-gnu/nios2-elf/lib/mno-hw-mul/libc.a(lib_a-reallocr.o)
 .comment       0x000000000000002d       0x2e /home/nikola/intelFPGA_lite/21.1/nios2eds/bin/gnu/H-x86_64-pc-linux-gnu/bin/../lib/gcc/nios2-elf/10.3.1/../../../../../H-x86_64-pc-linux-gnu/nios2-elf/lib/mno-hw-mul/libc.a(lib_a-sbrkr.o)
 .comment       0x000000000000002d       0x2e /home/nikola/intelFPGA_lite/21.1/nios2eds/bin/gnu/H-x86_64-pc-linux-gnu/bin/../lib/gcc/nios2-elf/10.3.1/../../../../../H-x86_64-pc-linux-gnu/nios2-elf/lib/mno-hw-mul/libc.a(lib_a-stdio.o)
 .comment       0x000000000000002d       0x2e /home/nikola/intelFPGA_lite/21.1/nios2eds/bin/gnu/H-x86_64-pc-linux-gnu/bin/../lib/gcc/nios2-elf/10.3.1/../../../../../H-x86_64-pc-linux-gnu/nios2-elf/lib/mno-hw-mul/libc.a(lib_a-writer.o)
 .comment       0x000000000000002d       0x2e /home/nikola/intelFPGA_lite/21.1/nios2eds/bin/gnu/H-x86_64-pc-linux-gnu/bin/../lib/gcc/nios2-elf/10.3.1/../../../../../H-x86_64-pc-linux-gnu/nios2-elf/lib/mno-hw-mul/libc.a(lib_a-wsetup.o)
 .comment       0x000000000000002d       0x2e /home/nikola/intelFPGA_lite/21.1/nios2eds/bin/gnu/H-x86_64-pc-linux-gnu/bin/../lib/gcc/nios2-elf/10.3.1/../../../../../H-x86_64-pc-linux-gnu/nios2-elf/lib/mno-hw-mul/libc.a(closer.o)
 .comment       0x000000000000002d       0x2e /home/nikola/intelFPGA_lite/21.1/nios2eds/bin/gnu/H-x86_64-pc-linux-gnu/bin/../lib/gcc/nios2-elf/10.3.1/../../../../../H-x86_64-pc-linux-gnu/nios2-elf/lib/mno-hw-mul/libc.a(lib_a-fclose.o)
 .comment       0x000000000000002d       0x2e /home/nikola/intelFPGA_lite/21.1/nios2eds/bin/gnu/H-x86_64-pc-linux-gnu/bin/../lib/gcc/nios2-elf/10.3.1/../../../../../H-x86_64-pc-linux-gnu/nios2-elf/lib/mno-hw-mul/libc.a(lib_a-fflush.o)
 .comment       0x000000000000002d       0x2e /home/nikola/intelFPGA_lite/21.1/nios2eds/bin/gnu/H-x86_64-pc-linux-gnu/bin/../lib/gcc/nios2-elf/10.3.1/../../../../../H-x86_64-pc-linux-gnu/nios2-elf/lib/mno-hw-mul/libc.a(lib_a-freer.o)
 .comment       0x000000000000002d       0x2e /home/nikola/intelFPGA_lite/21.1/nios2eds/bin/gnu/H-x86_64-pc-linux-gnu/bin/../lib/gcc/nios2-elf/10.3.1/../../../../../H-x86_64-pc-linux-gnu/nios2-elf/lib/mno-hw-mul/libc.a(lib_a-int_errno.o)
 .comment       0x000000000000002d       0x2e /home/nikola/intelFPGA_lite/21.1/nios2eds/bin/gnu/H-x86_64-pc-linux-gnu/bin/../lib/gcc/nios2-elf/10.3.1/../../../../../H-x86_64-pc-linux-gnu/nios2-elf/lib/mno-hw-mul/libc.a(lib_a-lseekr.o)
 .comment       0x000000000000002d       0x2e /home/nikola/intelFPGA_lite/21.1/nios2eds/bin/gnu/H-x86_64-pc-linux-gnu/bin/../lib/gcc/nios2-elf/10.3.1/../../../../../H-x86_64-pc-linux-gnu/nios2-elf/lib/mno-hw-mul/libc.a(lib_a-makebuf.o)
 .comment       0x000000000000002d       0x2e /home/nikola/intelFPGA_lite/21.1/nios2eds/bin/gnu/H-x86_64-pc-linux-gnu/bin/../lib/gcc/nios2-elf/10.3.1/../../../../../H-x86_64-pc-linux-gnu/nios2-elf/lib/mno-hw-mul/libc.a(lib_a-readr.o)
 .comment       0x000000000000002d       0x2e /home/nikola/intelFPGA_lite/21.1/nios2eds/bin/gnu/H-x86_64-pc-linux-gnu/bin/../lib/gcc/nios2-elf/10.3.1/../../../../../H-x86_64-pc-linux-gnu/nios2-elf/lib/mno-hw-mul/libc.a(lib_a-fstatr.o)
 .comment       0x000000000000002d       0x2e /home/nikola/intelFPGA_lite/21.1/nios2eds/bin/gnu/H-x86_64-pc-linux-gnu/bin/../lib/gcc/nios2-elf/10.3.1/../../../../../H-x86_64-pc-linux-gnu/nios2-elf/lib/mno-hw-mul/libc.a(lib_a-isattyr.o)
 .comment       0x000000000000002d       0x2e /home/nikola/intelFPGA_lite/21.1/nios2eds/bin/gnu/H-x86_64-pc-linux-gnu/bin/../lib/gcc/nios2-elf/10.3.1/mno-hw-mul/libgcc.a(lib2-divmod.o)
 .comment       0x000000000000002d       0x2e /home/nikola/intelFPGA_lite/21.1/nios2eds/bin/gnu/H-x86_64-pc-linux-gnu/bin/../lib/gcc/nios2-elf/10.3.1/mno-hw-mul/libgcc.a(lib2-mul.o)
 .comment       0x000000000000002d       0x2e /home/nikola/PNRS/pnrs-2023/de1-soc-demo/sw/nios/individual/paper_bsp//libhal_bsp.a(alt_close.o)
 .comment       0x000000000000002d       0x2e /home/nikola/PNRS/pnrs-2023/de1-soc-demo/sw/nios/individual/paper_bsp//libhal_bsp.a(alt_dev.o)
 .comment       0x000000000000002d       0x2e /home/nikola/PNRS/pnrs-2023/de1-soc-demo/sw/nios/individual/paper_bsp//libhal_bsp.a(alt_errno.o)
 .comment       0x000000000000002d       0x2e /home/nikola/PNRS/pnrs-2023/de1-soc-demo/sw/nios/individual/paper_bsp//libhal_bsp.a(alt_fstat.o)
 .comment       0x000000000000002d       0x2e /home/nikola/PNRS/pnrs-2023/de1-soc-demo/sw/nios/individual/paper_bsp//libhal_bsp.a(alt_isatty.o)
 .comment       0x000000000000002d       0x2e /home/nikola/PNRS/pnrs-2023/de1-soc-demo/sw/nios/individual/paper_bsp//libhal_bsp.a(alt_load.o)
 .comment       0x000000000000002d       0x2e /home/nikola/PNRS/pnrs-2023/de1-soc-demo/sw/nios/individual/paper_bsp//libhal_bsp.a(alt_lseek.o)
 .comment       0x000000000000002d       0x2e /home/nikola/PNRS/pnrs-2023/de1-soc-demo/sw/nios/individual/paper_bsp//libhal_bsp.a(alt_main.o)
 .comment       0x000000000000002d       0x2e /home/nikola/PNRS/pnrs-2023/de1-soc-demo/sw/nios/individual/paper_bsp//libhal_bsp.a(alt_malloc_lock.o)
 .comment       0x000000000000002d       0x2e /home/nikola/PNRS/pnrs-2023/de1-soc-demo/sw/nios/individual/paper_bsp//libhal_bsp.a(alt_read.o)
 .comment       0x000000000000002d       0x2e /home/nikola/PNRS/pnrs-2023/de1-soc-demo/sw/nios/individual/paper_bsp//libhal_bsp.a(alt_release_fd.o)
 .comment       0x000000000000002d       0x2e /home/nikola/PNRS/pnrs-2023/de1-soc-demo/sw/nios/individual/paper_bsp//libhal_bsp.a(alt_sbrk.o)
 .comment       0x000000000000002d       0x2e /home/nikola/PNRS/pnrs-2023/de1-soc-demo/sw/nios/individual/paper_bsp//libhal_bsp.a(alt_usleep.o)
 .comment       0x000000000000002d       0x2e /home/nikola/PNRS/pnrs-2023/de1-soc-demo/sw/nios/individual/paper_bsp//libhal_bsp.a(alt_write.o)
 .comment       0x000000000000002d       0x2e /home/nikola/PNRS/pnrs-2023/de1-soc-demo/sw/nios/individual/paper_bsp//libhal_bsp.a(alt_sys_init.o)
 .comment       0x000000000000002d       0x2e /home/nikola/PNRS/pnrs-2023/de1-soc-demo/sw/nios/individual/paper_bsp//libhal_bsp.a(altera_avalon_jtag_uart_fd.o)
 .comment       0x000000000000002d       0x2e /home/nikola/PNRS/pnrs-2023/de1-soc-demo/sw/nios/individual/paper_bsp//libhal_bsp.a(altera_avalon_jtag_uart_init.o)
 .comment       0x000000000000002d       0x2e /home/nikola/PNRS/pnrs-2023/de1-soc-demo/sw/nios/individual/paper_bsp//libhal_bsp.a(altera_avalon_jtag_uart_ioctl.o)
 .comment       0x000000000000002d       0x2e /home/nikola/PNRS/pnrs-2023/de1-soc-demo/sw/nios/individual/paper_bsp//libhal_bsp.a(altera_avalon_jtag_uart_read.o)
 .comment       0x000000000000002d       0x2e /home/nikola/PNRS/pnrs-2023/de1-soc-demo/sw/nios/individual/paper_bsp//libhal_bsp.a(altera_avalon_jtag_uart_write.o)
 .comment       0x000000000000002d       0x2e /home/nikola/PNRS/pnrs-2023/de1-soc-demo/sw/nios/individual/paper_bsp//libhal_bsp.a(altera_avalon_mutex.o)
 .comment       0x000000000000002d       0x2e /home/nikola/PNRS/pnrs-2023/de1-soc-demo/sw/nios/individual/paper_bsp//libhal_bsp.a(altera_avalon_timer_sc.o)
 .comment       0x000000000000002d       0x2e /home/nikola/PNRS/pnrs-2023/de1-soc-demo/sw/nios/individual/paper_bsp//libhal_bsp.a(alt_alarm_start.o)
 .comment       0x000000000000002d       0x2e /home/nikola/PNRS/pnrs-2023/de1-soc-demo/sw/nios/individual/paper_bsp//libhal_bsp.a(alt_busy_sleep.o)
 .comment       0x000000000000002d       0x2e /home/nikola/PNRS/pnrs-2023/de1-soc-demo/sw/nios/individual/paper_bsp//libhal_bsp.a(alt_dcache_flush_all.o)
 .comment       0x000000000000002d       0x2e /home/nikola/PNRS/pnrs-2023/de1-soc-demo/sw/nios/individual/paper_bsp//libhal_bsp.a(alt_dev_llist_insert.o)
 .comment       0x000000000000002d       0x2e /home/nikola/PNRS/pnrs-2023/de1-soc-demo/sw/nios/individual/paper_bsp//libhal_bsp.a(alt_do_ctors.o)
 .comment       0x000000000000002d       0x2e /home/nikola/PNRS/pnrs-2023/de1-soc-demo/sw/nios/individual/paper_bsp//libhal_bsp.a(alt_do_dtors.o)
 .comment       0x000000000000002d       0x2e /home/nikola/PNRS/pnrs-2023/de1-soc-demo/sw/nios/individual/paper_bsp//libhal_bsp.a(alt_find_dev.o)
 .comment       0x000000000000002d       0x2e /home/nikola/PNRS/pnrs-2023/de1-soc-demo/sw/nios/individual/paper_bsp//libhal_bsp.a(alt_icache_flush_all.o)
 .comment       0x000000000000002d       0x2e /home/nikola/PNRS/pnrs-2023/de1-soc-demo/sw/nios/individual/paper_bsp//libhal_bsp.a(alt_iic.o)
 .comment       0x000000000000002d       0x2e /home/nikola/PNRS/pnrs-2023/de1-soc-demo/sw/nios/individual/paper_bsp//libhal_bsp.a(alt_iic_isr_register.o)
 .comment       0x000000000000002d       0x2e /home/nikola/PNRS/pnrs-2023/de1-soc-demo/sw/nios/individual/paper_bsp//libhal_bsp.a(alt_io_redirect.o)
 .comment       0x000000000000002d       0x2e /home/nikola/PNRS/pnrs-2023/de1-soc-demo/sw/nios/individual/paper_bsp//libhal_bsp.a(alt_irq_handler.o)
 .comment       0x000000000000002d       0x2e /home/nikola/PNRS/pnrs-2023/de1-soc-demo/sw/nios/individual/paper_bsp//libhal_bsp.a(alt_irq_vars.o)
 .comment       0x000000000000002d       0x2e /home/nikola/PNRS/pnrs-2023/de1-soc-demo/sw/nios/individual/paper_bsp//libhal_bsp.a(alt_open.o)
 .comment       0x000000000000002d       0x2e /home/nikola/PNRS/pnrs-2023/de1-soc-demo/sw/nios/individual/paper_bsp//libhal_bsp.a(alt_tick.o)
 .comment       0x000000000000002d       0x2e /home/nikola/PNRS/pnrs-2023/de1-soc-demo/sw/nios/individual/paper_bsp//libhal_bsp.a(altera_nios2_gen2_irq.o)
 .comment       0x000000000000002d       0x2e /home/nikola/PNRS/pnrs-2023/de1-soc-demo/sw/nios/individual/paper_bsp//libhal_bsp.a(alt_find_file.o)
 .comment       0x000000000000002d       0x2e /home/nikola/PNRS/pnrs-2023/de1-soc-demo/sw/nios/individual/paper_bsp//libhal_bsp.a(alt_get_fd.o)
 .comment       0x000000000000002d       0x2e /home/nikola/PNRS/pnrs-2023/de1-soc-demo/sw/nios/individual/paper_bsp//libhal_bsp.a(alt_instruction_exception_entry.o)
 .comment       0x000000000000002d       0x2e /home/nikola/intelFPGA_lite/21.1/nios2eds/bin/gnu/H-x86_64-pc-linux-gnu/bin/../lib/gcc/nios2-elf/10.3.1/../../../../../H-x86_64-pc-linux-gnu/nios2-elf/lib/mno-hw-mul/libc.a(lib_a-atexit.o)
 .comment       0x000000000000002d       0x2e /home/nikola/intelFPGA_lite/21.1/nios2eds/bin/gnu/H-x86_64-pc-linux-gnu/bin/../lib/gcc/nios2-elf/10.3.1/../../../../../H-x86_64-pc-linux-gnu/nios2-elf/lib/mno-hw-mul/libc.a(lib_a-exit.o)
 .comment       0x000000000000002d       0x2e /home/nikola/intelFPGA_lite/21.1/nios2eds/bin/gnu/H-x86_64-pc-linux-gnu/bin/../lib/gcc/nios2-elf/10.3.1/../../../../../H-x86_64-pc-linux-gnu/nios2-elf/lib/mno-hw-mul/libc.a(lib_a-memcmp.o)
 .comment       0x000000000000002d       0x2e /home/nikola/intelFPGA_lite/21.1/nios2eds/bin/gnu/H-x86_64-pc-linux-gnu/bin/../lib/gcc/nios2-elf/10.3.1/../../../../../H-x86_64-pc-linux-gnu/nios2-elf/lib/mno-hw-mul/libc.a(lib_a-__atexit.o)
 .comment       0x000000000000002d       0x2e /home/nikola/intelFPGA_lite/21.1/nios2eds/bin/gnu/H-x86_64-pc-linux-gnu/bin/../lib/gcc/nios2-elf/10.3.1/../../../../../H-x86_64-pc-linux-gnu/nios2-elf/lib/mno-hw-mul/libc.a(lib_a-__call_atexit.o)
 .comment       0x000000000000002d       0x2e /home/nikola/PNRS/pnrs-2023/de1-soc-demo/sw/nios/individual/paper_bsp//libhal_bsp.a(alt_exit.o)

.debug
 *(.debug)

.line
 *(.line)

.debug_srcinfo
 *(.debug_srcinfo)

.debug_sfnames
 *(.debug_sfnames)

.debug_aranges  0x0000000000000000      0xaa0
 *(.debug_aranges)
 .debug_aranges
                0x0000000000000000       0x28 /home/nikola/PNRS/pnrs-2023/de1-soc-demo/sw/nios/individual/paper_bsp//obj/HAL/src/crt0.o
 .debug_aranges
                0x0000000000000028       0x20 obj/default/paper.o
 .debug_aranges
                0x0000000000000048       0x28 /home/nikola/intelFPGA_lite/21.1/nios2eds/bin/gnu/H-x86_64-pc-linux-gnu/bin/../lib/gcc/nios2-elf/10.3.1/../../../../../H-x86_64-pc-linux-gnu/nios2-elf/lib/mno-hw-mul/libc.a(lib_a-puts.o)
 .debug_aranges
                0x0000000000000070       0x20 /home/nikola/intelFPGA_lite/21.1/nios2eds/bin/gnu/H-x86_64-pc-linux-gnu/bin/../lib/gcc/nios2-elf/10.3.1/../../../../../H-x86_64-pc-linux-gnu/nios2-elf/lib/mno-hw-mul/libc.a(lib_a-strlen.o)
 .debug_aranges
                0x0000000000000090       0x68 /home/nikola/intelFPGA_lite/21.1/nios2eds/bin/gnu/H-x86_64-pc-linux-gnu/bin/../lib/gcc/nios2-elf/10.3.1/../../../../../H-x86_64-pc-linux-gnu/nios2-elf/lib/mno-hw-mul/libc.a(lib_a-findfp.o)
 .debug_aranges
                0x00000000000000f8       0x20 /home/nikola/intelFPGA_lite/21.1/nios2eds/bin/gnu/H-x86_64-pc-linux-gnu/bin/../lib/gcc/nios2-elf/10.3.1/../../../../../H-x86_64-pc-linux-gnu/nios2-elf/lib/mno-hw-mul/libc.a(lib_a-fvwrite.o)
 .debug_aranges
                0x0000000000000118       0x28 /home/nikola/intelFPGA_lite/21.1/nios2eds/bin/gnu/H-x86_64-pc-linux-gnu/bin/../lib/gcc/nios2-elf/10.3.1/../../../../../H-x86_64-pc-linux-gnu/nios2-elf/lib/mno-hw-mul/libc.a(lib_a-fwalk.o)
 .debug_aranges
                0x0000000000000140       0x18 /home/nikola/intelFPGA_lite/21.1/nios2eds/bin/gnu/H-x86_64-pc-linux-gnu/bin/../lib/gcc/nios2-elf/10.3.1/../../../../../H-x86_64-pc-linux-gnu/nios2-elf/lib/mno-hw-mul/libc.a(lib_a-impure.o)
 .debug_aranges
                0x0000000000000158       0x20 /home/nikola/intelFPGA_lite/21.1/nios2eds/bin/gnu/H-x86_64-pc-linux-gnu/bin/../lib/gcc/nios2-elf/10.3.1/../../../../../H-x86_64-pc-linux-gnu/nios2-elf/lib/mno-hw-mul/libc.a(lib_a-mallocr.o)
 .debug_aranges
                0x0000000000000178       0x20 /home/nikola/intelFPGA_lite/21.1/nios2eds/bin/gnu/H-x86_64-pc-linux-gnu/bin/../lib/gcc/nios2-elf/10.3.1/../../../../../H-x86_64-pc-linux-gnu/nios2-elf/lib/mno-hw-mul/libc.a(lib_a-memchr.o)
 .debug_aranges
                0x0000000000000198       0x20 /home/nikola/intelFPGA_lite/21.1/nios2eds/bin/gnu/H-x86_64-pc-linux-gnu/bin/../lib/gcc/nios2-elf/10.3.1/../../../../../H-x86_64-pc-linux-gnu/nios2-elf/lib/mno-hw-mul/libc.a(lib_a-memcpy.o)
 .debug_aranges
                0x00000000000001b8       0x20 /home/nikola/intelFPGA_lite/21.1/nios2eds/bin/gnu/H-x86_64-pc-linux-gnu/bin/../lib/gcc/nios2-elf/10.3.1/../../../../../H-x86_64-pc-linux-gnu/nios2-elf/lib/mno-hw-mul/libc.a(lib_a-memmove.o)
 .debug_aranges
                0x00000000000001d8       0x20 /home/nikola/intelFPGA_lite/21.1/nios2eds/bin/gnu/H-x86_64-pc-linux-gnu/bin/../lib/gcc/nios2-elf/10.3.1/../../../../../H-x86_64-pc-linux-gnu/nios2-elf/lib/mno-hw-mul/libc.a(lib_a-memset.o)
 .debug_aranges
                0x00000000000001f8       0x20 /home/nikola/intelFPGA_lite/21.1/nios2eds/bin/gnu/H-x86_64-pc-linux-gnu/bin/../lib/gcc/nios2-elf/10.3.1/../../../../../H-x86_64-pc-linux-gnu/nios2-elf/lib/mno-hw-mul/libc.a(lib_a-reallocr.o)
 .debug_aranges
                0x0000000000000218       0x20 /home/nikola/intelFPGA_lite/21.1/nios2eds/bin/gnu/H-x86_64-pc-linux-gnu/bin/../lib/gcc/nios2-elf/10.3.1/../../../../../H-x86_64-pc-linux-gnu/nios2-elf/lib/mno-hw-mul/libc.a(lib_a-sbrkr.o)
 .debug_aranges
                0x0000000000000238       0x40 /home/nikola/intelFPGA_lite/21.1/nios2eds/bin/gnu/H-x86_64-pc-linux-gnu/bin/../lib/gcc/nios2-elf/10.3.1/../../../../../H-x86_64-pc-linux-gnu/nios2-elf/lib/mno-hw-mul/libc.a(lib_a-stdio.o)
 .debug_aranges
                0x0000000000000278       0x20 /home/nikola/intelFPGA_lite/21.1/nios2eds/bin/gnu/H-x86_64-pc-linux-gnu/bin/../lib/gcc/nios2-elf/10.3.1/../../../../../H-x86_64-pc-linux-gnu/nios2-elf/lib/mno-hw-mul/libc.a(lib_a-writer.o)
 .debug_aranges
                0x0000000000000298       0x20 /home/nikola/intelFPGA_lite/21.1/nios2eds/bin/gnu/H-x86_64-pc-linux-gnu/bin/../lib/gcc/nios2-elf/10.3.1/../../../../../H-x86_64-pc-linux-gnu/nios2-elf/lib/mno-hw-mul/libc.a(lib_a-wsetup.o)
 .debug_aranges
                0x00000000000002b8       0x20 /home/nikola/intelFPGA_lite/21.1/nios2eds/bin/gnu/H-x86_64-pc-linux-gnu/bin/../lib/gcc/nios2-elf/10.3.1/../../../../../H-x86_64-pc-linux-gnu/nios2-elf/lib/mno-hw-mul/libc.a(closer.o)
 .debug_aranges
                0x00000000000002d8       0x30 /home/nikola/intelFPGA_lite/21.1/nios2eds/bin/gnu/H-x86_64-pc-linux-gnu/bin/../lib/gcc/nios2-elf/10.3.1/../../../../../H-x86_64-pc-linux-gnu/nios2-elf/lib/mno-hw-mul/libc.a(lib_a-fclose.o)
 .debug_aranges
                0x0000000000000308       0x30 /home/nikola/intelFPGA_lite/21.1/nios2eds/bin/gnu/H-x86_64-pc-linux-gnu/bin/../lib/gcc/nios2-elf/10.3.1/../../../../../H-x86_64-pc-linux-gnu/nios2-elf/lib/mno-hw-mul/libc.a(lib_a-fflush.o)
 .debug_aranges
                0x0000000000000338       0x28 /home/nikola/intelFPGA_lite/21.1/nios2eds/bin/gnu/H-x86_64-pc-linux-gnu/bin/../lib/gcc/nios2-elf/10.3.1/../../../../../H-x86_64-pc-linux-gnu/nios2-elf/lib/mno-hw-mul/libc.a(lib_a-freer.o)
 .debug_aranges
                0x0000000000000360       0x18 /home/nikola/intelFPGA_lite/21.1/nios2eds/bin/gnu/H-x86_64-pc-linux-gnu/bin/../lib/gcc/nios2-elf/10.3.1/../../../../../H-x86_64-pc-linux-gnu/nios2-elf/lib/mno-hw-mul/libc.a(lib_a-int_errno.o)
 .debug_aranges
                0x0000000000000378       0x20 /home/nikola/intelFPGA_lite/21.1/nios2eds/bin/gnu/H-x86_64-pc-linux-gnu/bin/../lib/gcc/nios2-elf/10.3.1/../../../../../H-x86_64-pc-linux-gnu/nios2-elf/lib/mno-hw-mul/libc.a(lib_a-lseekr.o)
 .debug_aranges
                0x0000000000000398       0x28 /home/nikola/intelFPGA_lite/21.1/nios2eds/bin/gnu/H-x86_64-pc-linux-gnu/bin/../lib/gcc/nios2-elf/10.3.1/../../../../../H-x86_64-pc-linux-gnu/nios2-elf/lib/mno-hw-mul/libc.a(lib_a-makebuf.o)
 .debug_aranges
                0x00000000000003c0       0x20 /home/nikola/intelFPGA_lite/21.1/nios2eds/bin/gnu/H-x86_64-pc-linux-gnu/bin/../lib/gcc/nios2-elf/10.3.1/../../../../../H-x86_64-pc-linux-gnu/nios2-elf/lib/mno-hw-mul/libc.a(lib_a-readr.o)
 .debug_aranges
                0x00000000000003e0       0x20 /home/nikola/intelFPGA_lite/21.1/nios2eds/bin/gnu/H-x86_64-pc-linux-gnu/bin/../lib/gcc/nios2-elf/10.3.1/../../../../../H-x86_64-pc-linux-gnu/nios2-elf/lib/mno-hw-mul/libc.a(lib_a-fstatr.o)
 .debug_aranges
                0x0000000000000400       0x20 /home/nikola/intelFPGA_lite/21.1/nios2eds/bin/gnu/H-x86_64-pc-linux-gnu/bin/../lib/gcc/nios2-elf/10.3.1/../../../../../H-x86_64-pc-linux-gnu/nios2-elf/lib/mno-hw-mul/libc.a(lib_a-isattyr.o)
 .debug_aranges
                0x0000000000000420       0x20 /home/nikola/intelFPGA_lite/21.1/nios2eds/bin/gnu/H-x86_64-pc-linux-gnu/bin/../lib/gcc/nios2-elf/10.3.1/mno-hw-mul/libgcc.a(lib2-divmod.o)
 .debug_aranges
                0x0000000000000440       0x20 /home/nikola/intelFPGA_lite/21.1/nios2eds/bin/gnu/H-x86_64-pc-linux-gnu/bin/../lib/gcc/nios2-elf/10.3.1/mno-hw-mul/libgcc.a(lib2-mul.o)
 .debug_aranges
                0x0000000000000460       0x20 /home/nikola/PNRS/pnrs-2023/de1-soc-demo/sw/nios/individual/paper_bsp//libhal_bsp.a(alt_close.o)
 .debug_aranges
                0x0000000000000480       0x20 /home/nikola/PNRS/pnrs-2023/de1-soc-demo/sw/nios/individual/paper_bsp//libhal_bsp.a(alt_dev.o)
 .debug_aranges
                0x00000000000004a0       0x18 /home/nikola/PNRS/pnrs-2023/de1-soc-demo/sw/nios/individual/paper_bsp//libhal_bsp.a(alt_errno.o)
 .debug_aranges
                0x00000000000004b8       0x20 /home/nikola/PNRS/pnrs-2023/de1-soc-demo/sw/nios/individual/paper_bsp//libhal_bsp.a(alt_fstat.o)
 .debug_aranges
                0x00000000000004d8       0x20 /home/nikola/PNRS/pnrs-2023/de1-soc-demo/sw/nios/individual/paper_bsp//libhal_bsp.a(alt_isatty.o)
 .debug_aranges
                0x00000000000004f8       0x20 /home/nikola/PNRS/pnrs-2023/de1-soc-demo/sw/nios/individual/paper_bsp//libhal_bsp.a(alt_load.o)
 .debug_aranges
                0x0000000000000518       0x20 /home/nikola/PNRS/pnrs-2023/de1-soc-demo/sw/nios/individual/paper_bsp//libhal_bsp.a(alt_lseek.o)
 .debug_aranges
                0x0000000000000538       0x20 /home/nikola/PNRS/pnrs-2023/de1-soc-demo/sw/nios/individual/paper_bsp//libhal_bsp.a(alt_main.o)
 .debug_aranges
                0x0000000000000558       0x20 /home/nikola/PNRS/pnrs-2023/de1-soc-demo/sw/nios/individual/paper_bsp//libhal_bsp.a(alt_malloc_lock.o)
 .debug_aranges
                0x0000000000000578       0x20 /home/nikola/PNRS/pnrs-2023/de1-soc-demo/sw/nios/individual/paper_bsp//libhal_bsp.a(alt_read.o)
 .debug_aranges
                0x0000000000000598       0x20 /home/nikola/PNRS/pnrs-2023/de1-soc-demo/sw/nios/individual/paper_bsp//libhal_bsp.a(alt_release_fd.o)
 .debug_aranges
                0x00000000000005b8       0x20 /home/nikola/PNRS/pnrs-2023/de1-soc-demo/sw/nios/individual/paper_bsp//libhal_bsp.a(alt_sbrk.o)
 .debug_aranges
                0x00000000000005d8       0x20 /home/nikola/PNRS/pnrs-2023/de1-soc-demo/sw/nios/individual/paper_bsp//libhal_bsp.a(alt_usleep.o)
 .debug_aranges
                0x00000000000005f8       0x20 /home/nikola/PNRS/pnrs-2023/de1-soc-demo/sw/nios/individual/paper_bsp//libhal_bsp.a(alt_write.o)
 .debug_aranges
                0x0000000000000618       0x20 /home/nikola/PNRS/pnrs-2023/de1-soc-demo/sw/nios/individual/paper_bsp//libhal_bsp.a(alt_sys_init.o)
 .debug_aranges
                0x0000000000000638       0x20 /home/nikola/PNRS/pnrs-2023/de1-soc-demo/sw/nios/individual/paper_bsp//libhal_bsp.a(altera_avalon_jtag_uart_fd.o)
 .debug_aranges
                0x0000000000000658       0x20 /home/nikola/PNRS/pnrs-2023/de1-soc-demo/sw/nios/individual/paper_bsp//libhal_bsp.a(altera_avalon_jtag_uart_init.o)
 .debug_aranges
                0x0000000000000678       0x20 /home/nikola/PNRS/pnrs-2023/de1-soc-demo/sw/nios/individual/paper_bsp//libhal_bsp.a(altera_avalon_jtag_uart_ioctl.o)
 .debug_aranges
                0x0000000000000698       0x20 /home/nikola/PNRS/pnrs-2023/de1-soc-demo/sw/nios/individual/paper_bsp//libhal_bsp.a(altera_avalon_jtag_uart_read.o)
 .debug_aranges
                0x00000000000006b8       0x20 /home/nikola/PNRS/pnrs-2023/de1-soc-demo/sw/nios/individual/paper_bsp//libhal_bsp.a(altera_avalon_jtag_uart_write.o)
 .debug_aranges
                0x00000000000006d8       0x20 /home/nikola/PNRS/pnrs-2023/de1-soc-demo/sw/nios/individual/paper_bsp//libhal_bsp.a(altera_avalon_mutex.o)
 .debug_aranges
                0x00000000000006f8       0x20 /home/nikola/PNRS/pnrs-2023/de1-soc-demo/sw/nios/individual/paper_bsp//libhal_bsp.a(altera_avalon_timer_sc.o)
 .debug_aranges
                0x0000000000000718       0x20 /home/nikola/PNRS/pnrs-2023/de1-soc-demo/sw/nios/individual/paper_bsp//libhal_bsp.a(alt_alarm_start.o)
 .debug_aranges
                0x0000000000000738       0x20 /home/nikola/PNRS/pnrs-2023/de1-soc-demo/sw/nios/individual/paper_bsp//libhal_bsp.a(alt_busy_sleep.o)
 .debug_aranges
                0x0000000000000758       0x20 /home/nikola/PNRS/pnrs-2023/de1-soc-demo/sw/nios/individual/paper_bsp//libhal_bsp.a(alt_dcache_flush_all.o)
 .debug_aranges
                0x0000000000000778       0x20 /home/nikola/PNRS/pnrs-2023/de1-soc-demo/sw/nios/individual/paper_bsp//libhal_bsp.a(alt_dev_llist_insert.o)
 .debug_aranges
                0x0000000000000798       0x20 /home/nikola/PNRS/pnrs-2023/de1-soc-demo/sw/nios/individual/paper_bsp//libhal_bsp.a(alt_do_ctors.o)
 .debug_aranges
                0x00000000000007b8       0x20 /home/nikola/PNRS/pnrs-2023/de1-soc-demo/sw/nios/individual/paper_bsp//libhal_bsp.a(alt_do_dtors.o)
 .debug_aranges
                0x00000000000007d8       0x20 /home/nikola/PNRS/pnrs-2023/de1-soc-demo/sw/nios/individual/paper_bsp//libhal_bsp.a(alt_find_dev.o)
 .debug_aranges
                0x00000000000007f8       0x20 /home/nikola/PNRS/pnrs-2023/de1-soc-demo/sw/nios/individual/paper_bsp//libhal_bsp.a(alt_icache_flush_all.o)
 .debug_aranges
                0x0000000000000818       0x20 /home/nikola/PNRS/pnrs-2023/de1-soc-demo/sw/nios/individual/paper_bsp//libhal_bsp.a(alt_iic.o)
 .debug_aranges
                0x0000000000000838       0x20 /home/nikola/PNRS/pnrs-2023/de1-soc-demo/sw/nios/individual/paper_bsp//libhal_bsp.a(alt_iic_isr_register.o)
 .debug_aranges
                0x0000000000000858       0x20 /home/nikola/PNRS/pnrs-2023/de1-soc-demo/sw/nios/individual/paper_bsp//libhal_bsp.a(alt_io_redirect.o)
 .debug_aranges
                0x0000000000000878       0x30 /home/nikola/PNRS/pnrs-2023/de1-soc-demo/sw/nios/individual/paper_bsp//libhal_bsp.a(alt_irq_entry.o)
 .debug_aranges
                0x00000000000008a8       0x20 /home/nikola/PNRS/pnrs-2023/de1-soc-demo/sw/nios/individual/paper_bsp//libhal_bsp.a(alt_irq_handler.o)
 .debug_aranges
                0x00000000000008c8       0x18 /home/nikola/PNRS/pnrs-2023/de1-soc-demo/sw/nios/individual/paper_bsp//libhal_bsp.a(alt_irq_vars.o)
 .debug_aranges
                0x00000000000008e0       0x20 /home/nikola/PNRS/pnrs-2023/de1-soc-demo/sw/nios/individual/paper_bsp//libhal_bsp.a(alt_open.o)
 .debug_aranges
                0x0000000000000900       0x20 /home/nikola/PNRS/pnrs-2023/de1-soc-demo/sw/nios/individual/paper_bsp//libhal_bsp.a(alt_tick.o)
 .debug_aranges
                0x0000000000000920       0x20 /home/nikola/PNRS/pnrs-2023/de1-soc-demo/sw/nios/individual/paper_bsp//libhal_bsp.a(altera_nios2_gen2_irq.o)
 .debug_aranges
                0x0000000000000940       0x38 /home/nikola/PNRS/pnrs-2023/de1-soc-demo/sw/nios/individual/paper_bsp//libhal_bsp.a(alt_exception_entry.o)
 .debug_aranges
                0x0000000000000978       0x20 /home/nikola/PNRS/pnrs-2023/de1-soc-demo/sw/nios/individual/paper_bsp//libhal_bsp.a(alt_find_file.o)
 .debug_aranges
                0x0000000000000998       0x20 /home/nikola/PNRS/pnrs-2023/de1-soc-demo/sw/nios/individual/paper_bsp//libhal_bsp.a(alt_get_fd.o)
 .debug_aranges
                0x00000000000009b8       0x28 /home/nikola/PNRS/pnrs-2023/de1-soc-demo/sw/nios/individual/paper_bsp//libhal_bsp.a(alt_instruction_exception_entry.o)
 .debug_aranges
                0x00000000000009e0       0x20 /home/nikola/intelFPGA_lite/21.1/nios2eds/bin/gnu/H-x86_64-pc-linux-gnu/bin/../lib/gcc/nios2-elf/10.3.1/../../../../../H-x86_64-pc-linux-gnu/nios2-elf/lib/mno-hw-mul/libc.a(lib_a-atexit.o)
 .debug_aranges
                0x0000000000000a00       0x20 /home/nikola/intelFPGA_lite/21.1/nios2eds/bin/gnu/H-x86_64-pc-linux-gnu/bin/../lib/gcc/nios2-elf/10.3.1/../../../../../H-x86_64-pc-linux-gnu/nios2-elf/lib/mno-hw-mul/libc.a(lib_a-exit.o)
 .debug_aranges
                0x0000000000000a20       0x20 /home/nikola/intelFPGA_lite/21.1/nios2eds/bin/gnu/H-x86_64-pc-linux-gnu/bin/../lib/gcc/nios2-elf/10.3.1/../../../../../H-x86_64-pc-linux-gnu/nios2-elf/lib/mno-hw-mul/libc.a(lib_a-memcmp.o)
 .debug_aranges
                0x0000000000000a40       0x20 /home/nikola/intelFPGA_lite/21.1/nios2eds/bin/gnu/H-x86_64-pc-linux-gnu/bin/../lib/gcc/nios2-elf/10.3.1/../../../../../H-x86_64-pc-linux-gnu/nios2-elf/lib/mno-hw-mul/libc.a(lib_a-__atexit.o)
 .debug_aranges
                0x0000000000000a60       0x20 /home/nikola/intelFPGA_lite/21.1/nios2eds/bin/gnu/H-x86_64-pc-linux-gnu/bin/../lib/gcc/nios2-elf/10.3.1/../../../../../H-x86_64-pc-linux-gnu/nios2-elf/lib/mno-hw-mul/libc.a(lib_a-__call_atexit.o)
 .debug_aranges
                0x0000000000000a80       0x20 /home/nikola/PNRS/pnrs-2023/de1-soc-demo/sw/nios/individual/paper_bsp//libhal_bsp.a(alt_exit.o)

.debug_pubnames
 *(.debug_pubnames)

.debug_info     0x0000000000000000    0x1874d
 *(.debug_info .gnu.linkonce.wi.*)
 .debug_info    0x0000000000000000       0x22 /home/nikola/PNRS/pnrs-2023/de1-soc-demo/sw/nios/individual/paper_bsp//obj/HAL/src/crt0.o
 .debug_info    0x0000000000000022      0x29b obj/default/paper.o
 .debug_info    0x00000000000002bd      0xae3 /home/nikola/intelFPGA_lite/21.1/nios2eds/bin/gnu/H-x86_64-pc-linux-gnu/bin/../lib/gcc/nios2-elf/10.3.1/../../../../../H-x86_64-pc-linux-gnu/nios2-elf/lib/mno-hw-mul/libc.a(lib_a-puts.o)
 .debug_info    0x0000000000000da0       0xee /home/nikola/intelFPGA_lite/21.1/nios2eds/bin/gnu/H-x86_64-pc-linux-gnu/bin/../lib/gcc/nios2-elf/10.3.1/../../../../../H-x86_64-pc-linux-gnu/nios2-elf/lib/mno-hw-mul/libc.a(lib_a-strlen.o)
 .debug_info    0x0000000000000e8e      0xefa /home/nikola/intelFPGA_lite/21.1/nios2eds/bin/gnu/H-x86_64-pc-linux-gnu/bin/../lib/gcc/nios2-elf/10.3.1/../../../../../H-x86_64-pc-linux-gnu/nios2-elf/lib/mno-hw-mul/libc.a(lib_a-findfp.o)
 .debug_info    0x0000000000001d88      0xcb2 /home/nikola/intelFPGA_lite/21.1/nios2eds/bin/gnu/H-x86_64-pc-linux-gnu/bin/../lib/gcc/nios2-elf/10.3.1/../../../../../H-x86_64-pc-linux-gnu/nios2-elf/lib/mno-hw-mul/libc.a(lib_a-fvwrite.o)
 .debug_info    0x0000000000002a3a      0xa6d /home/nikola/intelFPGA_lite/21.1/nios2eds/bin/gnu/H-x86_64-pc-linux-gnu/bin/../lib/gcc/nios2-elf/10.3.1/../../../../../H-x86_64-pc-linux-gnu/nios2-elf/lib/mno-hw-mul/libc.a(lib_a-fwalk.o)
 .debug_info    0x00000000000034a7      0x931 /home/nikola/intelFPGA_lite/21.1/nios2eds/bin/gnu/H-x86_64-pc-linux-gnu/bin/../lib/gcc/nios2-elf/10.3.1/../../../../../H-x86_64-pc-linux-gnu/nios2-elf/lib/mno-hw-mul/libc.a(lib_a-impure.o)
 .debug_info    0x0000000000003dd8      0xe9a /home/nikola/intelFPGA_lite/21.1/nios2eds/bin/gnu/H-x86_64-pc-linux-gnu/bin/../lib/gcc/nios2-elf/10.3.1/../../../../../H-x86_64-pc-linux-gnu/nios2-elf/lib/mno-hw-mul/libc.a(lib_a-mallocr.o)
 .debug_info    0x0000000000004c72      0x155 /home/nikola/intelFPGA_lite/21.1/nios2eds/bin/gnu/H-x86_64-pc-linux-gnu/bin/../lib/gcc/nios2-elf/10.3.1/../../../../../H-x86_64-pc-linux-gnu/nios2-elf/lib/mno-hw-mul/libc.a(lib_a-memchr.o)
 .debug_info    0x0000000000004dc7      0x162 /home/nikola/intelFPGA_lite/21.1/nios2eds/bin/gnu/H-x86_64-pc-linux-gnu/bin/../lib/gcc/nios2-elf/10.3.1/../../../../../H-x86_64-pc-linux-gnu/nios2-elf/lib/mno-hw-mul/libc.a(lib_a-memcpy.o)
 .debug_info    0x0000000000004f29      0x158 /home/nikola/intelFPGA_lite/21.1/nios2eds/bin/gnu/H-x86_64-pc-linux-gnu/bin/../lib/gcc/nios2-elf/10.3.1/../../../../../H-x86_64-pc-linux-gnu/nios2-elf/lib/mno-hw-mul/libc.a(lib_a-memmove.o)
 .debug_info    0x0000000000005081      0x13d /home/nikola/intelFPGA_lite/21.1/nios2eds/bin/gnu/H-x86_64-pc-linux-gnu/bin/../lib/gcc/nios2-elf/10.3.1/../../../../../H-x86_64-pc-linux-gnu/nios2-elf/lib/mno-hw-mul/libc.a(lib_a-memset.o)
 .debug_info    0x00000000000051be      0xd8d /home/nikola/intelFPGA_lite/21.1/nios2eds/bin/gnu/H-x86_64-pc-linux-gnu/bin/../lib/gcc/nios2-elf/10.3.1/../../../../../H-x86_64-pc-linux-gnu/nios2-elf/lib/mno-hw-mul/libc.a(lib_a-reallocr.o)
 .debug_info    0x0000000000005f4b      0x994 /home/nikola/intelFPGA_lite/21.1/nios2eds/bin/gnu/H-x86_64-pc-linux-gnu/bin/../lib/gcc/nios2-elf/10.3.1/../../../../../H-x86_64-pc-linux-gnu/nios2-elf/lib/mno-hw-mul/libc.a(lib_a-sbrkr.o)
 .debug_info    0x00000000000068df      0xc23 /home/nikola/intelFPGA_lite/21.1/nios2eds/bin/gnu/H-x86_64-pc-linux-gnu/bin/../lib/gcc/nios2-elf/10.3.1/../../../../../H-x86_64-pc-linux-gnu/nios2-elf/lib/mno-hw-mul/libc.a(lib_a-stdio.o)
 .debug_info    0x0000000000007502      0x9c6 /home/nikola/intelFPGA_lite/21.1/nios2eds/bin/gnu/H-x86_64-pc-linux-gnu/bin/../lib/gcc/nios2-elf/10.3.1/../../../../../H-x86_64-pc-linux-gnu/nios2-elf/lib/mno-hw-mul/libc.a(lib_a-writer.o)
 .debug_info    0x0000000000007ec8      0x9c9 /home/nikola/intelFPGA_lite/21.1/nios2eds/bin/gnu/H-x86_64-pc-linux-gnu/bin/../lib/gcc/nios2-elf/10.3.1/../../../../../H-x86_64-pc-linux-gnu/nios2-elf/lib/mno-hw-mul/libc.a(lib_a-wsetup.o)
 .debug_info    0x0000000000008891      0x971 /home/nikola/intelFPGA_lite/21.1/nios2eds/bin/gnu/H-x86_64-pc-linux-gnu/bin/../lib/gcc/nios2-elf/10.3.1/../../../../../H-x86_64-pc-linux-gnu/nios2-elf/lib/mno-hw-mul/libc.a(closer.o)
 .debug_info    0x0000000000009202      0xb4b /home/nikola/intelFPGA_lite/21.1/nios2eds/bin/gnu/H-x86_64-pc-linux-gnu/bin/../lib/gcc/nios2-elf/10.3.1/../../../../../H-x86_64-pc-linux-gnu/nios2-elf/lib/mno-hw-mul/libc.a(lib_a-fclose.o)
 .debug_info    0x0000000000009d4d      0xbf6 /home/nikola/intelFPGA_lite/21.1/nios2eds/bin/gnu/H-x86_64-pc-linux-gnu/bin/../lib/gcc/nios2-elf/10.3.1/../../../../../H-x86_64-pc-linux-gnu/nios2-elf/lib/mno-hw-mul/libc.a(lib_a-fflush.o)
 .debug_info    0x000000000000a943      0xced /home/nikola/intelFPGA_lite/21.1/nios2eds/bin/gnu/H-x86_64-pc-linux-gnu/bin/../lib/gcc/nios2-elf/10.3.1/../../../../../H-x86_64-pc-linux-gnu/nios2-elf/lib/mno-hw-mul/libc.a(lib_a-freer.o)
 .debug_info    0x000000000000b630       0x84 /home/nikola/intelFPGA_lite/21.1/nios2eds/bin/gnu/H-x86_64-pc-linux-gnu/bin/../lib/gcc/nios2-elf/10.3.1/../../../../../H-x86_64-pc-linux-gnu/nios2-elf/lib/mno-hw-mul/libc.a(lib_a-int_errno.o)
 .debug_info    0x000000000000b6b4      0x9a7 /home/nikola/intelFPGA_lite/21.1/nios2eds/bin/gnu/H-x86_64-pc-linux-gnu/bin/../lib/gcc/nios2-elf/10.3.1/../../../../../H-x86_64-pc-linux-gnu/nios2-elf/lib/mno-hw-mul/libc.a(lib_a-lseekr.o)
 .debug_info    0x000000000000c05b      0xe0b /home/nikola/intelFPGA_lite/21.1/nios2eds/bin/gnu/H-x86_64-pc-linux-gnu/bin/../lib/gcc/nios2-elf/10.3.1/../../../../../H-x86_64-pc-linux-gnu/nios2-elf/lib/mno-hw-mul/libc.a(lib_a-makebuf.o)
 .debug_info    0x000000000000ce66      0x9bf /home/nikola/intelFPGA_lite/21.1/nios2eds/bin/gnu/H-x86_64-pc-linux-gnu/bin/../lib/gcc/nios2-elf/10.3.1/../../../../../H-x86_64-pc-linux-gnu/nios2-elf/lib/mno-hw-mul/libc.a(lib_a-readr.o)
 .debug_info    0x000000000000d825      0xb8a /home/nikola/intelFPGA_lite/21.1/nios2eds/bin/gnu/H-x86_64-pc-linux-gnu/bin/../lib/gcc/nios2-elf/10.3.1/../../../../../H-x86_64-pc-linux-gnu/nios2-elf/lib/mno-hw-mul/libc.a(lib_a-fstatr.o)
 .debug_info    0x000000000000e3af      0x971 /home/nikola/intelFPGA_lite/21.1/nios2eds/bin/gnu/H-x86_64-pc-linux-gnu/bin/../lib/gcc/nios2-elf/10.3.1/../../../../../H-x86_64-pc-linux-gnu/nios2-elf/lib/mno-hw-mul/libc.a(lib_a-isattyr.o)
 .debug_info    0x000000000000ed20      0x368 /home/nikola/intelFPGA_lite/21.1/nios2eds/bin/gnu/H-x86_64-pc-linux-gnu/bin/../lib/gcc/nios2-elf/10.3.1/mno-hw-mul/libgcc.a(lib2-divmod.o)
 .debug_info    0x000000000000f088       0xcb /home/nikola/intelFPGA_lite/21.1/nios2eds/bin/gnu/H-x86_64-pc-linux-gnu/bin/../lib/gcc/nios2-elf/10.3.1/mno-hw-mul/libgcc.a(lib2-mul.o)
 .debug_info    0x000000000000f153      0x32c /home/nikola/PNRS/pnrs-2023/de1-soc-demo/sw/nios/individual/paper_bsp//libhal_bsp.a(alt_close.o)
 .debug_info    0x000000000000f47f      0x57d /home/nikola/PNRS/pnrs-2023/de1-soc-demo/sw/nios/individual/paper_bsp//libhal_bsp.a(alt_dev.o)
 .debug_info    0x000000000000f9fc       0x9d /home/nikola/PNRS/pnrs-2023/de1-soc-demo/sw/nios/individual/paper_bsp//libhal_bsp.a(alt_errno.o)
 .debug_info    0x000000000000fa99      0x52a /home/nikola/PNRS/pnrs-2023/de1-soc-demo/sw/nios/individual/paper_bsp//libhal_bsp.a(alt_fstat.o)
 .debug_info    0x000000000000ffc3      0x52d /home/nikola/PNRS/pnrs-2023/de1-soc-demo/sw/nios/individual/paper_bsp//libhal_bsp.a(alt_isatty.o)
 .debug_info    0x00000000000104f0      0x14d /home/nikola/PNRS/pnrs-2023/de1-soc-demo/sw/nios/individual/paper_bsp//libhal_bsp.a(alt_load.o)
 .debug_info    0x000000000001063d      0x36d /home/nikola/PNRS/pnrs-2023/de1-soc-demo/sw/nios/individual/paper_bsp//libhal_bsp.a(alt_lseek.o)
 .debug_info    0x00000000000109aa       0xef /home/nikola/PNRS/pnrs-2023/de1-soc-demo/sw/nios/individual/paper_bsp//libhal_bsp.a(alt_main.o)
 .debug_info    0x0000000000010a99      0x938 /home/nikola/PNRS/pnrs-2023/de1-soc-demo/sw/nios/individual/paper_bsp//libhal_bsp.a(alt_malloc_lock.o)
 .debug_info    0x00000000000113d1      0x555 /home/nikola/PNRS/pnrs-2023/de1-soc-demo/sw/nios/individual/paper_bsp//libhal_bsp.a(alt_read.o)
 .debug_info    0x0000000000011926      0x2b9 /home/nikola/PNRS/pnrs-2023/de1-soc-demo/sw/nios/individual/paper_bsp//libhal_bsp.a(alt_release_fd.o)
 .debug_info    0x0000000000011bdf      0x19c /home/nikola/PNRS/pnrs-2023/de1-soc-demo/sw/nios/individual/paper_bsp//libhal_bsp.a(alt_sbrk.o)
 .debug_info    0x0000000000011d7b       0xb7 /home/nikola/PNRS/pnrs-2023/de1-soc-demo/sw/nios/individual/paper_bsp//libhal_bsp.a(alt_usleep.o)
 .debug_info    0x0000000000011e32      0x55c /home/nikola/PNRS/pnrs-2023/de1-soc-demo/sw/nios/individual/paper_bsp//libhal_bsp.a(alt_write.o)
 .debug_info    0x000000000001238e      0x600 /home/nikola/PNRS/pnrs-2023/de1-soc-demo/sw/nios/individual/paper_bsp//libhal_bsp.a(alt_sys_init.o)
 .debug_info    0x000000000001298e      0x53c /home/nikola/PNRS/pnrs-2023/de1-soc-demo/sw/nios/individual/paper_bsp//libhal_bsp.a(altera_avalon_jtag_uart_fd.o)
 .debug_info    0x0000000000012eca      0x3cf /home/nikola/PNRS/pnrs-2023/de1-soc-demo/sw/nios/individual/paper_bsp//libhal_bsp.a(altera_avalon_jtag_uart_init.o)
 .debug_info    0x0000000000013299      0x266 /home/nikola/PNRS/pnrs-2023/de1-soc-demo/sw/nios/individual/paper_bsp//libhal_bsp.a(altera_avalon_jtag_uart_ioctl.o)
 .debug_info    0x00000000000134ff      0x335 /home/nikola/PNRS/pnrs-2023/de1-soc-demo/sw/nios/individual/paper_bsp//libhal_bsp.a(altera_avalon_jtag_uart_read.o)
 .debug_info    0x0000000000013834      0x330 /home/nikola/PNRS/pnrs-2023/de1-soc-demo/sw/nios/individual/paper_bsp//libhal_bsp.a(altera_avalon_jtag_uart_write.o)
 .debug_info    0x0000000000013b64      0x3be /home/nikola/PNRS/pnrs-2023/de1-soc-demo/sw/nios/individual/paper_bsp//libhal_bsp.a(altera_avalon_mutex.o)
 .debug_info    0x0000000000013f22      0x1d5 /home/nikola/PNRS/pnrs-2023/de1-soc-demo/sw/nios/individual/paper_bsp//libhal_bsp.a(altera_avalon_timer_sc.o)
 .debug_info    0x00000000000140f7      0x2d0 /home/nikola/PNRS/pnrs-2023/de1-soc-demo/sw/nios/individual/paper_bsp//libhal_bsp.a(alt_alarm_start.o)
 .debug_info    0x00000000000143c7       0xd6 /home/nikola/PNRS/pnrs-2023/de1-soc-demo/sw/nios/individual/paper_bsp//libhal_bsp.a(alt_busy_sleep.o)
 .debug_info    0x000000000001449d       0x8c /home/nikola/PNRS/pnrs-2023/de1-soc-demo/sw/nios/individual/paper_bsp//libhal_bsp.a(alt_dcache_flush_all.o)
 .debug_info    0x0000000000014529      0x1b0 /home/nikola/PNRS/pnrs-2023/de1-soc-demo/sw/nios/individual/paper_bsp//libhal_bsp.a(alt_dev_llist_insert.o)
 .debug_info    0x00000000000146d9       0x88 /home/nikola/PNRS/pnrs-2023/de1-soc-demo/sw/nios/individual/paper_bsp//libhal_bsp.a(alt_do_ctors.o)
 .debug_info    0x0000000000014761       0x88 /home/nikola/PNRS/pnrs-2023/de1-soc-demo/sw/nios/individual/paper_bsp//libhal_bsp.a(alt_do_dtors.o)
 .debug_info    0x00000000000147e9      0x2ee /home/nikola/PNRS/pnrs-2023/de1-soc-demo/sw/nios/individual/paper_bsp//libhal_bsp.a(alt_find_dev.o)
 .debug_info    0x0000000000014ad7       0x8c /home/nikola/PNRS/pnrs-2023/de1-soc-demo/sw/nios/individual/paper_bsp//libhal_bsp.a(alt_icache_flush_all.o)
 .debug_info    0x0000000000014b63      0x32c /home/nikola/PNRS/pnrs-2023/de1-soc-demo/sw/nios/individual/paper_bsp//libhal_bsp.a(alt_iic.o)
 .debug_info    0x0000000000014e8f      0x1f0 /home/nikola/PNRS/pnrs-2023/de1-soc-demo/sw/nios/individual/paper_bsp//libhal_bsp.a(alt_iic_isr_register.o)
 .debug_info    0x000000000001507f      0x546 /home/nikola/PNRS/pnrs-2023/de1-soc-demo/sw/nios/individual/paper_bsp//libhal_bsp.a(alt_io_redirect.o)
 .debug_info    0x00000000000155c5       0x22 /home/nikola/PNRS/pnrs-2023/de1-soc-demo/sw/nios/individual/paper_bsp//libhal_bsp.a(alt_irq_entry.o)
 .debug_info    0x00000000000155e7      0x175 /home/nikola/PNRS/pnrs-2023/de1-soc-demo/sw/nios/individual/paper_bsp//libhal_bsp.a(alt_irq_handler.o)
 .debug_info    0x000000000001575c       0x8b /home/nikola/PNRS/pnrs-2023/de1-soc-demo/sw/nios/individual/paper_bsp//libhal_bsp.a(alt_irq_vars.o)
 .debug_info    0x00000000000157e7      0x3dd /home/nikola/PNRS/pnrs-2023/de1-soc-demo/sw/nios/individual/paper_bsp//libhal_bsp.a(alt_open.o)
 .debug_info    0x0000000000015bc4      0x2b0 /home/nikola/PNRS/pnrs-2023/de1-soc-demo/sw/nios/individual/paper_bsp//libhal_bsp.a(alt_tick.o)
 .debug_info    0x0000000000015e74       0x8c /home/nikola/PNRS/pnrs-2023/de1-soc-demo/sw/nios/individual/paper_bsp//libhal_bsp.a(altera_nios2_gen2_irq.o)
 .debug_info    0x0000000000015f00       0x22 /home/nikola/PNRS/pnrs-2023/de1-soc-demo/sw/nios/individual/paper_bsp//libhal_bsp.a(alt_exception_entry.o)
 .debug_info    0x0000000000015f22      0x2eb /home/nikola/PNRS/pnrs-2023/de1-soc-demo/sw/nios/individual/paper_bsp//libhal_bsp.a(alt_find_file.o)
 .debug_info    0x000000000001620d      0x31c /home/nikola/PNRS/pnrs-2023/de1-soc-demo/sw/nios/individual/paper_bsp//libhal_bsp.a(alt_get_fd.o)
 .debug_info    0x0000000000016529      0x1f1 /home/nikola/PNRS/pnrs-2023/de1-soc-demo/sw/nios/individual/paper_bsp//libhal_bsp.a(alt_instruction_exception_entry.o)
 .debug_info    0x000000000001671a      0x100 /home/nikola/intelFPGA_lite/21.1/nios2eds/bin/gnu/H-x86_64-pc-linux-gnu/bin/../lib/gcc/nios2-elf/10.3.1/../../../../../H-x86_64-pc-linux-gnu/nios2-elf/lib/mno-hw-mul/libc.a(lib_a-atexit.o)
 .debug_info    0x000000000001681a      0x970 /home/nikola/intelFPGA_lite/21.1/nios2eds/bin/gnu/H-x86_64-pc-linux-gnu/bin/../lib/gcc/nios2-elf/10.3.1/../../../../../H-x86_64-pc-linux-gnu/nios2-elf/lib/mno-hw-mul/libc.a(lib_a-exit.o)
 .debug_info    0x000000000001718a      0x138 /home/nikola/intelFPGA_lite/21.1/nios2eds/bin/gnu/H-x86_64-pc-linux-gnu/bin/../lib/gcc/nios2-elf/10.3.1/../../../../../H-x86_64-pc-linux-gnu/nios2-elf/lib/mno-hw-mul/libc.a(lib_a-memcmp.o)
 .debug_info    0x00000000000172c2      0x9b1 /home/nikola/intelFPGA_lite/21.1/nios2eds/bin/gnu/H-x86_64-pc-linux-gnu/bin/../lib/gcc/nios2-elf/10.3.1/../../../../../H-x86_64-pc-linux-gnu/nios2-elf/lib/mno-hw-mul/libc.a(lib_a-__atexit.o)
 .debug_info    0x0000000000017c73      0x9f9 /home/nikola/intelFPGA_lite/21.1/nios2eds/bin/gnu/H-x86_64-pc-linux-gnu/bin/../lib/gcc/nios2-elf/10.3.1/../../../../../H-x86_64-pc-linux-gnu/nios2-elf/lib/mno-hw-mul/libc.a(lib_a-__call_atexit.o)
 .debug_info    0x000000000001866c       0xe1 /home/nikola/PNRS/pnrs-2023/de1-soc-demo/sw/nios/individual/paper_bsp//libhal_bsp.a(alt_exit.o)

.debug_abbrev   0x0000000000000000     0x6e7d
 *(.debug_abbrev)
 .debug_abbrev  0x0000000000000000       0x12 /home/nikola/PNRS/pnrs-2023/de1-soc-demo/sw/nios/individual/paper_bsp//obj/HAL/src/crt0.o
 .debug_abbrev  0x0000000000000012      0x14f obj/default/paper.o
 .debug_abbrev  0x0000000000000161      0x2a0 /home/nikola/intelFPGA_lite/21.1/nios2eds/bin/gnu/H-x86_64-pc-linux-gnu/bin/../lib/gcc/nios2-elf/10.3.1/../../../../../H-x86_64-pc-linux-gnu/nios2-elf/lib/mno-hw-mul/libc.a(lib_a-puts.o)
 .debug_abbrev  0x0000000000000401       0x8f /home/nikola/intelFPGA_lite/21.1/nios2eds/bin/gnu/H-x86_64-pc-linux-gnu/bin/../lib/gcc/nios2-elf/10.3.1/../../../../../H-x86_64-pc-linux-gnu/nios2-elf/lib/mno-hw-mul/libc.a(lib_a-strlen.o)
 .debug_abbrev  0x0000000000000490      0x464 /home/nikola/intelFPGA_lite/21.1/nios2eds/bin/gnu/H-x86_64-pc-linux-gnu/bin/../lib/gcc/nios2-elf/10.3.1/../../../../../H-x86_64-pc-linux-gnu/nios2-elf/lib/mno-hw-mul/libc.a(lib_a-findfp.o)
 .debug_abbrev  0x00000000000008f4      0x295 /home/nikola/intelFPGA_lite/21.1/nios2eds/bin/gnu/H-x86_64-pc-linux-gnu/bin/../lib/gcc/nios2-elf/10.3.1/../../../../../H-x86_64-pc-linux-gnu/nios2-elf/lib/mno-hw-mul/libc.a(lib_a-fvwrite.o)
 .debug_abbrev  0x0000000000000b89      0x20f /home/nikola/intelFPGA_lite/21.1/nios2eds/bin/gnu/H-x86_64-pc-linux-gnu/bin/../lib/gcc/nios2-elf/10.3.1/../../../../../H-x86_64-pc-linux-gnu/nios2-elf/lib/mno-hw-mul/libc.a(lib_a-fwalk.o)
 .debug_abbrev  0x0000000000000d98      0x1c9 /home/nikola/intelFPGA_lite/21.1/nios2eds/bin/gnu/H-x86_64-pc-linux-gnu/bin/../lib/gcc/nios2-elf/10.3.1/../../../../../H-x86_64-pc-linux-gnu/nios2-elf/lib/mno-hw-mul/libc.a(lib_a-impure.o)
 .debug_abbrev  0x0000000000000f61      0x2f6 /home/nikola/intelFPGA_lite/21.1/nios2eds/bin/gnu/H-x86_64-pc-linux-gnu/bin/../lib/gcc/nios2-elf/10.3.1/../../../../../H-x86_64-pc-linux-gnu/nios2-elf/lib/mno-hw-mul/libc.a(lib_a-mallocr.o)
 .debug_abbrev  0x0000000000001257       0xc3 /home/nikola/intelFPGA_lite/21.1/nios2eds/bin/gnu/H-x86_64-pc-linux-gnu/bin/../lib/gcc/nios2-elf/10.3.1/../../../../../H-x86_64-pc-linux-gnu/nios2-elf/lib/mno-hw-mul/libc.a(lib_a-memchr.o)
 .debug_abbrev  0x000000000000131a       0xb6 /home/nikola/intelFPGA_lite/21.1/nios2eds/bin/gnu/H-x86_64-pc-linux-gnu/bin/../lib/gcc/nios2-elf/10.3.1/../../../../../H-x86_64-pc-linux-gnu/nios2-elf/lib/mno-hw-mul/libc.a(lib_a-memcpy.o)
 .debug_abbrev  0x00000000000013d0       0xaf /home/nikola/intelFPGA_lite/21.1/nios2eds/bin/gnu/H-x86_64-pc-linux-gnu/bin/../lib/gcc/nios2-elf/10.3.1/../../../../../H-x86_64-pc-linux-gnu/nios2-elf/lib/mno-hw-mul/libc.a(lib_a-memmove.o)
 .debug_abbrev  0x000000000000147f       0xb4 /home/nikola/intelFPGA_lite/21.1/nios2eds/bin/gnu/H-x86_64-pc-linux-gnu/bin/../lib/gcc/nios2-elf/10.3.1/../../../../../H-x86_64-pc-linux-gnu/nios2-elf/lib/mno-hw-mul/libc.a(lib_a-memset.o)
 .debug_abbrev  0x0000000000001533      0x289 /home/nikola/intelFPGA_lite/21.1/nios2eds/bin/gnu/H-x86_64-pc-linux-gnu/bin/../lib/gcc/nios2-elf/10.3.1/../../../../../H-x86_64-pc-linux-gnu/nios2-elf/lib/mno-hw-mul/libc.a(lib_a-reallocr.o)
 .debug_abbrev  0x00000000000017bc      0x24e /home/nikola/intelFPGA_lite/21.1/nios2eds/bin/gnu/H-x86_64-pc-linux-gnu/bin/../lib/gcc/nios2-elf/10.3.1/../../../../../H-x86_64-pc-linux-gnu/nios2-elf/lib/mno-hw-mul/libc.a(lib_a-sbrkr.o)
 .debug_abbrev  0x0000000000001a0a      0x273 /home/nikola/intelFPGA_lite/21.1/nios2eds/bin/gnu/H-x86_64-pc-linux-gnu/bin/../lib/gcc/nios2-elf/10.3.1/../../../../../H-x86_64-pc-linux-gnu/nios2-elf/lib/mno-hw-mul/libc.a(lib_a-stdio.o)
 .debug_abbrev  0x0000000000001c7d      0x228 /home/nikola/intelFPGA_lite/21.1/nios2eds/bin/gnu/H-x86_64-pc-linux-gnu/bin/../lib/gcc/nios2-elf/10.3.1/../../../../../H-x86_64-pc-linux-gnu/nios2-elf/lib/mno-hw-mul/libc.a(lib_a-writer.o)
 .debug_abbrev  0x0000000000001ea5      0x257 /home/nikola/intelFPGA_lite/21.1/nios2eds/bin/gnu/H-x86_64-pc-linux-gnu/bin/../lib/gcc/nios2-elf/10.3.1/../../../../../H-x86_64-pc-linux-gnu/nios2-elf/lib/mno-hw-mul/libc.a(lib_a-wsetup.o)
 .debug_abbrev  0x00000000000020fc      0x223 /home/nikola/intelFPGA_lite/21.1/nios2eds/bin/gnu/H-x86_64-pc-linux-gnu/bin/../lib/gcc/nios2-elf/10.3.1/../../../../../H-x86_64-pc-linux-gnu/nios2-elf/lib/mno-hw-mul/libc.a(closer.o)
 .debug_abbrev  0x000000000000231f      0x317 /home/nikola/intelFPGA_lite/21.1/nios2eds/bin/gnu/H-x86_64-pc-linux-gnu/bin/../lib/gcc/nios2-elf/10.3.1/../../../../../H-x86_64-pc-linux-gnu/nios2-elf/lib/mno-hw-mul/libc.a(lib_a-fclose.o)
 .debug_abbrev  0x0000000000002636      0x344 /home/nikola/intelFPGA_lite/21.1/nios2eds/bin/gnu/H-x86_64-pc-linux-gnu/bin/../lib/gcc/nios2-elf/10.3.1/../../../../../H-x86_64-pc-linux-gnu/nios2-elf/lib/mno-hw-mul/libc.a(lib_a-fflush.o)
 .debug_abbrev  0x000000000000297a      0x2b1 /home/nikola/intelFPGA_lite/21.1/nios2eds/bin/gnu/H-x86_64-pc-linux-gnu/bin/../lib/gcc/nios2-elf/10.3.1/../../../../../H-x86_64-pc-linux-gnu/nios2-elf/lib/mno-hw-mul/libc.a(lib_a-freer.o)
 .debug_abbrev  0x0000000000002c2b       0x39 /home/nikola/intelFPGA_lite/21.1/nios2eds/bin/gnu/H-x86_64-pc-linux-gnu/bin/../lib/gcc/nios2-elf/10.3.1/../../../../../H-x86_64-pc-linux-gnu/nios2-elf/lib/mno-hw-mul/libc.a(lib_a-int_errno.o)
 .debug_abbrev  0x0000000000002c64      0x237 /home/nikola/intelFPGA_lite/21.1/nios2eds/bin/gnu/H-x86_64-pc-linux-gnu/bin/../lib/gcc/nios2-elf/10.3.1/../../../../../H-x86_64-pc-linux-gnu/nios2-elf/lib/mno-hw-mul/libc.a(lib_a-lseekr.o)
 .debug_abbrev  0x0000000000002e9b      0x308 /home/nikola/intelFPGA_lite/21.1/nios2eds/bin/gnu/H-x86_64-pc-linux-gnu/bin/../lib/gcc/nios2-elf/10.3.1/../../../../../H-x86_64-pc-linux-gnu/nios2-elf/lib/mno-hw-mul/libc.a(lib_a-makebuf.o)
 .debug_abbrev  0x00000000000031a3      0x223 /home/nikola/intelFPGA_lite/21.1/nios2eds/bin/gnu/H-x86_64-pc-linux-gnu/bin/../lib/gcc/nios2-elf/10.3.1/../../../../../H-x86_64-pc-linux-gnu/nios2-elf/lib/mno-hw-mul/libc.a(lib_a-readr.o)
 .debug_abbrev  0x00000000000033c6      0x237 /home/nikola/intelFPGA_lite/21.1/nios2eds/bin/gnu/H-x86_64-pc-linux-gnu/bin/../lib/gcc/nios2-elf/10.3.1/../../../../../H-x86_64-pc-linux-gnu/nios2-elf/lib/mno-hw-mul/libc.a(lib_a-fstatr.o)
 .debug_abbrev  0x00000000000035fd      0x223 /home/nikola/intelFPGA_lite/21.1/nios2eds/bin/gnu/H-x86_64-pc-linux-gnu/bin/../lib/gcc/nios2-elf/10.3.1/../../../../../H-x86_64-pc-linux-gnu/nios2-elf/lib/mno-hw-mul/libc.a(lib_a-isattyr.o)
 .debug_abbrev  0x0000000000003820      0x103 /home/nikola/intelFPGA_lite/21.1/nios2eds/bin/gnu/H-x86_64-pc-linux-gnu/bin/../lib/gcc/nios2-elf/10.3.1/mno-hw-mul/libgcc.a(lib2-divmod.o)
 .debug_abbrev  0x0000000000003923       0x7d /home/nikola/intelFPGA_lite/21.1/nios2eds/bin/gnu/H-x86_64-pc-linux-gnu/bin/../lib/gcc/nios2-elf/10.3.1/mno-hw-mul/libgcc.a(lib2-mul.o)
 .debug_abbrev  0x00000000000039a0      0x133 /home/nikola/PNRS/pnrs-2023/de1-soc-demo/sw/nios/individual/paper_bsp//libhal_bsp.a(alt_close.o)
 .debug_abbrev  0x0000000000003ad3      0x117 /home/nikola/PNRS/pnrs-2023/de1-soc-demo/sw/nios/individual/paper_bsp//libhal_bsp.a(alt_dev.o)
 .debug_abbrev  0x0000000000003bea       0x5a /home/nikola/PNRS/pnrs-2023/de1-soc-demo/sw/nios/individual/paper_bsp//libhal_bsp.a(alt_errno.o)
 .debug_abbrev  0x0000000000003c44      0x133 /home/nikola/PNRS/pnrs-2023/de1-soc-demo/sw/nios/individual/paper_bsp//libhal_bsp.a(alt_fstat.o)
 .debug_abbrev  0x0000000000003d77      0x133 /home/nikola/PNRS/pnrs-2023/de1-soc-demo/sw/nios/individual/paper_bsp//libhal_bsp.a(alt_isatty.o)
 .debug_abbrev  0x0000000000003eaa       0xab /home/nikola/PNRS/pnrs-2023/de1-soc-demo/sw/nios/individual/paper_bsp//libhal_bsp.a(alt_load.o)
 .debug_abbrev  0x0000000000003f55      0x133 /home/nikola/PNRS/pnrs-2023/de1-soc-demo/sw/nios/individual/paper_bsp//libhal_bsp.a(alt_lseek.o)
 .debug_abbrev  0x0000000000004088       0x86 /home/nikola/PNRS/pnrs-2023/de1-soc-demo/sw/nios/individual/paper_bsp//libhal_bsp.a(alt_main.o)
 .debug_abbrev  0x000000000000410e      0x1e7 /home/nikola/PNRS/pnrs-2023/de1-soc-demo/sw/nios/individual/paper_bsp//libhal_bsp.a(alt_malloc_lock.o)
 .debug_abbrev  0x00000000000042f5      0x144 /home/nikola/PNRS/pnrs-2023/de1-soc-demo/sw/nios/individual/paper_bsp//libhal_bsp.a(alt_read.o)
 .debug_abbrev  0x0000000000004439       0xea /home/nikola/PNRS/pnrs-2023/de1-soc-demo/sw/nios/individual/paper_bsp//libhal_bsp.a(alt_release_fd.o)
 .debug_abbrev  0x0000000000004523      0x11d /home/nikola/PNRS/pnrs-2023/de1-soc-demo/sw/nios/individual/paper_bsp//libhal_bsp.a(alt_sbrk.o)
 .debug_abbrev  0x0000000000004640       0x66 /home/nikola/PNRS/pnrs-2023/de1-soc-demo/sw/nios/individual/paper_bsp//libhal_bsp.a(alt_usleep.o)
 .debug_abbrev  0x00000000000046a6      0x149 /home/nikola/PNRS/pnrs-2023/de1-soc-demo/sw/nios/individual/paper_bsp//libhal_bsp.a(alt_write.o)
 .debug_abbrev  0x00000000000047ef      0x1dd /home/nikola/PNRS/pnrs-2023/de1-soc-demo/sw/nios/individual/paper_bsp//libhal_bsp.a(alt_sys_init.o)
 .debug_abbrev  0x00000000000049cc      0x146 /home/nikola/PNRS/pnrs-2023/de1-soc-demo/sw/nios/individual/paper_bsp//libhal_bsp.a(altera_avalon_jtag_uart_fd.o)
 .debug_abbrev  0x0000000000004b12      0x1be /home/nikola/PNRS/pnrs-2023/de1-soc-demo/sw/nios/individual/paper_bsp//libhal_bsp.a(altera_avalon_jtag_uart_init.o)
 .debug_abbrev  0x0000000000004cd0      0x112 /home/nikola/PNRS/pnrs-2023/de1-soc-demo/sw/nios/individual/paper_bsp//libhal_bsp.a(altera_avalon_jtag_uart_ioctl.o)
 .debug_abbrev  0x0000000000004de2      0x1b0 /home/nikola/PNRS/pnrs-2023/de1-soc-demo/sw/nios/individual/paper_bsp//libhal_bsp.a(altera_avalon_jtag_uart_read.o)
 .debug_abbrev  0x0000000000004f92      0x1ae /home/nikola/PNRS/pnrs-2023/de1-soc-demo/sw/nios/individual/paper_bsp//libhal_bsp.a(altera_avalon_jtag_uart_write.o)
 .debug_abbrev  0x0000000000005140      0x1a2 /home/nikola/PNRS/pnrs-2023/de1-soc-demo/sw/nios/individual/paper_bsp//libhal_bsp.a(altera_avalon_mutex.o)
 .debug_abbrev  0x00000000000052e2      0x14b /home/nikola/PNRS/pnrs-2023/de1-soc-demo/sw/nios/individual/paper_bsp//libhal_bsp.a(altera_avalon_timer_sc.o)
 .debug_abbrev  0x000000000000542d      0x188 /home/nikola/PNRS/pnrs-2023/de1-soc-demo/sw/nios/individual/paper_bsp//libhal_bsp.a(alt_alarm_start.o)
 .debug_abbrev  0x00000000000055b5       0x88 /home/nikola/PNRS/pnrs-2023/de1-soc-demo/sw/nios/individual/paper_bsp//libhal_bsp.a(alt_busy_sleep.o)
 .debug_abbrev  0x000000000000563d       0x44 /home/nikola/PNRS/pnrs-2023/de1-soc-demo/sw/nios/individual/paper_bsp//libhal_bsp.a(alt_dcache_flush_all.o)
 .debug_abbrev  0x0000000000005681      0x12a /home/nikola/PNRS/pnrs-2023/de1-soc-demo/sw/nios/individual/paper_bsp//libhal_bsp.a(alt_dev_llist_insert.o)
 .debug_abbrev  0x00000000000057ab       0x81 /home/nikola/PNRS/pnrs-2023/de1-soc-demo/sw/nios/individual/paper_bsp//libhal_bsp.a(alt_do_ctors.o)
 .debug_abbrev  0x000000000000582c       0x81 /home/nikola/PNRS/pnrs-2023/de1-soc-demo/sw/nios/individual/paper_bsp//libhal_bsp.a(alt_do_dtors.o)
 .debug_abbrev  0x00000000000058ad       0xed /home/nikola/PNRS/pnrs-2023/de1-soc-demo/sw/nios/individual/paper_bsp//libhal_bsp.a(alt_find_dev.o)
 .debug_abbrev  0x000000000000599a       0x44 /home/nikola/PNRS/pnrs-2023/de1-soc-demo/sw/nios/individual/paper_bsp//libhal_bsp.a(alt_icache_flush_all.o)
 .debug_abbrev  0x00000000000059de      0x189 /home/nikola/PNRS/pnrs-2023/de1-soc-demo/sw/nios/individual/paper_bsp//libhal_bsp.a(alt_iic.o)
 .debug_abbrev  0x0000000000005b67      0x17c /home/nikola/PNRS/pnrs-2023/de1-soc-demo/sw/nios/individual/paper_bsp//libhal_bsp.a(alt_iic_isr_register.o)
 .debug_abbrev  0x0000000000005ce3      0x126 /home/nikola/PNRS/pnrs-2023/de1-soc-demo/sw/nios/individual/paper_bsp//libhal_bsp.a(alt_io_redirect.o)
 .debug_abbrev  0x0000000000005e09       0x12 /home/nikola/PNRS/pnrs-2023/de1-soc-demo/sw/nios/individual/paper_bsp//libhal_bsp.a(alt_irq_entry.o)
 .debug_abbrev  0x0000000000005e1b      0x12d /home/nikola/PNRS/pnrs-2023/de1-soc-demo/sw/nios/individual/paper_bsp//libhal_bsp.a(alt_irq_handler.o)
 .debug_abbrev  0x0000000000005f48       0x44 /home/nikola/PNRS/pnrs-2023/de1-soc-demo/sw/nios/individual/paper_bsp//libhal_bsp.a(alt_irq_vars.o)
 .debug_abbrev  0x0000000000005f8c      0x160 /home/nikola/PNRS/pnrs-2023/de1-soc-demo/sw/nios/individual/paper_bsp//libhal_bsp.a(alt_open.o)
 .debug_abbrev  0x00000000000060ec      0x17a /home/nikola/PNRS/pnrs-2023/de1-soc-demo/sw/nios/individual/paper_bsp//libhal_bsp.a(alt_tick.o)
 .debug_abbrev  0x0000000000006266       0x44 /home/nikola/PNRS/pnrs-2023/de1-soc-demo/sw/nios/individual/paper_bsp//libhal_bsp.a(altera_nios2_gen2_irq.o)
 .debug_abbrev  0x00000000000062aa       0x12 /home/nikola/PNRS/pnrs-2023/de1-soc-demo/sw/nios/individual/paper_bsp//libhal_bsp.a(alt_exception_entry.o)
 .debug_abbrev  0x00000000000062bc      0x100 /home/nikola/PNRS/pnrs-2023/de1-soc-demo/sw/nios/individual/paper_bsp//libhal_bsp.a(alt_find_file.o)
 .debug_abbrev  0x00000000000063bc      0x121 /home/nikola/PNRS/pnrs-2023/de1-soc-demo/sw/nios/individual/paper_bsp//libhal_bsp.a(alt_get_fd.o)
 .debug_abbrev  0x00000000000064dd       0xea /home/nikola/PNRS/pnrs-2023/de1-soc-demo/sw/nios/individual/paper_bsp//libhal_bsp.a(alt_instruction_exception_entry.o)
 .debug_abbrev  0x00000000000065c7       0xb7 /home/nikola/intelFPGA_lite/21.1/nios2eds/bin/gnu/H-x86_64-pc-linux-gnu/bin/../lib/gcc/nios2-elf/10.3.1/../../../../../H-x86_64-pc-linux-gnu/nios2-elf/lib/mno-hw-mul/libc.a(lib_a-atexit.o)
 .debug_abbrev  0x000000000000667e      0x21d /home/nikola/intelFPGA_lite/21.1/nios2eds/bin/gnu/H-x86_64-pc-linux-gnu/bin/../lib/gcc/nios2-elf/10.3.1/../../../../../H-x86_64-pc-linux-gnu/nios2-elf/lib/mno-hw-mul/libc.a(lib_a-exit.o)
 .debug_abbrev  0x000000000000689b       0x8d /home/nikola/intelFPGA_lite/21.1/nios2eds/bin/gnu/H-x86_64-pc-linux-gnu/bin/../lib/gcc/nios2-elf/10.3.1/../../../../../H-x86_64-pc-linux-gnu/nios2-elf/lib/mno-hw-mul/libc.a(lib_a-memcmp.o)
 .debug_abbrev  0x0000000000006928      0x250 /home/nikola/intelFPGA_lite/21.1/nios2eds/bin/gnu/H-x86_64-pc-linux-gnu/bin/../lib/gcc/nios2-elf/10.3.1/../../../../../H-x86_64-pc-linux-gnu/nios2-elf/lib/mno-hw-mul/libc.a(lib_a-__atexit.o)
 .debug_abbrev  0x0000000000006b78      0x259 /home/nikola/intelFPGA_lite/21.1/nios2eds/bin/gnu/H-x86_64-pc-linux-gnu/bin/../lib/gcc/nios2-elf/10.3.1/../../../../../H-x86_64-pc-linux-gnu/nios2-elf/lib/mno-hw-mul/libc.a(lib_a-__call_atexit.o)
 .debug_abbrev  0x0000000000006dd1       0xac /home/nikola/PNRS/pnrs-2023/de1-soc-demo/sw/nios/individual/paper_bsp//libhal_bsp.a(alt_exit.o)

.debug_line     0x0000000000000000     0xa007
 *(.debug_line)
 .debug_line    0x0000000000000000       0x66 /home/nikola/PNRS/pnrs-2023/de1-soc-demo/sw/nios/individual/paper_bsp//obj/HAL/src/crt0.o
 .debug_line    0x0000000000000066      0x1ed obj/default/paper.o
 .debug_line    0x0000000000000253      0x319 /home/nikola/intelFPGA_lite/21.1/nios2eds/bin/gnu/H-x86_64-pc-linux-gnu/bin/../lib/gcc/nios2-elf/10.3.1/../../../../../H-x86_64-pc-linux-gnu/nios2-elf/lib/mno-hw-mul/libc.a(lib_a-puts.o)
 .debug_line    0x000000000000056c      0x1db /home/nikola/intelFPGA_lite/21.1/nios2eds/bin/gnu/H-x86_64-pc-linux-gnu/bin/../lib/gcc/nios2-elf/10.3.1/../../../../../H-x86_64-pc-linux-gnu/nios2-elf/lib/mno-hw-mul/libc.a(lib_a-strlen.o)
 .debug_line    0x0000000000000747      0x6a1 /home/nikola/intelFPGA_lite/21.1/nios2eds/bin/gnu/H-x86_64-pc-linux-gnu/bin/../lib/gcc/nios2-elf/10.3.1/../../../../../H-x86_64-pc-linux-gnu/nios2-elf/lib/mno-hw-mul/libc.a(lib_a-findfp.o)
 .debug_line    0x0000000000000de8      0x6e3 /home/nikola/intelFPGA_lite/21.1/nios2eds/bin/gnu/H-x86_64-pc-linux-gnu/bin/../lib/gcc/nios2-elf/10.3.1/../../../../../H-x86_64-pc-linux-gnu/nios2-elf/lib/mno-hw-mul/libc.a(lib_a-fvwrite.o)
 .debug_line    0x00000000000014cb      0x369 /home/nikola/intelFPGA_lite/21.1/nios2eds/bin/gnu/H-x86_64-pc-linux-gnu/bin/../lib/gcc/nios2-elf/10.3.1/../../../../../H-x86_64-pc-linux-gnu/nios2-elf/lib/mno-hw-mul/libc.a(lib_a-fwalk.o)
 .debug_line    0x0000000000001834      0x167 /home/nikola/intelFPGA_lite/21.1/nios2eds/bin/gnu/H-x86_64-pc-linux-gnu/bin/../lib/gcc/nios2-elf/10.3.1/../../../../../H-x86_64-pc-linux-gnu/nios2-elf/lib/mno-hw-mul/libc.a(lib_a-impure.o)
 .debug_line    0x000000000000199b      0x97b /home/nikola/intelFPGA_lite/21.1/nios2eds/bin/gnu/H-x86_64-pc-linux-gnu/bin/../lib/gcc/nios2-elf/10.3.1/../../../../../H-x86_64-pc-linux-gnu/nios2-elf/lib/mno-hw-mul/libc.a(lib_a-mallocr.o)
 .debug_line    0x0000000000002316      0x224 /home/nikola/intelFPGA_lite/21.1/nios2eds/bin/gnu/H-x86_64-pc-linux-gnu/bin/../lib/gcc/nios2-elf/10.3.1/../../../../../H-x86_64-pc-linux-gnu/nios2-elf/lib/mno-hw-mul/libc.a(lib_a-memchr.o)
 .debug_line    0x000000000000253a      0x238 /home/nikola/intelFPGA_lite/21.1/nios2eds/bin/gnu/H-x86_64-pc-linux-gnu/bin/../lib/gcc/nios2-elf/10.3.1/../../../../../H-x86_64-pc-linux-gnu/nios2-elf/lib/mno-hw-mul/libc.a(lib_a-memcpy.o)
 .debug_line    0x0000000000002772      0x26e /home/nikola/intelFPGA_lite/21.1/nios2eds/bin/gnu/H-x86_64-pc-linux-gnu/bin/../lib/gcc/nios2-elf/10.3.1/../../../../../H-x86_64-pc-linux-gnu/nios2-elf/lib/mno-hw-mul/libc.a(lib_a-memmove.o)
 .debug_line    0x00000000000029e0      0x259 /home/nikola/intelFPGA_lite/21.1/nios2eds/bin/gnu/H-x86_64-pc-linux-gnu/bin/../lib/gcc/nios2-elf/10.3.1/../../../../../H-x86_64-pc-linux-gnu/nios2-elf/lib/mno-hw-mul/libc.a(lib_a-memset.o)
 .debug_line    0x0000000000002c39      0x749 /home/nikola/intelFPGA_lite/21.1/nios2eds/bin/gnu/H-x86_64-pc-linux-gnu/bin/../lib/gcc/nios2-elf/10.3.1/../../../../../H-x86_64-pc-linux-gnu/nios2-elf/lib/mno-hw-mul/libc.a(lib_a-reallocr.o)
 .debug_line    0x0000000000003382      0x22b /home/nikola/intelFPGA_lite/21.1/nios2eds/bin/gnu/H-x86_64-pc-linux-gnu/bin/../lib/gcc/nios2-elf/10.3.1/../../../../../H-x86_64-pc-linux-gnu/nios2-elf/lib/mno-hw-mul/libc.a(lib_a-sbrkr.o)
 .debug_line    0x00000000000035ad      0x334 /home/nikola/intelFPGA_lite/21.1/nios2eds/bin/gnu/H-x86_64-pc-linux-gnu/bin/../lib/gcc/nios2-elf/10.3.1/../../../../../H-x86_64-pc-linux-gnu/nios2-elf/lib/mno-hw-mul/libc.a(lib_a-stdio.o)
 .debug_line    0x00000000000038e1      0x238 /home/nikola/intelFPGA_lite/21.1/nios2eds/bin/gnu/H-x86_64-pc-linux-gnu/bin/../lib/gcc/nios2-elf/10.3.1/../../../../../H-x86_64-pc-linux-gnu/nios2-elf/lib/mno-hw-mul/libc.a(lib_a-writer.o)
 .debug_line    0x0000000000003b19      0x3c1 /home/nikola/intelFPGA_lite/21.1/nios2eds/bin/gnu/H-x86_64-pc-linux-gnu/bin/../lib/gcc/nios2-elf/10.3.1/../../../../../H-x86_64-pc-linux-gnu/nios2-elf/lib/mno-hw-mul/libc.a(lib_a-wsetup.o)
 .debug_line    0x0000000000003eda      0x237 /home/nikola/intelFPGA_lite/21.1/nios2eds/bin/gnu/H-x86_64-pc-linux-gnu/bin/../lib/gcc/nios2-elf/10.3.1/../../../../../H-x86_64-pc-linux-gnu/nios2-elf/lib/mno-hw-mul/libc.a(closer.o)
 .debug_line    0x0000000000004111      0x390 /home/nikola/intelFPGA_lite/21.1/nios2eds/bin/gnu/H-x86_64-pc-linux-gnu/bin/../lib/gcc/nios2-elf/10.3.1/../../../../../H-x86_64-pc-linux-gnu/nios2-elf/lib/mno-hw-mul/libc.a(lib_a-fclose.o)
 .debug_line    0x00000000000044a1      0x55f /home/nikola/intelFPGA_lite/21.1/nios2eds/bin/gnu/H-x86_64-pc-linux-gnu/bin/../lib/gcc/nios2-elf/10.3.1/../../../../../H-x86_64-pc-linux-gnu/nios2-elf/lib/mno-hw-mul/libc.a(lib_a-fflush.o)
 .debug_line    0x0000000000004a00      0x5cb /home/nikola/intelFPGA_lite/21.1/nios2eds/bin/gnu/H-x86_64-pc-linux-gnu/bin/../lib/gcc/nios2-elf/10.3.1/../../../../../H-x86_64-pc-linux-gnu/nios2-elf/lib/mno-hw-mul/libc.a(lib_a-freer.o)
 .debug_line    0x0000000000004fcb       0x61 /home/nikola/intelFPGA_lite/21.1/nios2eds/bin/gnu/H-x86_64-pc-linux-gnu/bin/../lib/gcc/nios2-elf/10.3.1/../../../../../H-x86_64-pc-linux-gnu/nios2-elf/lib/mno-hw-mul/libc.a(lib_a-int_errno.o)
 .debug_line    0x000000000000502c      0x238 /home/nikola/intelFPGA_lite/21.1/nios2eds/bin/gnu/H-x86_64-pc-linux-gnu/bin/../lib/gcc/nios2-elf/10.3.1/../../../../../H-x86_64-pc-linux-gnu/nios2-elf/lib/mno-hw-mul/libc.a(lib_a-lseekr.o)
 .debug_line    0x0000000000005264      0x4e7 /home/nikola/intelFPGA_lite/21.1/nios2eds/bin/gnu/H-x86_64-pc-linux-gnu/bin/../lib/gcc/nios2-elf/10.3.1/../../../../../H-x86_64-pc-linux-gnu/nios2-elf/lib/mno-hw-mul/libc.a(lib_a-makebuf.o)
 .debug_line    0x000000000000574b      0x237 /home/nikola/intelFPGA_lite/21.1/nios2eds/bin/gnu/H-x86_64-pc-linux-gnu/bin/../lib/gcc/nios2-elf/10.3.1/../../../../../H-x86_64-pc-linux-gnu/nios2-elf/lib/mno-hw-mul/libc.a(lib_a-readr.o)
 .debug_line    0x0000000000005982      0x2dd /home/nikola/intelFPGA_lite/21.1/nios2eds/bin/gnu/H-x86_64-pc-linux-gnu/bin/../lib/gcc/nios2-elf/10.3.1/../../../../../H-x86_64-pc-linux-gnu/nios2-elf/lib/mno-hw-mul/libc.a(lib_a-fstatr.o)
 .debug_line    0x0000000000005c5f      0x238 /home/nikola/intelFPGA_lite/21.1/nios2eds/bin/gnu/H-x86_64-pc-linux-gnu/bin/../lib/gcc/nios2-elf/10.3.1/../../../../../H-x86_64-pc-linux-gnu/nios2-elf/lib/mno-hw-mul/libc.a(lib_a-isattyr.o)
 .debug_line    0x0000000000005e97      0x306 /home/nikola/intelFPGA_lite/21.1/nios2eds/bin/gnu/H-x86_64-pc-linux-gnu/bin/../lib/gcc/nios2-elf/10.3.1/mno-hw-mul/libgcc.a(lib2-divmod.o)
 .debug_line    0x000000000000619d       0xb7 /home/nikola/intelFPGA_lite/21.1/nios2eds/bin/gnu/H-x86_64-pc-linux-gnu/bin/../lib/gcc/nios2-elf/10.3.1/mno-hw-mul/libgcc.a(lib2-mul.o)
 .debug_line    0x0000000000006254      0x1bc /home/nikola/PNRS/pnrs-2023/de1-soc-demo/sw/nios/individual/paper_bsp//libhal_bsp.a(alt_close.o)
 .debug_line    0x0000000000006410      0x1bd /home/nikola/PNRS/pnrs-2023/de1-soc-demo/sw/nios/individual/paper_bsp//libhal_bsp.a(alt_dev.o)
 .debug_line    0x00000000000065cd       0x51 /home/nikola/PNRS/pnrs-2023/de1-soc-demo/sw/nios/individual/paper_bsp//libhal_bsp.a(alt_errno.o)
 .debug_line    0x000000000000661e      0x233 /home/nikola/PNRS/pnrs-2023/de1-soc-demo/sw/nios/individual/paper_bsp//libhal_bsp.a(alt_fstat.o)
 .debug_line    0x0000000000006851      0x235 /home/nikola/PNRS/pnrs-2023/de1-soc-demo/sw/nios/individual/paper_bsp//libhal_bsp.a(alt_isatty.o)
 .debug_line    0x0000000000006a86       0xa6 /home/nikola/PNRS/pnrs-2023/de1-soc-demo/sw/nios/individual/paper_bsp//libhal_bsp.a(alt_load.o)
 .debug_line    0x0000000000006b2c      0x1ad /home/nikola/PNRS/pnrs-2023/de1-soc-demo/sw/nios/individual/paper_bsp//libhal_bsp.a(alt_lseek.o)
 .debug_line    0x0000000000006cd9       0x85 /home/nikola/PNRS/pnrs-2023/de1-soc-demo/sw/nios/individual/paper_bsp//libhal_bsp.a(alt_main.o)
 .debug_line    0x0000000000006d5e      0x143 /home/nikola/PNRS/pnrs-2023/de1-soc-demo/sw/nios/individual/paper_bsp//libhal_bsp.a(alt_malloc_lock.o)
 .debug_line    0x0000000000006ea1      0x2d9 /home/nikola/PNRS/pnrs-2023/de1-soc-demo/sw/nios/individual/paper_bsp//libhal_bsp.a(alt_read.o)
 .debug_line    0x000000000000717a       0xb6 /home/nikola/PNRS/pnrs-2023/de1-soc-demo/sw/nios/individual/paper_bsp//libhal_bsp.a(alt_release_fd.o)
 .debug_line    0x0000000000007230      0x11e /home/nikola/PNRS/pnrs-2023/de1-soc-demo/sw/nios/individual/paper_bsp//libhal_bsp.a(alt_sbrk.o)
 .debug_line    0x000000000000734e       0xce /home/nikola/PNRS/pnrs-2023/de1-soc-demo/sw/nios/individual/paper_bsp//libhal_bsp.a(alt_usleep.o)
 .debug_line    0x000000000000741c      0x2dc /home/nikola/PNRS/pnrs-2023/de1-soc-demo/sw/nios/individual/paper_bsp//libhal_bsp.a(alt_write.o)
 .debug_line    0x00000000000076f8      0x1d7 /home/nikola/PNRS/pnrs-2023/de1-soc-demo/sw/nios/individual/paper_bsp//libhal_bsp.a(alt_sys_init.o)
 .debug_line    0x00000000000078cf      0x149 /home/nikola/PNRS/pnrs-2023/de1-soc-demo/sw/nios/individual/paper_bsp//libhal_bsp.a(altera_avalon_jtag_uart_fd.o)
 .debug_line    0x0000000000007a18      0x25b /home/nikola/PNRS/pnrs-2023/de1-soc-demo/sw/nios/individual/paper_bsp//libhal_bsp.a(altera_avalon_jtag_uart_init.o)
 .debug_line    0x0000000000007c73      0x154 /home/nikola/PNRS/pnrs-2023/de1-soc-demo/sw/nios/individual/paper_bsp//libhal_bsp.a(altera_avalon_jtag_uart_ioctl.o)
 .debug_line    0x0000000000007dc7      0x1d1 /home/nikola/PNRS/pnrs-2023/de1-soc-demo/sw/nios/individual/paper_bsp//libhal_bsp.a(altera_avalon_jtag_uart_read.o)
 .debug_line    0x0000000000007f98      0x1d6 /home/nikola/PNRS/pnrs-2023/de1-soc-demo/sw/nios/individual/paper_bsp//libhal_bsp.a(altera_avalon_jtag_uart_write.o)
 .debug_line    0x000000000000816e      0x1bd /home/nikola/PNRS/pnrs-2023/de1-soc-demo/sw/nios/individual/paper_bsp//libhal_bsp.a(altera_avalon_mutex.o)
 .debug_line    0x000000000000832b       0xfd /home/nikola/PNRS/pnrs-2023/de1-soc-demo/sw/nios/individual/paper_bsp//libhal_bsp.a(altera_avalon_timer_sc.o)
 .debug_line    0x0000000000008428      0x138 /home/nikola/PNRS/pnrs-2023/de1-soc-demo/sw/nios/individual/paper_bsp//libhal_bsp.a(alt_alarm_start.o)
 .debug_line    0x0000000000008560       0xe1 /home/nikola/PNRS/pnrs-2023/de1-soc-demo/sw/nios/individual/paper_bsp//libhal_bsp.a(alt_busy_sleep.o)
 .debug_line    0x0000000000008641       0x53 /home/nikola/PNRS/pnrs-2023/de1-soc-demo/sw/nios/individual/paper_bsp//libhal_bsp.a(alt_dcache_flush_all.o)
 .debug_line    0x0000000000008694      0x106 /home/nikola/PNRS/pnrs-2023/de1-soc-demo/sw/nios/individual/paper_bsp//libhal_bsp.a(alt_dev_llist_insert.o)
 .debug_line    0x000000000000879a       0x66 /home/nikola/PNRS/pnrs-2023/de1-soc-demo/sw/nios/individual/paper_bsp//libhal_bsp.a(alt_do_ctors.o)
 .debug_line    0x0000000000008800       0x66 /home/nikola/PNRS/pnrs-2023/de1-soc-demo/sw/nios/individual/paper_bsp//libhal_bsp.a(alt_do_dtors.o)
 .debug_line    0x0000000000008866       0xb8 /home/nikola/PNRS/pnrs-2023/de1-soc-demo/sw/nios/individual/paper_bsp//libhal_bsp.a(alt_find_dev.o)
 .debug_line    0x000000000000891e       0x51 /home/nikola/PNRS/pnrs-2023/de1-soc-demo/sw/nios/individual/paper_bsp//libhal_bsp.a(alt_icache_flush_all.o)
 .debug_line    0x000000000000896f      0x123 /home/nikola/PNRS/pnrs-2023/de1-soc-demo/sw/nios/individual/paper_bsp//libhal_bsp.a(alt_iic.o)
 .debug_line    0x0000000000008a92       0xfc /home/nikola/PNRS/pnrs-2023/de1-soc-demo/sw/nios/individual/paper_bsp//libhal_bsp.a(alt_iic_isr_register.o)
 .debug_line    0x0000000000008b8e      0x1f0 /home/nikola/PNRS/pnrs-2023/de1-soc-demo/sw/nios/individual/paper_bsp//libhal_bsp.a(alt_io_redirect.o)
 .debug_line    0x0000000000008d7e       0x6b /home/nikola/PNRS/pnrs-2023/de1-soc-demo/sw/nios/individual/paper_bsp//libhal_bsp.a(alt_irq_entry.o)
 .debug_line    0x0000000000008de9       0xd4 /home/nikola/PNRS/pnrs-2023/de1-soc-demo/sw/nios/individual/paper_bsp//libhal_bsp.a(alt_irq_handler.o)
 .debug_line    0x0000000000008ebd       0x50 /home/nikola/PNRS/pnrs-2023/de1-soc-demo/sw/nios/individual/paper_bsp//libhal_bsp.a(alt_irq_vars.o)
 .debug_line    0x0000000000008f0d      0x1a1 /home/nikola/PNRS/pnrs-2023/de1-soc-demo/sw/nios/individual/paper_bsp//libhal_bsp.a(alt_open.o)
 .debug_line    0x00000000000090ae      0x133 /home/nikola/PNRS/pnrs-2023/de1-soc-demo/sw/nios/individual/paper_bsp//libhal_bsp.a(alt_tick.o)
 .debug_line    0x00000000000091e1       0x57 /home/nikola/PNRS/pnrs-2023/de1-soc-demo/sw/nios/individual/paper_bsp//libhal_bsp.a(altera_nios2_gen2_irq.o)
 .debug_line    0x0000000000009238       0xb3 /home/nikola/PNRS/pnrs-2023/de1-soc-demo/sw/nios/individual/paper_bsp//libhal_bsp.a(alt_exception_entry.o)
 .debug_line    0x00000000000092eb      0x103 /home/nikola/PNRS/pnrs-2023/de1-soc-demo/sw/nios/individual/paper_bsp//libhal_bsp.a(alt_find_file.o)
 .debug_line    0x00000000000093ee       0xfb /home/nikola/PNRS/pnrs-2023/de1-soc-demo/sw/nios/individual/paper_bsp//libhal_bsp.a(alt_get_fd.o)
 .debug_line    0x00000000000094e9       0xd4 /home/nikola/PNRS/pnrs-2023/de1-soc-demo/sw/nios/individual/paper_bsp//libhal_bsp.a(alt_instruction_exception_entry.o)
 .debug_line    0x00000000000095bd       0xf7 /home/nikola/intelFPGA_lite/21.1/nios2eds/bin/gnu/H-x86_64-pc-linux-gnu/bin/../lib/gcc/nios2-elf/10.3.1/../../../../../H-x86_64-pc-linux-gnu/nios2-elf/lib/mno-hw-mul/libc.a(lib_a-atexit.o)
 .debug_line    0x00000000000096b4      0x22a /home/nikola/intelFPGA_lite/21.1/nios2eds/bin/gnu/H-x86_64-pc-linux-gnu/bin/../lib/gcc/nios2-elf/10.3.1/../../../../../H-x86_64-pc-linux-gnu/nios2-elf/lib/mno-hw-mul/libc.a(lib_a-exit.o)
 .debug_line    0x00000000000098de      0x1e6 /home/nikola/intelFPGA_lite/21.1/nios2eds/bin/gnu/H-x86_64-pc-linux-gnu/bin/../lib/gcc/nios2-elf/10.3.1/../../../../../H-x86_64-pc-linux-gnu/nios2-elf/lib/mno-hw-mul/libc.a(lib_a-memcmp.o)
 .debug_line    0x0000000000009ac4      0x21b /home/nikola/intelFPGA_lite/21.1/nios2eds/bin/gnu/H-x86_64-pc-linux-gnu/bin/../lib/gcc/nios2-elf/10.3.1/../../../../../H-x86_64-pc-linux-gnu/nios2-elf/lib/mno-hw-mul/libc.a(lib_a-__atexit.o)
 .debug_line    0x0000000000009cdf      0x2a3 /home/nikola/intelFPGA_lite/21.1/nios2eds/bin/gnu/H-x86_64-pc-linux-gnu/bin/../lib/gcc/nios2-elf/10.3.1/../../../../../H-x86_64-pc-linux-gnu/nios2-elf/lib/mno-hw-mul/libc.a(lib_a-__call_atexit.o)
 .debug_line    0x0000000000009f82       0x85 /home/nikola/PNRS/pnrs-2023/de1-soc-demo/sw/nios/individual/paper_bsp//libhal_bsp.a(alt_exit.o)

.debug_frame    0x0000000000000000     0x1890
 *(.debug_frame)
 .debug_frame   0x0000000000000000       0xec obj/default/paper.o
 .debug_frame   0x00000000000000ec       0x48 /home/nikola/intelFPGA_lite/21.1/nios2eds/bin/gnu/H-x86_64-pc-linux-gnu/bin/../lib/gcc/nios2-elf/10.3.1/../../../../../H-x86_64-pc-linux-gnu/nios2-elf/lib/mno-hw-mul/libc.a(lib_a-puts.o)
 .debug_frame   0x0000000000000134       0x20 /home/nikola/intelFPGA_lite/21.1/nios2eds/bin/gnu/H-x86_64-pc-linux-gnu/bin/../lib/gcc/nios2-elf/10.3.1/../../../../../H-x86_64-pc-linux-gnu/nios2-elf/lib/mno-hw-mul/libc.a(lib_a-strlen.o)
 .debug_frame   0x0000000000000154      0x12c /home/nikola/intelFPGA_lite/21.1/nios2eds/bin/gnu/H-x86_64-pc-linux-gnu/bin/../lib/gcc/nios2-elf/10.3.1/../../../../../H-x86_64-pc-linux-gnu/nios2-elf/lib/mno-hw-mul/libc.a(lib_a-findfp.o)
 .debug_frame   0x0000000000000280       0x7c /home/nikola/intelFPGA_lite/21.1/nios2eds/bin/gnu/H-x86_64-pc-linux-gnu/bin/../lib/gcc/nios2-elf/10.3.1/../../../../../H-x86_64-pc-linux-gnu/nios2-elf/lib/mno-hw-mul/libc.a(lib_a-fvwrite.o)
 .debug_frame   0x00000000000002fc       0x74 /home/nikola/intelFPGA_lite/21.1/nios2eds/bin/gnu/H-x86_64-pc-linux-gnu/bin/../lib/gcc/nios2-elf/10.3.1/../../../../../H-x86_64-pc-linux-gnu/nios2-elf/lib/mno-hw-mul/libc.a(lib_a-fwalk.o)
 .debug_frame   0x0000000000000370       0x58 /home/nikola/intelFPGA_lite/21.1/nios2eds/bin/gnu/H-x86_64-pc-linux-gnu/bin/../lib/gcc/nios2-elf/10.3.1/../../../../../H-x86_64-pc-linux-gnu/nios2-elf/lib/mno-hw-mul/libc.a(lib_a-mallocr.o)
 .debug_frame   0x00000000000003c8       0x20 /home/nikola/intelFPGA_lite/21.1/nios2eds/bin/gnu/H-x86_64-pc-linux-gnu/bin/../lib/gcc/nios2-elf/10.3.1/../../../../../H-x86_64-pc-linux-gnu/nios2-elf/lib/mno-hw-mul/libc.a(lib_a-memchr.o)
 .debug_frame   0x00000000000003e8       0x20 /home/nikola/intelFPGA_lite/21.1/nios2eds/bin/gnu/H-x86_64-pc-linux-gnu/bin/../lib/gcc/nios2-elf/10.3.1/../../../../../H-x86_64-pc-linux-gnu/nios2-elf/lib/mno-hw-mul/libc.a(lib_a-memcpy.o)
 .debug_frame   0x0000000000000408       0x20 /home/nikola/intelFPGA_lite/21.1/nios2eds/bin/gnu/H-x86_64-pc-linux-gnu/bin/../lib/gcc/nios2-elf/10.3.1/../../../../../H-x86_64-pc-linux-gnu/nios2-elf/lib/mno-hw-mul/libc.a(lib_a-memmove.o)
 .debug_frame   0x0000000000000428       0x20 /home/nikola/intelFPGA_lite/21.1/nios2eds/bin/gnu/H-x86_64-pc-linux-gnu/bin/../lib/gcc/nios2-elf/10.3.1/../../../../../H-x86_64-pc-linux-gnu/nios2-elf/lib/mno-hw-mul/libc.a(lib_a-memset.o)
 .debug_frame   0x0000000000000448       0x70 /home/nikola/intelFPGA_lite/21.1/nios2eds/bin/gnu/H-x86_64-pc-linux-gnu/bin/../lib/gcc/nios2-elf/10.3.1/../../../../../H-x86_64-pc-linux-gnu/nios2-elf/lib/mno-hw-mul/libc.a(lib_a-reallocr.o)
 .debug_frame   0x00000000000004b8       0x3c /home/nikola/intelFPGA_lite/21.1/nios2eds/bin/gnu/H-x86_64-pc-linux-gnu/bin/../lib/gcc/nios2-elf/10.3.1/../../../../../H-x86_64-pc-linux-gnu/nios2-elf/lib/mno-hw-mul/libc.a(lib_a-sbrkr.o)
 .debug_frame   0x00000000000004f4       0xb8 /home/nikola/intelFPGA_lite/21.1/nios2eds/bin/gnu/H-x86_64-pc-linux-gnu/bin/../lib/gcc/nios2-elf/10.3.1/../../../../../H-x86_64-pc-linux-gnu/nios2-elf/lib/mno-hw-mul/libc.a(lib_a-stdio.o)
 .debug_frame   0x00000000000005ac       0x3c /home/nikola/intelFPGA_lite/21.1/nios2eds/bin/gnu/H-x86_64-pc-linux-gnu/bin/../lib/gcc/nios2-elf/10.3.1/../../../../../H-x86_64-pc-linux-gnu/nios2-elf/lib/mno-hw-mul/libc.a(lib_a-writer.o)
 .debug_frame   0x00000000000005e8       0x38 /home/nikola/intelFPGA_lite/21.1/nios2eds/bin/gnu/H-x86_64-pc-linux-gnu/bin/../lib/gcc/nios2-elf/10.3.1/../../../../../H-x86_64-pc-linux-gnu/nios2-elf/lib/mno-hw-mul/libc.a(lib_a-wsetup.o)
 .debug_frame   0x0000000000000620       0x3c /home/nikola/intelFPGA_lite/21.1/nios2eds/bin/gnu/H-x86_64-pc-linux-gnu/bin/../lib/gcc/nios2-elf/10.3.1/../../../../../H-x86_64-pc-linux-gnu/nios2-elf/lib/mno-hw-mul/libc.a(closer.o)
 .debug_frame   0x000000000000065c       0x94 /home/nikola/intelFPGA_lite/21.1/nios2eds/bin/gnu/H-x86_64-pc-linux-gnu/bin/../lib/gcc/nios2-elf/10.3.1/../../../../../H-x86_64-pc-linux-gnu/nios2-elf/lib/mno-hw-mul/libc.a(lib_a-fclose.o)
 .debug_frame   0x00000000000006f0       0x94 /home/nikola/intelFPGA_lite/21.1/nios2eds/bin/gnu/H-x86_64-pc-linux-gnu/bin/../lib/gcc/nios2-elf/10.3.1/../../../../../H-x86_64-pc-linux-gnu/nios2-elf/lib/mno-hw-mul/libc.a(lib_a-fflush.o)
 .debug_frame   0x0000000000000784       0x78 /home/nikola/intelFPGA_lite/21.1/nios2eds/bin/gnu/H-x86_64-pc-linux-gnu/bin/../lib/gcc/nios2-elf/10.3.1/../../../../../H-x86_64-pc-linux-gnu/nios2-elf/lib/mno-hw-mul/libc.a(lib_a-freer.o)
 .debug_frame   0x00000000000007fc       0x3c /home/nikola/intelFPGA_lite/21.1/nios2eds/bin/gnu/H-x86_64-pc-linux-gnu/bin/../lib/gcc/nios2-elf/10.3.1/../../../../../H-x86_64-pc-linux-gnu/nios2-elf/lib/mno-hw-mul/libc.a(lib_a-lseekr.o)
 .debug_frame   0x0000000000000838       0x70 /home/nikola/intelFPGA_lite/21.1/nios2eds/bin/gnu/H-x86_64-pc-linux-gnu/bin/../lib/gcc/nios2-elf/10.3.1/../../../../../H-x86_64-pc-linux-gnu/nios2-elf/lib/mno-hw-mul/libc.a(lib_a-makebuf.o)
 .debug_frame   0x00000000000008a8       0x3c /home/nikola/intelFPGA_lite/21.1/nios2eds/bin/gnu/H-x86_64-pc-linux-gnu/bin/../lib/gcc/nios2-elf/10.3.1/../../../../../H-x86_64-pc-linux-gnu/nios2-elf/lib/mno-hw-mul/libc.a(lib_a-readr.o)
 .debug_frame   0x00000000000008e4       0x3c /home/nikola/intelFPGA_lite/21.1/nios2eds/bin/gnu/H-x86_64-pc-linux-gnu/bin/../lib/gcc/nios2-elf/10.3.1/../../../../../H-x86_64-pc-linux-gnu/nios2-elf/lib/mno-hw-mul/libc.a(lib_a-fstatr.o)
 .debug_frame   0x0000000000000920       0x3c /home/nikola/intelFPGA_lite/21.1/nios2eds/bin/gnu/H-x86_64-pc-linux-gnu/bin/../lib/gcc/nios2-elf/10.3.1/../../../../../H-x86_64-pc-linux-gnu/nios2-elf/lib/mno-hw-mul/libc.a(lib_a-isattyr.o)
 .debug_frame   0x000000000000095c       0x50 /home/nikola/intelFPGA_lite/21.1/nios2eds/bin/gnu/H-x86_64-pc-linux-gnu/bin/../lib/gcc/nios2-elf/10.3.1/mno-hw-mul/libgcc.a(lib2-divmod.o)
 .debug_frame   0x00000000000009ac       0x20 /home/nikola/intelFPGA_lite/21.1/nios2eds/bin/gnu/H-x86_64-pc-linux-gnu/bin/../lib/gcc/nios2-elf/10.3.1/mno-hw-mul/libgcc.a(lib2-mul.o)
 .debug_frame   0x00000000000009cc       0x60 /home/nikola/PNRS/pnrs-2023/de1-soc-demo/sw/nios/individual/paper_bsp//libhal_bsp.a(alt_close.o)
 .debug_frame   0x0000000000000a2c       0x34 /home/nikola/PNRS/pnrs-2023/de1-soc-demo/sw/nios/individual/paper_bsp//libhal_bsp.a(alt_dev.o)
 .debug_frame   0x0000000000000a60       0x60 /home/nikola/PNRS/pnrs-2023/de1-soc-demo/sw/nios/individual/paper_bsp//libhal_bsp.a(alt_fstat.o)
 .debug_frame   0x0000000000000ac0       0x60 /home/nikola/PNRS/pnrs-2023/de1-soc-demo/sw/nios/individual/paper_bsp//libhal_bsp.a(alt_isatty.o)
 .debug_frame   0x0000000000000b20       0x5c /home/nikola/PNRS/pnrs-2023/de1-soc-demo/sw/nios/individual/paper_bsp//libhal_bsp.a(alt_load.o)
 .debug_frame   0x0000000000000b7c       0x60 /home/nikola/PNRS/pnrs-2023/de1-soc-demo/sw/nios/individual/paper_bsp//libhal_bsp.a(alt_lseek.o)
 .debug_frame   0x0000000000000bdc       0x2c /home/nikola/PNRS/pnrs-2023/de1-soc-demo/sw/nios/individual/paper_bsp//libhal_bsp.a(alt_main.o)
 .debug_frame   0x0000000000000c08       0x58 /home/nikola/PNRS/pnrs-2023/de1-soc-demo/sw/nios/individual/paper_bsp//libhal_bsp.a(alt_malloc_lock.o)
 .debug_frame   0x0000000000000c60       0x60 /home/nikola/PNRS/pnrs-2023/de1-soc-demo/sw/nios/individual/paper_bsp//libhal_bsp.a(alt_read.o)
 .debug_frame   0x0000000000000cc0       0x34 /home/nikola/PNRS/pnrs-2023/de1-soc-demo/sw/nios/individual/paper_bsp//libhal_bsp.a(alt_release_fd.o)
 .debug_frame   0x0000000000000cf4       0x34 /home/nikola/PNRS/pnrs-2023/de1-soc-demo/sw/nios/individual/paper_bsp//libhal_bsp.a(alt_sbrk.o)
 .debug_frame   0x0000000000000d28       0x38 /home/nikola/PNRS/pnrs-2023/de1-soc-demo/sw/nios/individual/paper_bsp//libhal_bsp.a(alt_usleep.o)
 .debug_frame   0x0000000000000d60       0x60 /home/nikola/PNRS/pnrs-2023/de1-soc-demo/sw/nios/individual/paper_bsp//libhal_bsp.a(alt_write.o)
 .debug_frame   0x0000000000000dc0       0xd8 /home/nikola/PNRS/pnrs-2023/de1-soc-demo/sw/nios/individual/paper_bsp//libhal_bsp.a(alt_sys_init.o)
 .debug_frame   0x0000000000000e98       0xb0 /home/nikola/PNRS/pnrs-2023/de1-soc-demo/sw/nios/individual/paper_bsp//libhal_bsp.a(altera_avalon_jtag_uart_fd.o)
 .debug_frame   0x0000000000000f48       0xa4 /home/nikola/PNRS/pnrs-2023/de1-soc-demo/sw/nios/individual/paper_bsp//libhal_bsp.a(altera_avalon_jtag_uart_init.o)
 .debug_frame   0x0000000000000fec       0x34 /home/nikola/PNRS/pnrs-2023/de1-soc-demo/sw/nios/individual/paper_bsp//libhal_bsp.a(altera_avalon_jtag_uart_ioctl.o)
 .debug_frame   0x0000000000001020       0x38 /home/nikola/PNRS/pnrs-2023/de1-soc-demo/sw/nios/individual/paper_bsp//libhal_bsp.a(altera_avalon_jtag_uart_read.o)
 .debug_frame   0x0000000000001058       0x38 /home/nikola/PNRS/pnrs-2023/de1-soc-demo/sw/nios/individual/paper_bsp//libhal_bsp.a(altera_avalon_jtag_uart_write.o)
 .debug_frame   0x0000000000001090      0x164 /home/nikola/PNRS/pnrs-2023/de1-soc-demo/sw/nios/individual/paper_bsp//libhal_bsp.a(altera_avalon_mutex.o)
 .debug_frame   0x00000000000011f4       0x60 /home/nikola/PNRS/pnrs-2023/de1-soc-demo/sw/nios/individual/paper_bsp//libhal_bsp.a(altera_avalon_timer_sc.o)
 .debug_frame   0x0000000000001254       0x34 /home/nikola/PNRS/pnrs-2023/de1-soc-demo/sw/nios/individual/paper_bsp//libhal_bsp.a(alt_alarm_start.o)
 .debug_frame   0x0000000000001288       0x38 /home/nikola/PNRS/pnrs-2023/de1-soc-demo/sw/nios/individual/paper_bsp//libhal_bsp.a(alt_busy_sleep.o)
 .debug_frame   0x00000000000012c0       0x34 /home/nikola/PNRS/pnrs-2023/de1-soc-demo/sw/nios/individual/paper_bsp//libhal_bsp.a(alt_dcache_flush_all.o)
 .debug_frame   0x00000000000012f4       0x60 /home/nikola/PNRS/pnrs-2023/de1-soc-demo/sw/nios/individual/paper_bsp//libhal_bsp.a(alt_dev_llist_insert.o)
 .debug_frame   0x0000000000001354       0x38 /home/nikola/PNRS/pnrs-2023/de1-soc-demo/sw/nios/individual/paper_bsp//libhal_bsp.a(alt_do_ctors.o)
 .debug_frame   0x000000000000138c       0x38 /home/nikola/PNRS/pnrs-2023/de1-soc-demo/sw/nios/individual/paper_bsp//libhal_bsp.a(alt_do_dtors.o)
 .debug_frame   0x00000000000013c4       0x38 /home/nikola/PNRS/pnrs-2023/de1-soc-demo/sw/nios/individual/paper_bsp//libhal_bsp.a(alt_find_dev.o)
 .debug_frame   0x00000000000013fc       0x34 /home/nikola/PNRS/pnrs-2023/de1-soc-demo/sw/nios/individual/paper_bsp//libhal_bsp.a(alt_icache_flush_all.o)
 .debug_frame   0x0000000000001430       0xa4 /home/nikola/PNRS/pnrs-2023/de1-soc-demo/sw/nios/individual/paper_bsp//libhal_bsp.a(alt_iic.o)
 .debug_frame   0x00000000000014d4       0x38 /home/nikola/PNRS/pnrs-2023/de1-soc-demo/sw/nios/individual/paper_bsp//libhal_bsp.a(alt_iic_isr_register.o)
 .debug_frame   0x000000000000150c       0x60 /home/nikola/PNRS/pnrs-2023/de1-soc-demo/sw/nios/individual/paper_bsp//libhal_bsp.a(alt_io_redirect.o)
 .debug_frame   0x000000000000156c       0x38 /home/nikola/PNRS/pnrs-2023/de1-soc-demo/sw/nios/individual/paper_bsp//libhal_bsp.a(alt_irq_handler.o)
 .debug_frame   0x00000000000015a4       0x84 /home/nikola/PNRS/pnrs-2023/de1-soc-demo/sw/nios/individual/paper_bsp//libhal_bsp.a(alt_open.o)
 .debug_frame   0x0000000000001628       0x64 /home/nikola/PNRS/pnrs-2023/de1-soc-demo/sw/nios/individual/paper_bsp//libhal_bsp.a(alt_tick.o)
 .debug_frame   0x000000000000168c       0x34 /home/nikola/PNRS/pnrs-2023/de1-soc-demo/sw/nios/individual/paper_bsp//libhal_bsp.a(altera_nios2_gen2_irq.o)
 .debug_frame   0x00000000000016c0       0x38 /home/nikola/PNRS/pnrs-2023/de1-soc-demo/sw/nios/individual/paper_bsp//libhal_bsp.a(alt_find_file.o)
 .debug_frame   0x00000000000016f8       0x34 /home/nikola/PNRS/pnrs-2023/de1-soc-demo/sw/nios/individual/paper_bsp//libhal_bsp.a(alt_get_fd.o)
 .debug_frame   0x000000000000172c       0x5c /home/nikola/PNRS/pnrs-2023/de1-soc-demo/sw/nios/individual/paper_bsp//libhal_bsp.a(alt_instruction_exception_entry.o)
 .debug_frame   0x0000000000001788       0x20 /home/nikola/intelFPGA_lite/21.1/nios2eds/bin/gnu/H-x86_64-pc-linux-gnu/bin/../lib/gcc/nios2-elf/10.3.1/../../../../../H-x86_64-pc-linux-gnu/nios2-elf/lib/mno-hw-mul/libc.a(lib_a-atexit.o)
 .debug_frame   0x00000000000017a8       0x28 /home/nikola/intelFPGA_lite/21.1/nios2eds/bin/gnu/H-x86_64-pc-linux-gnu/bin/../lib/gcc/nios2-elf/10.3.1/../../../../../H-x86_64-pc-linux-gnu/nios2-elf/lib/mno-hw-mul/libc.a(lib_a-exit.o)
 .debug_frame   0x00000000000017d0       0x20 /home/nikola/intelFPGA_lite/21.1/nios2eds/bin/gnu/H-x86_64-pc-linux-gnu/bin/../lib/gcc/nios2-elf/10.3.1/../../../../../H-x86_64-pc-linux-gnu/nios2-elf/lib/mno-hw-mul/libc.a(lib_a-memcmp.o)
 .debug_frame   0x00000000000017f0       0x20 /home/nikola/intelFPGA_lite/21.1/nios2eds/bin/gnu/H-x86_64-pc-linux-gnu/bin/../lib/gcc/nios2-elf/10.3.1/../../../../../H-x86_64-pc-linux-gnu/nios2-elf/lib/mno-hw-mul/libc.a(lib_a-__atexit.o)
 .debug_frame   0x0000000000001810       0x54 /home/nikola/intelFPGA_lite/21.1/nios2eds/bin/gnu/H-x86_64-pc-linux-gnu/bin/../lib/gcc/nios2-elf/10.3.1/../../../../../H-x86_64-pc-linux-gnu/nios2-elf/lib/mno-hw-mul/libc.a(lib_a-__call_atexit.o)
 .debug_frame   0x0000000000001864       0x2c /home/nikola/PNRS/pnrs-2023/de1-soc-demo/sw/nios/individual/paper_bsp//libhal_bsp.a(alt_exit.o)

.debug_str      0x0000000000000000     0x2b36
 *(.debug_str)
 .debug_str     0x0000000000000000       0x64 /home/nikola/PNRS/pnrs-2023/de1-soc-demo/sw/nios/individual/paper_bsp//obj/HAL/src/crt0.o
 .debug_str     0x0000000000000064      0x1e3 obj/default/paper.o
                                        0x237 (size before relaxing)
 .debug_str     0x0000000000000247      0x4fd /home/nikola/intelFPGA_lite/21.1/nios2eds/bin/gnu/H-x86_64-pc-linux-gnu/bin/../lib/gcc/nios2-elf/10.3.1/../../../../../H-x86_64-pc-linux-gnu/nios2-elf/lib/mno-hw-mul/libc.a(lib_a-puts.o)
                                        0x61e (size before relaxing)
 .debug_str     0x0000000000000744       0xdd /home/nikola/intelFPGA_lite/21.1/nios2eds/bin/gnu/H-x86_64-pc-linux-gnu/bin/../lib/gcc/nios2-elf/10.3.1/../../../../../H-x86_64-pc-linux-gnu/nios2-elf/lib/mno-hw-mul/libc.a(lib_a-strlen.o)
                                        0x1ef (size before relaxing)
 .debug_str     0x0000000000000821      0x19e /home/nikola/intelFPGA_lite/21.1/nios2eds/bin/gnu/H-x86_64-pc-linux-gnu/bin/../lib/gcc/nios2-elf/10.3.1/../../../../../H-x86_64-pc-linux-gnu/nios2-elf/lib/mno-hw-mul/libc.a(lib_a-findfp.o)
                                        0x725 (size before relaxing)
 .debug_str     0x00000000000009bf       0xaf /home/nikola/intelFPGA_lite/21.1/nios2eds/bin/gnu/H-x86_64-pc-linux-gnu/bin/../lib/gcc/nios2-elf/10.3.1/../../../../../H-x86_64-pc-linux-gnu/nios2-elf/lib/mno-hw-mul/libc.a(lib_a-fvwrite.o)
                                        0x66c (size before relaxing)
 .debug_str     0x0000000000000a6e       0x4c /home/nikola/intelFPGA_lite/21.1/nios2eds/bin/gnu/H-x86_64-pc-linux-gnu/bin/../lib/gcc/nios2-elf/10.3.1/../../../../../H-x86_64-pc-linux-gnu/nios2-elf/lib/mno-hw-mul/libc.a(lib_a-fwalk.o)
                                        0x5bc (size before relaxing)
 .debug_str     0x0000000000000aba       0xda /home/nikola/intelFPGA_lite/21.1/nios2eds/bin/gnu/H-x86_64-pc-linux-gnu/bin/../lib/gcc/nios2-elf/10.3.1/../../../../../H-x86_64-pc-linux-gnu/nios2-elf/lib/mno-hw-mul/libc.a(lib_a-impure.o)
                                        0x5b7 (size before relaxing)
 .debug_str     0x0000000000000b94      0x2bf /home/nikola/intelFPGA_lite/21.1/nios2eds/bin/gnu/H-x86_64-pc-linux-gnu/bin/../lib/gcc/nios2-elf/10.3.1/../../../../../H-x86_64-pc-linux-gnu/nios2-elf/lib/mno-hw-mul/libc.a(lib_a-mallocr.o)
                                        0x7bc (size before relaxing)
 .debug_str     0x0000000000000e53       0x54 /home/nikola/intelFPGA_lite/21.1/nios2eds/bin/gnu/H-x86_64-pc-linux-gnu/bin/../lib/gcc/nios2-elf/10.3.1/../../../../../H-x86_64-pc-linux-gnu/nios2-elf/lib/mno-hw-mul/libc.a(lib_a-memchr.o)
                                        0x1f6 (size before relaxing)
 .debug_str     0x0000000000000ea7       0x66 /home/nikola/intelFPGA_lite/21.1/nios2eds/bin/gnu/H-x86_64-pc-linux-gnu/bin/../lib/gcc/nios2-elf/10.3.1/../../../../../H-x86_64-pc-linux-gnu/nios2-elf/lib/mno-hw-mul/libc.a(lib_a-memcpy.o)
                                        0x203 (size before relaxing)
 .debug_str     0x0000000000000f0d       0x49 /home/nikola/intelFPGA_lite/21.1/nios2eds/bin/gnu/H-x86_64-pc-linux-gnu/bin/../lib/gcc/nios2-elf/10.3.1/../../../../../H-x86_64-pc-linux-gnu/nios2-elf/lib/mno-hw-mul/libc.a(lib_a-memmove.o)
                                        0x20f (size before relaxing)
 .debug_str     0x0000000000000f56       0x46 /home/nikola/intelFPGA_lite/21.1/nios2eds/bin/gnu/H-x86_64-pc-linux-gnu/bin/../lib/gcc/nios2-elf/10.3.1/../../../../../H-x86_64-pc-linux-gnu/nios2-elf/lib/mno-hw-mul/libc.a(lib_a-memset.o)
                                        0x1f0 (size before relaxing)
 .debug_str     0x0000000000000f9c       0x4e /home/nikola/intelFPGA_lite/21.1/nios2eds/bin/gnu/H-x86_64-pc-linux-gnu/bin/../lib/gcc/nios2-elf/10.3.1/../../../../../H-x86_64-pc-linux-gnu/nios2-elf/lib/mno-hw-mul/libc.a(lib_a-reallocr.o)
                                        0x698 (size before relaxing)
 .debug_str     0x0000000000000fea       0x51 /home/nikola/intelFPGA_lite/21.1/nios2eds/bin/gnu/H-x86_64-pc-linux-gnu/bin/../lib/gcc/nios2-elf/10.3.1/../../../../../H-x86_64-pc-linux-gnu/nios2-elf/lib/mno-hw-mul/libc.a(lib_a-sbrkr.o)
                                        0x5ad (size before relaxing)
 .debug_str     0x000000000000103b       0x9d /home/nikola/intelFPGA_lite/21.1/nios2eds/bin/gnu/H-x86_64-pc-linux-gnu/bin/../lib/gcc/nios2-elf/10.3.1/../../../../../H-x86_64-pc-linux-gnu/nios2-elf/lib/mno-hw-mul/libc.a(lib_a-stdio.o)
                                        0x60b (size before relaxing)
 .debug_str     0x00000000000010d8       0x3e /home/nikola/intelFPGA_lite/21.1/nios2eds/bin/gnu/H-x86_64-pc-linux-gnu/bin/../lib/gcc/nios2-elf/10.3.1/../../../../../H-x86_64-pc-linux-gnu/nios2-elf/lib/mno-hw-mul/libc.a(lib_a-writer.o)
                                        0x5b1 (size before relaxing)
 .debug_str     0x0000000000001116       0x4b /home/nikola/intelFPGA_lite/21.1/nios2eds/bin/gnu/H-x86_64-pc-linux-gnu/bin/../lib/gcc/nios2-elf/10.3.1/../../../../../H-x86_64-pc-linux-gnu/nios2-elf/lib/mno-hw-mul/libc.a(lib_a-wsetup.o)
                                        0x5d6 (size before relaxing)
 .debug_str     0x0000000000001161       0x3e /home/nikola/intelFPGA_lite/21.1/nios2eds/bin/gnu/H-x86_64-pc-linux-gnu/bin/../lib/gcc/nios2-elf/10.3.1/../../../../../H-x86_64-pc-linux-gnu/nios2-elf/lib/mno-hw-mul/libc.a(closer.o)
                                        0x5a1 (size before relaxing)
 .debug_str     0x000000000000119f       0x5f /home/nikola/intelFPGA_lite/21.1/nios2eds/bin/gnu/H-x86_64-pc-linux-gnu/bin/../lib/gcc/nios2-elf/10.3.1/../../../../../H-x86_64-pc-linux-gnu/nios2-elf/lib/mno-hw-mul/libc.a(lib_a-fclose.o)
                                        0x604 (size before relaxing)
 .debug_str     0x00000000000011fe       0x56 /home/nikola/intelFPGA_lite/21.1/nios2eds/bin/gnu/H-x86_64-pc-linux-gnu/bin/../lib/gcc/nios2-elf/10.3.1/../../../../../H-x86_64-pc-linux-gnu/nios2-elf/lib/mno-hw-mul/libc.a(lib_a-fflush.o)
                                        0x617 (size before relaxing)
 .debug_str     0x0000000000001254       0x34 /home/nikola/intelFPGA_lite/21.1/nios2eds/bin/gnu/H-x86_64-pc-linux-gnu/bin/../lib/gcc/nios2-elf/10.3.1/../../../../../H-x86_64-pc-linux-gnu/nios2-elf/lib/mno-hw-mul/libc.a(lib_a-freer.o)
                                        0x706 (size before relaxing)
 .debug_str     0x0000000000001288       0x41 /home/nikola/intelFPGA_lite/21.1/nios2eds/bin/gnu/H-x86_64-pc-linux-gnu/bin/../lib/gcc/nios2-elf/10.3.1/../../../../../H-x86_64-pc-linux-gnu/nios2-elf/lib/mno-hw-mul/libc.a(lib_a-int_errno.o)
                                        0x1d5 (size before relaxing)
 .debug_str     0x00000000000012c9       0x44 /home/nikola/intelFPGA_lite/21.1/nios2eds/bin/gnu/H-x86_64-pc-linux-gnu/bin/../lib/gcc/nios2-elf/10.3.1/../../../../../H-x86_64-pc-linux-gnu/nios2-elf/lib/mno-hw-mul/libc.a(lib_a-lseekr.o)
                                        0x5a8 (size before relaxing)
 .debug_str     0x000000000000130d      0x177 /home/nikola/intelFPGA_lite/21.1/nios2eds/bin/gnu/H-x86_64-pc-linux-gnu/bin/../lib/gcc/nios2-elf/10.3.1/../../../../../H-x86_64-pc-linux-gnu/nios2-elf/lib/mno-hw-mul/libc.a(lib_a-makebuf.o)
                                        0x738 (size before relaxing)
 .debug_str     0x0000000000001484       0x3d /home/nikola/intelFPGA_lite/21.1/nios2eds/bin/gnu/H-x86_64-pc-linux-gnu/bin/../lib/gcc/nios2-elf/10.3.1/../../../../../H-x86_64-pc-linux-gnu/nios2-elf/lib/mno-hw-mul/libc.a(lib_a-readr.o)
                                        0x5ae (size before relaxing)
 .debug_str     0x00000000000014c1       0x4a /home/nikola/intelFPGA_lite/21.1/nios2eds/bin/gnu/H-x86_64-pc-linux-gnu/bin/../lib/gcc/nios2-elf/10.3.1/../../../../../H-x86_64-pc-linux-gnu/nios2-elf/lib/mno-hw-mul/libc.a(lib_a-fstatr.o)
                                        0x6ec (size before relaxing)
 .debug_str     0x000000000000150b       0x46 /home/nikola/intelFPGA_lite/21.1/nios2eds/bin/gnu/H-x86_64-pc-linux-gnu/bin/../lib/gcc/nios2-elf/10.3.1/../../../../../H-x86_64-pc-linux-gnu/nios2-elf/lib/mno-hw-mul/libc.a(lib_a-isattyr.o)
                                        0x5a4 (size before relaxing)
 .debug_str     0x0000000000001551      0x18d /home/nikola/intelFPGA_lite/21.1/nios2eds/bin/gnu/H-x86_64-pc-linux-gnu/bin/../lib/gcc/nios2-elf/10.3.1/mno-hw-mul/libgcc.a(lib2-divmod.o)
                                        0x1e1 (size before relaxing)
 .debug_str     0x00000000000016de       0x3a /home/nikola/intelFPGA_lite/21.1/nios2eds/bin/gnu/H-x86_64-pc-linux-gnu/bin/../lib/gcc/nios2-elf/10.3.1/mno-hw-mul/libgcc.a(lib2-mul.o)
                                        0x1a2 (size before relaxing)
 .debug_str     0x0000000000001718       0x74 /home/nikola/PNRS/pnrs-2023/de1-soc-demo/sw/nios/individual/paper_bsp//libhal_bsp.a(alt_close.o)
                                        0x20b (size before relaxing)
 .debug_str     0x000000000000178c       0x5d /home/nikola/PNRS/pnrs-2023/de1-soc-demo/sw/nios/individual/paper_bsp//libhal_bsp.a(alt_dev.o)
                                        0x371 (size before relaxing)
 .debug_str     0x00000000000017e9       0x14 /home/nikola/PNRS/pnrs-2023/de1-soc-demo/sw/nios/individual/paper_bsp//libhal_bsp.a(alt_errno.o)
                                        0x14c (size before relaxing)
 .debug_str     0x00000000000017fd       0x14 /home/nikola/PNRS/pnrs-2023/de1-soc-demo/sw/nios/individual/paper_bsp//libhal_bsp.a(alt_fstat.o)
                                        0x34b (size before relaxing)
 .debug_str     0x0000000000001811       0x15 /home/nikola/PNRS/pnrs-2023/de1-soc-demo/sw/nios/individual/paper_bsp//libhal_bsp.a(alt_isatty.o)
                                        0x353 (size before relaxing)
 .debug_str     0x0000000000001826       0xe9 /home/nikola/PNRS/pnrs-2023/de1-soc-demo/sw/nios/individual/paper_bsp//libhal_bsp.a(alt_load.o)
                                        0x21f (size before relaxing)
 .debug_str     0x000000000000190f       0x14 /home/nikola/PNRS/pnrs-2023/de1-soc-demo/sw/nios/individual/paper_bsp//libhal_bsp.a(alt_lseek.o)
                                        0x219 (size before relaxing)
 .debug_str     0x0000000000001923       0x44 /home/nikola/PNRS/pnrs-2023/de1-soc-demo/sw/nios/individual/paper_bsp//libhal_bsp.a(alt_main.o)
                                        0x179 (size before relaxing)
 .debug_str     0x0000000000001967       0x1a /home/nikola/PNRS/pnrs-2023/de1-soc-demo/sw/nios/individual/paper_bsp//libhal_bsp.a(alt_malloc_lock.o)
                                        0x526 (size before relaxing)
 .debug_str     0x0000000000001981       0x13 /home/nikola/PNRS/pnrs-2023/de1-soc-demo/sw/nios/individual/paper_bsp//libhal_bsp.a(alt_read.o)
                                        0x356 (size before relaxing)
 .debug_str     0x0000000000001994       0x28 /home/nikola/PNRS/pnrs-2023/de1-soc-demo/sw/nios/individual/paper_bsp//libhal_bsp.a(alt_release_fd.o)
                                        0x1dc (size before relaxing)
 .debug_str     0x00000000000019bc       0x82 /home/nikola/PNRS/pnrs-2023/de1-soc-demo/sw/nios/individual/paper_bsp//libhal_bsp.a(alt_sbrk.o)
                                        0x1cb (size before relaxing)
 .debug_str     0x0000000000001a3e       0x29 /home/nikola/PNRS/pnrs-2023/de1-soc-demo/sw/nios/individual/paper_bsp//libhal_bsp.a(alt_usleep.o)
                                        0x162 (size before relaxing)
 .debug_str     0x0000000000001a67       0x14 /home/nikola/PNRS/pnrs-2023/de1-soc-demo/sw/nios/individual/paper_bsp//libhal_bsp.a(alt_write.o)
                                        0x357 (size before relaxing)
 .debug_str     0x0000000000001a7b      0x17d /home/nikola/PNRS/pnrs-2023/de1-soc-demo/sw/nios/individual/paper_bsp//libhal_bsp.a(alt_sys_init.o)
                                        0x3f1 (size before relaxing)
 .debug_str     0x0000000000001bf8       0xb2 /home/nikola/PNRS/pnrs-2023/de1-soc-demo/sw/nios/individual/paper_bsp//libhal_bsp.a(altera_avalon_jtag_uart_fd.o)
                                        0x388 (size before relaxing)
 .debug_str     0x0000000000001caa       0xe0 /home/nikola/PNRS/pnrs-2023/de1-soc-demo/sw/nios/individual/paper_bsp//libhal_bsp.a(altera_avalon_jtag_uart_init.o)
                                        0x32b (size before relaxing)
 .debug_str     0x0000000000001d8a       0x4a /home/nikola/PNRS/pnrs-2023/de1-soc-demo/sw/nios/individual/paper_bsp//libhal_bsp.a(altera_avalon_jtag_uart_ioctl.o)
                                        0x270 (size before relaxing)
 .debug_str     0x0000000000001dd4       0x48 /home/nikola/PNRS/pnrs-2023/de1-soc-demo/sw/nios/individual/paper_bsp//libhal_bsp.a(altera_avalon_jtag_uart_read.o)
                                        0x2cc (size before relaxing)
 .debug_str     0x0000000000001e1c       0x4a /home/nikola/PNRS/pnrs-2023/de1-soc-demo/sw/nios/individual/paper_bsp//libhal_bsp.a(altera_avalon_jtag_uart_write.o)
                                        0x2cd (size before relaxing)
 .debug_str     0x0000000000001e66       0xf8 /home/nikola/PNRS/pnrs-2023/de1-soc-demo/sw/nios/individual/paper_bsp//libhal_bsp.a(altera_avalon_mutex.o)
                                        0x2d1 (size before relaxing)
 .debug_str     0x0000000000001f5e       0x72 /home/nikola/PNRS/pnrs-2023/de1-soc-demo/sw/nios/individual/paper_bsp//libhal_bsp.a(altera_avalon_timer_sc.o)
                                        0x21b (size before relaxing)
 .debug_str     0x0000000000001fd0       0x65 /home/nikola/PNRS/pnrs-2023/de1-soc-demo/sw/nios/individual/paper_bsp//libhal_bsp.a(alt_alarm_start.o)
                                        0x283 (size before relaxing)
 .debug_str     0x0000000000002035       0x42 /home/nikola/PNRS/pnrs-2023/de1-soc-demo/sw/nios/individual/paper_bsp//libhal_bsp.a(alt_busy_sleep.o)
                                        0x178 (size before relaxing)
 .debug_str     0x0000000000002077       0x34 /home/nikola/PNRS/pnrs-2023/de1-soc-demo/sw/nios/individual/paper_bsp//libhal_bsp.a(alt_dcache_flush_all.o)
                                        0x162 (size before relaxing)
 .debug_str     0x00000000000020ab       0x34 /home/nikola/PNRS/pnrs-2023/de1-soc-demo/sw/nios/individual/paper_bsp//libhal_bsp.a(alt_dev_llist_insert.o)
                                        0x1d9 (size before relaxing)
 .debug_str     0x00000000000020df       0x48 /home/nikola/PNRS/pnrs-2023/de1-soc-demo/sw/nios/individual/paper_bsp//libhal_bsp.a(alt_do_ctors.o)
                                         0xe6 (size before relaxing)
 .debug_str     0x0000000000002127       0x4c /home/nikola/PNRS/pnrs-2023/de1-soc-demo/sw/nios/individual/paper_bsp//libhal_bsp.a(alt_do_dtors.o)
                                         0xe5 (size before relaxing)
 .debug_str     0x0000000000002173       0x24 /home/nikola/PNRS/pnrs-2023/de1-soc-demo/sw/nios/individual/paper_bsp//libhal_bsp.a(alt_find_dev.o)
                                        0x1ec (size before relaxing)
 .debug_str     0x0000000000002197       0x34 /home/nikola/PNRS/pnrs-2023/de1-soc-demo/sw/nios/individual/paper_bsp//libhal_bsp.a(alt_icache_flush_all.o)
                                        0x162 (size before relaxing)
 .debug_str     0x00000000000021cb       0xb2 /home/nikola/PNRS/pnrs-2023/de1-soc-demo/sw/nios/individual/paper_bsp//libhal_bsp.a(alt_iic.o)
                                        0x239 (size before relaxing)
 .debug_str     0x000000000000227d       0x4c /home/nikola/PNRS/pnrs-2023/de1-soc-demo/sw/nios/individual/paper_bsp//libhal_bsp.a(alt_iic_isr_register.o)
                                        0x1f5 (size before relaxing)
 .debug_str     0x00000000000022c9       0x56 /home/nikola/PNRS/pnrs-2023/de1-soc-demo/sw/nios/individual/paper_bsp//libhal_bsp.a(alt_io_redirect.o)
                                        0x375 (size before relaxing)
 .debug_str     0x000000000000231f       0x18 /home/nikola/PNRS/pnrs-2023/de1-soc-demo/sw/nios/individual/paper_bsp//libhal_bsp.a(alt_irq_entry.o)
                                         0x6d (size before relaxing)
 .debug_str     0x0000000000002337       0x3a /home/nikola/PNRS/pnrs-2023/de1-soc-demo/sw/nios/individual/paper_bsp//libhal_bsp.a(alt_irq_handler.o)
                                        0x1a4 (size before relaxing)
 .debug_str     0x0000000000002371       0x29 /home/nikola/PNRS/pnrs-2023/de1-soc-demo/sw/nios/individual/paper_bsp//libhal_bsp.a(alt_irq_vars.o)
                                        0x150 (size before relaxing)
 .debug_str     0x000000000000239a       0x29 /home/nikola/PNRS/pnrs-2023/de1-soc-demo/sw/nios/individual/paper_bsp//libhal_bsp.a(alt_open.o)
                                        0x258 (size before relaxing)
 .debug_str     0x00000000000023c3       0x4a /home/nikola/PNRS/pnrs-2023/de1-soc-demo/sw/nios/individual/paper_bsp//libhal_bsp.a(alt_tick.o)
                                        0x257 (size before relaxing)
 .debug_str     0x000000000000240d       0x3b /home/nikola/PNRS/pnrs-2023/de1-soc-demo/sw/nios/individual/paper_bsp//libhal_bsp.a(altera_nios2_gen2_irq.o)
                                        0x169 (size before relaxing)
 .debug_str     0x0000000000002448       0x1e /home/nikola/PNRS/pnrs-2023/de1-soc-demo/sw/nios/individual/paper_bsp//libhal_bsp.a(alt_exception_entry.o)
                                         0x73 (size before relaxing)
 .debug_str     0x0000000000002466       0x26 /home/nikola/PNRS/pnrs-2023/de1-soc-demo/sw/nios/individual/paper_bsp//libhal_bsp.a(alt_find_file.o)
                                        0x1fa (size before relaxing)
 .debug_str     0x000000000000248c       0x30 /home/nikola/PNRS/pnrs-2023/de1-soc-demo/sw/nios/individual/paper_bsp//libhal_bsp.a(alt_get_fd.o)
                                        0x21c (size before relaxing)
 .debug_str     0x00000000000024bc      0x48b /home/nikola/PNRS/pnrs-2023/de1-soc-demo/sw/nios/individual/paper_bsp//libhal_bsp.a(alt_instruction_exception_entry.o)
                                        0x5b6 (size before relaxing)
 .debug_str     0x0000000000002947       0x83 /home/nikola/intelFPGA_lite/21.1/nios2eds/bin/gnu/H-x86_64-pc-linux-gnu/bin/../lib/gcc/nios2-elf/10.3.1/../../../../../H-x86_64-pc-linux-gnu/nios2-elf/lib/mno-hw-mul/libc.a(lib_a-atexit.o)
                                        0x219 (size before relaxing)
 .debug_str     0x00000000000029ca       0x4e /home/nikola/intelFPGA_lite/21.1/nios2eds/bin/gnu/H-x86_64-pc-linux-gnu/bin/../lib/gcc/nios2-elf/10.3.1/../../../../../H-x86_64-pc-linux-gnu/nios2-elf/lib/mno-hw-mul/libc.a(lib_a-exit.o)
                                        0x5c0 (size before relaxing)
 .debug_str     0x0000000000002a18       0x46 /home/nikola/intelFPGA_lite/21.1/nios2eds/bin/gnu/H-x86_64-pc-linux-gnu/bin/../lib/gcc/nios2-elf/10.3.1/../../../../../H-x86_64-pc-linux-gnu/nios2-elf/lib/mno-hw-mul/libc.a(lib_a-memcmp.o)
                                        0x1dc (size before relaxing)
 .debug_str     0x0000000000002a5e       0x41 /home/nikola/intelFPGA_lite/21.1/nios2eds/bin/gnu/H-x86_64-pc-linux-gnu/bin/../lib/gcc/nios2-elf/10.3.1/../../../../../H-x86_64-pc-linux-gnu/nios2-elf/lib/mno-hw-mul/libc.a(lib_a-__atexit.o)
                                        0x5f1 (size before relaxing)
 .debug_str     0x0000000000002a9f       0x6d /home/nikola/intelFPGA_lite/21.1/nios2eds/bin/gnu/H-x86_64-pc-linux-gnu/bin/../lib/gcc/nios2-elf/10.3.1/../../../../../H-x86_64-pc-linux-gnu/nios2-elf/lib/mno-hw-mul/libc.a(lib_a-__call_atexit.o)
                                        0x5ea (size before relaxing)
 .debug_str     0x0000000000002b0c       0x2a /home/nikola/PNRS/pnrs-2023/de1-soc-demo/sw/nios/individual/paper_bsp//libhal_bsp.a(alt_exit.o)
                                        0x15e (size before relaxing)

.debug_loc      0x0000000000000000     0x5f2e
 *(.debug_loc)
 .debug_loc     0x0000000000000000      0x143 /home/nikola/intelFPGA_lite/21.1/nios2eds/bin/gnu/H-x86_64-pc-linux-gnu/bin/../lib/gcc/nios2-elf/10.3.1/../../../../../H-x86_64-pc-linux-gnu/nios2-elf/lib/mno-hw-mul/libc.a(lib_a-puts.o)
 .debug_loc     0x0000000000000143       0x73 /home/nikola/intelFPGA_lite/21.1/nios2eds/bin/gnu/H-x86_64-pc-linux-gnu/bin/../lib/gcc/nios2-elf/10.3.1/../../../../../H-x86_64-pc-linux-gnu/nios2-elf/lib/mno-hw-mul/libc.a(lib_a-strlen.o)
 .debug_loc     0x00000000000001b6      0x339 /home/nikola/intelFPGA_lite/21.1/nios2eds/bin/gnu/H-x86_64-pc-linux-gnu/bin/../lib/gcc/nios2-elf/10.3.1/../../../../../H-x86_64-pc-linux-gnu/nios2-elf/lib/mno-hw-mul/libc.a(lib_a-findfp.o)
 .debug_loc     0x00000000000004ef      0x6e2 /home/nikola/intelFPGA_lite/21.1/nios2eds/bin/gnu/H-x86_64-pc-linux-gnu/bin/../lib/gcc/nios2-elf/10.3.1/../../../../../H-x86_64-pc-linux-gnu/nios2-elf/lib/mno-hw-mul/libc.a(lib_a-fvwrite.o)
 .debug_loc     0x0000000000000bd1      0x1eb /home/nikola/intelFPGA_lite/21.1/nios2eds/bin/gnu/H-x86_64-pc-linux-gnu/bin/../lib/gcc/nios2-elf/10.3.1/../../../../../H-x86_64-pc-linux-gnu/nios2-elf/lib/mno-hw-mul/libc.a(lib_a-fwalk.o)
 .debug_loc     0x0000000000000dbc      0xd34 /home/nikola/intelFPGA_lite/21.1/nios2eds/bin/gnu/H-x86_64-pc-linux-gnu/bin/../lib/gcc/nios2-elf/10.3.1/../../../../../H-x86_64-pc-linux-gnu/nios2-elf/lib/mno-hw-mul/libc.a(lib_a-mallocr.o)
 .debug_loc     0x0000000000001af0      0x240 /home/nikola/intelFPGA_lite/21.1/nios2eds/bin/gnu/H-x86_64-pc-linux-gnu/bin/../lib/gcc/nios2-elf/10.3.1/../../../../../H-x86_64-pc-linux-gnu/nios2-elf/lib/mno-hw-mul/libc.a(lib_a-memchr.o)
 .debug_loc     0x0000000000001d30      0x347 /home/nikola/intelFPGA_lite/21.1/nios2eds/bin/gnu/H-x86_64-pc-linux-gnu/bin/../lib/gcc/nios2-elf/10.3.1/../../../../../H-x86_64-pc-linux-gnu/nios2-elf/lib/mno-hw-mul/libc.a(lib_a-memcpy.o)
 .debug_loc     0x0000000000002077      0x3ff /home/nikola/intelFPGA_lite/21.1/nios2eds/bin/gnu/H-x86_64-pc-linux-gnu/bin/../lib/gcc/nios2-elf/10.3.1/../../../../../H-x86_64-pc-linux-gnu/nios2-elf/lib/mno-hw-mul/libc.a(lib_a-memmove.o)
 .debug_loc     0x0000000000002476      0x1b5 /home/nikola/intelFPGA_lite/21.1/nios2eds/bin/gnu/H-x86_64-pc-linux-gnu/bin/../lib/gcc/nios2-elf/10.3.1/../../../../../H-x86_64-pc-linux-gnu/nios2-elf/lib/mno-hw-mul/libc.a(lib_a-memset.o)
 .debug_loc     0x000000000000262b     0x11b9 /home/nikola/intelFPGA_lite/21.1/nios2eds/bin/gnu/H-x86_64-pc-linux-gnu/bin/../lib/gcc/nios2-elf/10.3.1/../../../../../H-x86_64-pc-linux-gnu/nios2-elf/lib/mno-hw-mul/libc.a(lib_a-reallocr.o)
 .debug_loc     0x00000000000037e4       0x89 /home/nikola/intelFPGA_lite/21.1/nios2eds/bin/gnu/H-x86_64-pc-linux-gnu/bin/../lib/gcc/nios2-elf/10.3.1/../../../../../H-x86_64-pc-linux-gnu/nios2-elf/lib/mno-hw-mul/libc.a(lib_a-sbrkr.o)
 .debug_loc     0x000000000000386d      0x456 /home/nikola/intelFPGA_lite/21.1/nios2eds/bin/gnu/H-x86_64-pc-linux-gnu/bin/../lib/gcc/nios2-elf/10.3.1/../../../../../H-x86_64-pc-linux-gnu/nios2-elf/lib/mno-hw-mul/libc.a(lib_a-stdio.o)
 .debug_loc     0x0000000000003cc3       0xed /home/nikola/intelFPGA_lite/21.1/nios2eds/bin/gnu/H-x86_64-pc-linux-gnu/bin/../lib/gcc/nios2-elf/10.3.1/../../../../../H-x86_64-pc-linux-gnu/nios2-elf/lib/mno-hw-mul/libc.a(lib_a-writer.o)
 .debug_loc     0x0000000000003db0       0xd4 /home/nikola/intelFPGA_lite/21.1/nios2eds/bin/gnu/H-x86_64-pc-linux-gnu/bin/../lib/gcc/nios2-elf/10.3.1/../../../../../H-x86_64-pc-linux-gnu/nios2-elf/lib/mno-hw-mul/libc.a(lib_a-wsetup.o)
 .debug_loc     0x0000000000003e84       0x89 /home/nikola/intelFPGA_lite/21.1/nios2eds/bin/gnu/H-x86_64-pc-linux-gnu/bin/../lib/gcc/nios2-elf/10.3.1/../../../../../H-x86_64-pc-linux-gnu/nios2-elf/lib/mno-hw-mul/libc.a(closer.o)
 .debug_loc     0x0000000000003f0d      0x2fc /home/nikola/intelFPGA_lite/21.1/nios2eds/bin/gnu/H-x86_64-pc-linux-gnu/bin/../lib/gcc/nios2-elf/10.3.1/../../../../../H-x86_64-pc-linux-gnu/nios2-elf/lib/mno-hw-mul/libc.a(lib_a-fclose.o)
 .debug_loc     0x0000000000004209      0x4c6 /home/nikola/intelFPGA_lite/21.1/nios2eds/bin/gnu/H-x86_64-pc-linux-gnu/bin/../lib/gcc/nios2-elf/10.3.1/../../../../../H-x86_64-pc-linux-gnu/nios2-elf/lib/mno-hw-mul/libc.a(lib_a-fflush.o)
 .debug_loc     0x00000000000046cf      0x614 /home/nikola/intelFPGA_lite/21.1/nios2eds/bin/gnu/H-x86_64-pc-linux-gnu/bin/../lib/gcc/nios2-elf/10.3.1/../../../../../H-x86_64-pc-linux-gnu/nios2-elf/lib/mno-hw-mul/libc.a(lib_a-freer.o)
 .debug_loc     0x0000000000004ce3       0xed /home/nikola/intelFPGA_lite/21.1/nios2eds/bin/gnu/H-x86_64-pc-linux-gnu/bin/../lib/gcc/nios2-elf/10.3.1/../../../../../H-x86_64-pc-linux-gnu/nios2-elf/lib/mno-hw-mul/libc.a(lib_a-lseekr.o)
 .debug_loc     0x0000000000004dd0      0x449 /home/nikola/intelFPGA_lite/21.1/nios2eds/bin/gnu/H-x86_64-pc-linux-gnu/bin/../lib/gcc/nios2-elf/10.3.1/../../../../../H-x86_64-pc-linux-gnu/nios2-elf/lib/mno-hw-mul/libc.a(lib_a-makebuf.o)
 .debug_loc     0x0000000000005219       0xed /home/nikola/intelFPGA_lite/21.1/nios2eds/bin/gnu/H-x86_64-pc-linux-gnu/bin/../lib/gcc/nios2-elf/10.3.1/../../../../../H-x86_64-pc-linux-gnu/nios2-elf/lib/mno-hw-mul/libc.a(lib_a-readr.o)
 .debug_loc     0x0000000000005306       0xbb /home/nikola/intelFPGA_lite/21.1/nios2eds/bin/gnu/H-x86_64-pc-linux-gnu/bin/../lib/gcc/nios2-elf/10.3.1/../../../../../H-x86_64-pc-linux-gnu/nios2-elf/lib/mno-hw-mul/libc.a(lib_a-fstatr.o)
 .debug_loc     0x00000000000053c1       0x89 /home/nikola/intelFPGA_lite/21.1/nios2eds/bin/gnu/H-x86_64-pc-linux-gnu/bin/../lib/gcc/nios2-elf/10.3.1/../../../../../H-x86_64-pc-linux-gnu/nios2-elf/lib/mno-hw-mul/libc.a(lib_a-isattyr.o)
 .debug_loc     0x000000000000544a      0x5d0 /home/nikola/intelFPGA_lite/21.1/nios2eds/bin/gnu/H-x86_64-pc-linux-gnu/bin/../lib/gcc/nios2-elf/10.3.1/mno-hw-mul/libgcc.a(lib2-divmod.o)
 .debug_loc     0x0000000000005a1a       0xa7 /home/nikola/intelFPGA_lite/21.1/nios2eds/bin/gnu/H-x86_64-pc-linux-gnu/bin/../lib/gcc/nios2-elf/10.3.1/mno-hw-mul/libgcc.a(lib2-mul.o)
 .debug_loc     0x0000000000005ac1       0x32 /home/nikola/intelFPGA_lite/21.1/nios2eds/bin/gnu/H-x86_64-pc-linux-gnu/bin/../lib/gcc/nios2-elf/10.3.1/../../../../../H-x86_64-pc-linux-gnu/nios2-elf/lib/mno-hw-mul/libc.a(lib_a-atexit.o)
 .debug_loc     0x0000000000005af3       0x22 /home/nikola/intelFPGA_lite/21.1/nios2eds/bin/gnu/H-x86_64-pc-linux-gnu/bin/../lib/gcc/nios2-elf/10.3.1/../../../../../H-x86_64-pc-linux-gnu/nios2-elf/lib/mno-hw-mul/libc.a(lib_a-exit.o)
 .debug_loc     0x0000000000005b15      0x158 /home/nikola/intelFPGA_lite/21.1/nios2eds/bin/gnu/H-x86_64-pc-linux-gnu/bin/../lib/gcc/nios2-elf/10.3.1/../../../../../H-x86_64-pc-linux-gnu/nios2-elf/lib/mno-hw-mul/libc.a(lib_a-memcmp.o)
 .debug_loc     0x0000000000005c6d       0xf7 /home/nikola/intelFPGA_lite/21.1/nios2eds/bin/gnu/H-x86_64-pc-linux-gnu/bin/../lib/gcc/nios2-elf/10.3.1/../../../../../H-x86_64-pc-linux-gnu/nios2-elf/lib/mno-hw-mul/libc.a(lib_a-__atexit.o)
 .debug_loc     0x0000000000005d64      0x1ca /home/nikola/intelFPGA_lite/21.1/nios2eds/bin/gnu/H-x86_64-pc-linux-gnu/bin/../lib/gcc/nios2-elf/10.3.1/../../../../../H-x86_64-pc-linux-gnu/nios2-elf/lib/mno-hw-mul/libc.a(lib_a-__call_atexit.o)

.debug_macinfo
 *(.debug_macinfo)

.debug_weaknames
 *(.debug_weaknames)

.debug_funcnames
 *(.debug_funcnames)

.debug_typenames
 *(.debug_typenames)

.debug_varnames
 *(.debug_varnames)

.debug_alt_sim_info
                0x0000000000000000       0x40
 *(.debug_alt_sim_info)
 .debug_alt_sim_info
                0x0000000000000000       0x10 /home/nikola/PNRS/pnrs-2023/de1-soc-demo/sw/nios/individual/paper_bsp//obj/HAL/src/crt0.o
 .debug_alt_sim_info
                0x0000000000000010       0x30 /home/nikola/PNRS/pnrs-2023/de1-soc-demo/sw/nios/individual/paper_bsp//libhal_bsp.a(alt_busy_sleep.o)
                0x0000000006000000                __alt_data_end = 0x6000000
                0x0000000006000000                PROVIDE (__alt_stack_pointer = __alt_data_end)
                [!provide]                        PROVIDE (__alt_stack_limit = __alt_stack_base)
                0x00000000050096d4                PROVIDE (__alt_heap_start = end)
                0x0000000006000000                PROVIDE (__alt_heap_limit = 0x6000000)
OUTPUT(paper.elf elf32-littlenios2)
LOAD linker stubs

.debug_ranges   0x0000000000000000      0x8a0
 .debug_ranges  0x0000000000000000       0x20 /home/nikola/PNRS/pnrs-2023/de1-soc-demo/sw/nios/individual/paper_bsp//obj/HAL/src/crt0.o
 .debug_ranges  0x0000000000000020       0x30 /home/nikola/intelFPGA_lite/21.1/nios2eds/bin/gnu/H-x86_64-pc-linux-gnu/bin/../lib/gcc/nios2-elf/10.3.1/../../../../../H-x86_64-pc-linux-gnu/nios2-elf/lib/mno-hw-mul/libc.a(lib_a-puts.o)
 .debug_ranges  0x0000000000000050       0x10 /home/nikola/intelFPGA_lite/21.1/nios2eds/bin/gnu/H-x86_64-pc-linux-gnu/bin/../lib/gcc/nios2-elf/10.3.1/../../../../../H-x86_64-pc-linux-gnu/nios2-elf/lib/mno-hw-mul/libc.a(lib_a-strlen.o)
 .debug_ranges  0x0000000000000060      0x148 /home/nikola/intelFPGA_lite/21.1/nios2eds/bin/gnu/H-x86_64-pc-linux-gnu/bin/../lib/gcc/nios2-elf/10.3.1/../../../../../H-x86_64-pc-linux-gnu/nios2-elf/lib/mno-hw-mul/libc.a(lib_a-findfp.o)
 .debug_ranges  0x00000000000001a8       0x38 /home/nikola/intelFPGA_lite/21.1/nios2eds/bin/gnu/H-x86_64-pc-linux-gnu/bin/../lib/gcc/nios2-elf/10.3.1/../../../../../H-x86_64-pc-linux-gnu/nios2-elf/lib/mno-hw-mul/libc.a(lib_a-fvwrite.o)
 .debug_ranges  0x00000000000001e0       0x18 /home/nikola/intelFPGA_lite/21.1/nios2eds/bin/gnu/H-x86_64-pc-linux-gnu/bin/../lib/gcc/nios2-elf/10.3.1/../../../../../H-x86_64-pc-linux-gnu/nios2-elf/lib/mno-hw-mul/libc.a(lib_a-fwalk.o)
 .debug_ranges  0x00000000000001f8       0x60 /home/nikola/intelFPGA_lite/21.1/nios2eds/bin/gnu/H-x86_64-pc-linux-gnu/bin/../lib/gcc/nios2-elf/10.3.1/../../../../../H-x86_64-pc-linux-gnu/nios2-elf/lib/mno-hw-mul/libc.a(lib_a-mallocr.o)
 .debug_ranges  0x0000000000000258       0x10 /home/nikola/intelFPGA_lite/21.1/nios2eds/bin/gnu/H-x86_64-pc-linux-gnu/bin/../lib/gcc/nios2-elf/10.3.1/../../../../../H-x86_64-pc-linux-gnu/nios2-elf/lib/mno-hw-mul/libc.a(lib_a-memchr.o)
 .debug_ranges  0x0000000000000268       0x10 /home/nikola/intelFPGA_lite/21.1/nios2eds/bin/gnu/H-x86_64-pc-linux-gnu/bin/../lib/gcc/nios2-elf/10.3.1/../../../../../H-x86_64-pc-linux-gnu/nios2-elf/lib/mno-hw-mul/libc.a(lib_a-memcpy.o)
 .debug_ranges  0x0000000000000278       0x10 /home/nikola/intelFPGA_lite/21.1/nios2eds/bin/gnu/H-x86_64-pc-linux-gnu/bin/../lib/gcc/nios2-elf/10.3.1/../../../../../H-x86_64-pc-linux-gnu/nios2-elf/lib/mno-hw-mul/libc.a(lib_a-memmove.o)
 .debug_ranges  0x0000000000000288       0x10 /home/nikola/intelFPGA_lite/21.1/nios2eds/bin/gnu/H-x86_64-pc-linux-gnu/bin/../lib/gcc/nios2-elf/10.3.1/../../../../../H-x86_64-pc-linux-gnu/nios2-elf/lib/mno-hw-mul/libc.a(lib_a-memset.o)
 .debug_ranges  0x0000000000000298      0x158 /home/nikola/intelFPGA_lite/21.1/nios2eds/bin/gnu/H-x86_64-pc-linux-gnu/bin/../lib/gcc/nios2-elf/10.3.1/../../../../../H-x86_64-pc-linux-gnu/nios2-elf/lib/mno-hw-mul/libc.a(lib_a-reallocr.o)
 .debug_ranges  0x00000000000003f0       0x10 /home/nikola/intelFPGA_lite/21.1/nios2eds/bin/gnu/H-x86_64-pc-linux-gnu/bin/../lib/gcc/nios2-elf/10.3.1/../../../../../H-x86_64-pc-linux-gnu/nios2-elf/lib/mno-hw-mul/libc.a(lib_a-sbrkr.o)
 .debug_ranges  0x0000000000000400       0x30 /home/nikola/intelFPGA_lite/21.1/nios2eds/bin/gnu/H-x86_64-pc-linux-gnu/bin/../lib/gcc/nios2-elf/10.3.1/../../../../../H-x86_64-pc-linux-gnu/nios2-elf/lib/mno-hw-mul/libc.a(lib_a-stdio.o)
 .debug_ranges  0x0000000000000430       0x10 /home/nikola/intelFPGA_lite/21.1/nios2eds/bin/gnu/H-x86_64-pc-linux-gnu/bin/../lib/gcc/nios2-elf/10.3.1/../../../../../H-x86_64-pc-linux-gnu/nios2-elf/lib/mno-hw-mul/libc.a(lib_a-writer.o)
 .debug_ranges  0x0000000000000440       0x30 /home/nikola/intelFPGA_lite/21.1/nios2eds/bin/gnu/H-x86_64-pc-linux-gnu/bin/../lib/gcc/nios2-elf/10.3.1/../../../../../H-x86_64-pc-linux-gnu/nios2-elf/lib/mno-hw-mul/libc.a(lib_a-wsetup.o)
 .debug_ranges  0x0000000000000470       0x10 /home/nikola/intelFPGA_lite/21.1/nios2eds/bin/gnu/H-x86_64-pc-linux-gnu/bin/../lib/gcc/nios2-elf/10.3.1/../../../../../H-x86_64-pc-linux-gnu/nios2-elf/lib/mno-hw-mul/libc.a(closer.o)
 .debug_ranges  0x0000000000000480       0x90 /home/nikola/intelFPGA_lite/21.1/nios2eds/bin/gnu/H-x86_64-pc-linux-gnu/bin/../lib/gcc/nios2-elf/10.3.1/../../../../../H-x86_64-pc-linux-gnu/nios2-elf/lib/mno-hw-mul/libc.a(lib_a-fclose.o)
 .debug_ranges  0x0000000000000510       0xc8 /home/nikola/intelFPGA_lite/21.1/nios2eds/bin/gnu/H-x86_64-pc-linux-gnu/bin/../lib/gcc/nios2-elf/10.3.1/../../../../../H-x86_64-pc-linux-gnu/nios2-elf/lib/mno-hw-mul/libc.a(lib_a-fflush.o)
 .debug_ranges  0x00000000000005d8       0x18 /home/nikola/intelFPGA_lite/21.1/nios2eds/bin/gnu/H-x86_64-pc-linux-gnu/bin/../lib/gcc/nios2-elf/10.3.1/../../../../../H-x86_64-pc-linux-gnu/nios2-elf/lib/mno-hw-mul/libc.a(lib_a-freer.o)
 .debug_ranges  0x00000000000005f0       0x10 /home/nikola/intelFPGA_lite/21.1/nios2eds/bin/gnu/H-x86_64-pc-linux-gnu/bin/../lib/gcc/nios2-elf/10.3.1/../../../../../H-x86_64-pc-linux-gnu/nios2-elf/lib/mno-hw-mul/libc.a(lib_a-lseekr.o)
 .debug_ranges  0x0000000000000600       0xc0 /home/nikola/intelFPGA_lite/21.1/nios2eds/bin/gnu/H-x86_64-pc-linux-gnu/bin/../lib/gcc/nios2-elf/10.3.1/../../../../../H-x86_64-pc-linux-gnu/nios2-elf/lib/mno-hw-mul/libc.a(lib_a-makebuf.o)
 .debug_ranges  0x00000000000006c0       0x10 /home/nikola/intelFPGA_lite/21.1/nios2eds/bin/gnu/H-x86_64-pc-linux-gnu/bin/../lib/gcc/nios2-elf/10.3.1/../../../../../H-x86_64-pc-linux-gnu/nios2-elf/lib/mno-hw-mul/libc.a(lib_a-readr.o)
 .debug_ranges  0x00000000000006d0       0x10 /home/nikola/intelFPGA_lite/21.1/nios2eds/bin/gnu/H-x86_64-pc-linux-gnu/bin/../lib/gcc/nios2-elf/10.3.1/../../../../../H-x86_64-pc-linux-gnu/nios2-elf/lib/mno-hw-mul/libc.a(lib_a-fstatr.o)
 .debug_ranges  0x00000000000006e0       0x10 /home/nikola/intelFPGA_lite/21.1/nios2eds/bin/gnu/H-x86_64-pc-linux-gnu/bin/../lib/gcc/nios2-elf/10.3.1/../../../../../H-x86_64-pc-linux-gnu/nios2-elf/lib/mno-hw-mul/libc.a(lib_a-isattyr.o)
 .debug_ranges  0x00000000000006f0       0x70 /home/nikola/intelFPGA_lite/21.1/nios2eds/bin/gnu/H-x86_64-pc-linux-gnu/bin/../lib/gcc/nios2-elf/10.3.1/mno-hw-mul/libgcc.a(lib2-divmod.o)
 .debug_ranges  0x0000000000000760       0x30 /home/nikola/PNRS/pnrs-2023/de1-soc-demo/sw/nios/individual/paper_bsp//libhal_bsp.a(altera_avalon_jtag_uart_init.o)
 .debug_ranges  0x0000000000000790       0x18 /home/nikola/PNRS/pnrs-2023/de1-soc-demo/sw/nios/individual/paper_bsp//libhal_bsp.a(altera_avalon_jtag_uart_read.o)
 .debug_ranges  0x00000000000007a8       0x28 /home/nikola/PNRS/pnrs-2023/de1-soc-demo/sw/nios/individual/paper_bsp//libhal_bsp.a(alt_irq_entry.o)
 .debug_ranges  0x00000000000007d0       0x10 /home/nikola/PNRS/pnrs-2023/de1-soc-demo/sw/nios/individual/paper_bsp//libhal_bsp.a(alt_irq_handler.o)
 .debug_ranges  0x00000000000007e0       0x30 /home/nikola/PNRS/pnrs-2023/de1-soc-demo/sw/nios/individual/paper_bsp//libhal_bsp.a(alt_exception_entry.o)
 .debug_ranges  0x0000000000000810       0x18 /home/nikola/PNRS/pnrs-2023/de1-soc-demo/sw/nios/individual/paper_bsp//libhal_bsp.a(alt_instruction_exception_entry.o)
 .debug_ranges  0x0000000000000828       0x10 /home/nikola/intelFPGA_lite/21.1/nios2eds/bin/gnu/H-x86_64-pc-linux-gnu/bin/../lib/gcc/nios2-elf/10.3.1/../../../../../H-x86_64-pc-linux-gnu/nios2-elf/lib/mno-hw-mul/libc.a(lib_a-atexit.o)
 .debug_ranges  0x0000000000000838       0x10 /home/nikola/intelFPGA_lite/21.1/nios2eds/bin/gnu/H-x86_64-pc-linux-gnu/bin/../lib/gcc/nios2-elf/10.3.1/../../../../../H-x86_64-pc-linux-gnu/nios2-elf/lib/mno-hw-mul/libc.a(lib_a-exit.o)
 .debug_ranges  0x0000000000000848       0x10 /home/nikola/intelFPGA_lite/21.1/nios2eds/bin/gnu/H-x86_64-pc-linux-gnu/bin/../lib/gcc/nios2-elf/10.3.1/../../../../../H-x86_64-pc-linux-gnu/nios2-elf/lib/mno-hw-mul/libc.a(lib_a-memcmp.o)
 .debug_ranges  0x0000000000000858       0x10 /home/nikola/intelFPGA_lite/21.1/nios2eds/bin/gnu/H-x86_64-pc-linux-gnu/bin/../lib/gcc/nios2-elf/10.3.1/../../../../../H-x86_64-pc-linux-gnu/nios2-elf/lib/mno-hw-mul/libc.a(lib_a-__atexit.o)
 .debug_ranges  0x0000000000000868       0x38 /home/nikola/intelFPGA_lite/21.1/nios2eds/bin/gnu/H-x86_64-pc-linux-gnu/bin/../lib/gcc/nios2-elf/10.3.1/../../../../../H-x86_64-pc-linux-gnu/nios2-elf/lib/mno-hw-mul/libc.a(lib_a-__call_atexit.o)
